
/home/david/Documents/work/dtcore32/test/riscv-tests/rv32ui/sh.S.v2:     file format elf32-littleriscv


Disassembly of section .text:

00000000 <_start>:
   0:	04c0006f          	j	4c <reset_vector>

00000004 <trap_vector>:
   4:	34202f73          	csrr	t5,mcause
   8:	00800f93          	li	t6,8
   c:	03ff0863          	beq	t5,t6,3c <write_tohost>
  10:	00900f93          	li	t6,9
  14:	03ff0463          	beq	t5,t6,3c <write_tohost>
  18:	00b00f93          	li	t6,11
  1c:	03ff0063          	beq	t5,t6,3c <write_tohost>
  20:	00000f13          	li	t5,0
  24:	000f0463          	beqz	t5,2c <trap_vector+0x28>
  28:	000f0067          	jr	t5
  2c:	34202f73          	csrr	t5,mcause
  30:	000f5463          	bgez	t5,38 <handle_exception>
  34:	0040006f          	j	38 <handle_exception>

00000038 <handle_exception>:
  38:	5391e193          	ori	gp,gp,1337

0000003c <write_tohost>:
  3c:	00002f17          	auipc	t5,0x2
  40:	003f2223          	sw	gp,4(t5) # 2040 <tohost>
  44:	8401a223          	sw	zero,-1980(gp) # 2044 <tohost+0x4>
  48:	ff5ff06f          	j	3c <write_tohost>

0000004c <reset_vector>:
  4c:	00000093          	li	ra,0
  50:	00000113          	li	sp,0
  54:	00000193          	li	gp,0
  58:	00000213          	li	tp,0
  5c:	00000293          	li	t0,0
  60:	00000313          	li	t1,0
  64:	00000393          	li	t2,0
  68:	00000413          	li	s0,0
  6c:	00000493          	li	s1,0
  70:	00000513          	li	a0,0
  74:	00000593          	li	a1,0
  78:	00000613          	li	a2,0
  7c:	00000693          	li	a3,0
  80:	00000713          	li	a4,0
  84:	00000793          	li	a5,0
  88:	00000813          	li	a6,0
  8c:	00000893          	li	a7,0
  90:	00000913          	li	s2,0
  94:	00000993          	li	s3,0
  98:	00000a13          	li	s4,0
  9c:	00000a93          	li	s5,0
  a0:	00000b13          	li	s6,0
  a4:	00000b93          	li	s7,0
  a8:	00000c13          	li	s8,0
  ac:	00000c93          	li	s9,0
  b0:	00000d13          	li	s10,0
  b4:	00000d93          	li	s11,0
  b8:	00000e13          	li	t3,0
  bc:	00000e93          	li	t4,0
  c0:	00000f13          	li	t5,0
  c4:	00000f93          	li	t6,0
  c8:	f1402573          	csrr	a0,mhartid
  cc:	00051063          	bnez	a0,cc <reset_vector+0x80>
  d0:	00000297          	auipc	t0,0x0
  d4:	01028293          	addi	t0,t0,16 # e0 <reset_vector+0x94>
  d8:	30529073          	csrw	mtvec,t0
  dc:	74445073          	csrwi	0x744,8
  e0:	00000297          	auipc	t0,0x0
  e4:	01028293          	addi	t0,t0,16 # f0 <reset_vector+0xa4>
  e8:	30529073          	csrw	mtvec,t0
  ec:	18005073          	csrwi	satp,0
  f0:	00000297          	auipc	t0,0x0
  f4:	02028293          	addi	t0,t0,32 # 110 <reset_vector+0xc4>
  f8:	30529073          	csrw	mtvec,t0
  fc:	800002b7          	lui	t0,0x80000
 100:	fff28293          	addi	t0,t0,-1 # 7fffffff <__global_pointer$+0x7fffd7ff>
 104:	3b029073          	csrw	pmpaddr0,t0
 108:	01f00293          	li	t0,31
 10c:	3a029073          	csrw	pmpcfg0,t0
 110:	30405073          	csrwi	mie,0
 114:	00000297          	auipc	t0,0x0
 118:	01428293          	addi	t0,t0,20 # 128 <reset_vector+0xdc>
 11c:	30529073          	csrw	mtvec,t0
 120:	30205073          	csrwi	medeleg,0
 124:	30305073          	csrwi	mideleg,0
 128:	00000193          	li	gp,0
 12c:	00000297          	auipc	t0,0x0
 130:	ed828293          	addi	t0,t0,-296 # 4 <trap_vector>
 134:	30529073          	csrw	mtvec,t0
 138:	00100513          	li	a0,1
 13c:	01f51513          	slli	a0,a0,0x1f
 140:	00054c63          	bltz	a0,158 <reset_vector+0x10c>
 144:	0ff0000f          	fence
 148:	00100193          	li	gp,1
 14c:	05d00893          	li	a7,93
 150:	00000513          	li	a0,0
 154:	00000073          	ecall
 158:	00000293          	li	t0,0
 15c:	00028a63          	beqz	t0,170 <reset_vector+0x124>
 160:	10529073          	csrw	stvec,t0
 164:	0000b2b7          	lui	t0,0xb
 168:	10928293          	addi	t0,t0,265 # b109 <__global_pointer$+0x8909>
 16c:	30229073          	csrw	medeleg,t0
 170:	30005073          	csrwi	mstatus,0
 174:	00000297          	auipc	t0,0x0
 178:	01428293          	addi	t0,t0,20 # 188 <test_2>
 17c:	34129073          	csrw	mepc,t0
 180:	f1402573          	csrr	a0,mhartid
 184:	30200073          	mret

00000188 <test_2>:
 188:	00200193          	li	gp,2
 18c:	00002117          	auipc	sp,0x2
 190:	e7410113          	addi	sp,sp,-396 # 2000 <__DATA_BEGIN__>
 194:	0aa00093          	li	ra,170
 198:	00000797          	auipc	a5,0x0
 19c:	01478793          	addi	a5,a5,20 # 1ac <test_2+0x24>
 1a0:	00111023          	sh	ra,0(sp)
 1a4:	00011703          	lh	a4,0(sp)
 1a8:	0080006f          	j	1b0 <test_2+0x28>
 1ac:	00008713          	mv	a4,ra
 1b0:	0aa00393          	li	t2,170
 1b4:	4c771663          	bne	a4,t2,680 <fail>

000001b8 <test_3>:
 1b8:	00300193          	li	gp,3
 1bc:	00002117          	auipc	sp,0x2
 1c0:	e4410113          	addi	sp,sp,-444 # 2000 <__DATA_BEGIN__>
 1c4:	ffffb0b7          	lui	ra,0xffffb
 1c8:	a0008093          	addi	ra,ra,-1536 # ffffaa00 <__global_pointer$+0xffff8200>
 1cc:	00000797          	auipc	a5,0x0
 1d0:	01478793          	addi	a5,a5,20 # 1e0 <test_3+0x28>
 1d4:	00111123          	sh	ra,2(sp)
 1d8:	00211703          	lh	a4,2(sp)
 1dc:	0080006f          	j	1e4 <test_3+0x2c>
 1e0:	00008713          	mv	a4,ra
 1e4:	ffffb3b7          	lui	t2,0xffffb
 1e8:	a0038393          	addi	t2,t2,-1536 # ffffaa00 <__global_pointer$+0xffff8200>
 1ec:	48771a63          	bne	a4,t2,680 <fail>

000001f0 <test_4>:
 1f0:	00400193          	li	gp,4
 1f4:	00002117          	auipc	sp,0x2
 1f8:	e0c10113          	addi	sp,sp,-500 # 2000 <__DATA_BEGIN__>
 1fc:	beef10b7          	lui	ra,0xbeef1
 200:	aa008093          	addi	ra,ra,-1376 # beef0aa0 <__global_pointer$+0xbeeee2a0>
 204:	00000797          	auipc	a5,0x0
 208:	01478793          	addi	a5,a5,20 # 218 <test_4+0x28>
 20c:	00111223          	sh	ra,4(sp)
 210:	00412703          	lw	a4,4(sp)
 214:	0080006f          	j	21c <test_4+0x2c>
 218:	00008713          	mv	a4,ra
 21c:	beef13b7          	lui	t2,0xbeef1
 220:	aa038393          	addi	t2,t2,-1376 # beef0aa0 <__global_pointer$+0xbeeee2a0>
 224:	44771e63          	bne	a4,t2,680 <fail>

00000228 <test_5>:
 228:	00500193          	li	gp,5
 22c:	00002117          	auipc	sp,0x2
 230:	dd410113          	addi	sp,sp,-556 # 2000 <__DATA_BEGIN__>
 234:	ffffa0b7          	lui	ra,0xffffa
 238:	00a08093          	addi	ra,ra,10 # ffffa00a <__global_pointer$+0xffff780a>
 23c:	00000797          	auipc	a5,0x0
 240:	01478793          	addi	a5,a5,20 # 250 <test_5+0x28>
 244:	00111323          	sh	ra,6(sp)
 248:	00611703          	lh	a4,6(sp)
 24c:	0080006f          	j	254 <test_5+0x2c>
 250:	00008713          	mv	a4,ra
 254:	ffffa3b7          	lui	t2,0xffffa
 258:	00a38393          	addi	t2,t2,10 # ffffa00a <__global_pointer$+0xffff780a>
 25c:	42771263          	bne	a4,t2,680 <fail>

00000260 <test_6>:
 260:	00600193          	li	gp,6
 264:	00002117          	auipc	sp,0x2
 268:	daa10113          	addi	sp,sp,-598 # 200e <tdat8>
 26c:	0aa00093          	li	ra,170
 270:	00000797          	auipc	a5,0x0
 274:	01478793          	addi	a5,a5,20 # 284 <test_6+0x24>
 278:	fe111d23          	sh	ra,-6(sp)
 27c:	ffa11703          	lh	a4,-6(sp)
 280:	0080006f          	j	288 <test_6+0x28>
 284:	00008713          	mv	a4,ra
 288:	0aa00393          	li	t2,170
 28c:	3e771a63          	bne	a4,t2,680 <fail>

00000290 <test_7>:
 290:	00700193          	li	gp,7
 294:	00002117          	auipc	sp,0x2
 298:	d7a10113          	addi	sp,sp,-646 # 200e <tdat8>
 29c:	ffffb0b7          	lui	ra,0xffffb
 2a0:	a0008093          	addi	ra,ra,-1536 # ffffaa00 <__global_pointer$+0xffff8200>
 2a4:	00000797          	auipc	a5,0x0
 2a8:	01478793          	addi	a5,a5,20 # 2b8 <test_7+0x28>
 2ac:	fe111e23          	sh	ra,-4(sp)
 2b0:	ffc11703          	lh	a4,-4(sp)
 2b4:	0080006f          	j	2bc <test_7+0x2c>
 2b8:	00008713          	mv	a4,ra
 2bc:	ffffb3b7          	lui	t2,0xffffb
 2c0:	a0038393          	addi	t2,t2,-1536 # ffffaa00 <__global_pointer$+0xffff8200>
 2c4:	3a771e63          	bne	a4,t2,680 <fail>

000002c8 <test_8>:
 2c8:	00800193          	li	gp,8
 2cc:	00002117          	auipc	sp,0x2
 2d0:	d4210113          	addi	sp,sp,-702 # 200e <tdat8>
 2d4:	000010b7          	lui	ra,0x1
 2d8:	aa008093          	addi	ra,ra,-1376 # aa0 <pass+0x404>
 2dc:	00000797          	auipc	a5,0x0
 2e0:	01478793          	addi	a5,a5,20 # 2f0 <test_8+0x28>
 2e4:	fe111f23          	sh	ra,-2(sp)
 2e8:	ffe11703          	lh	a4,-2(sp)
 2ec:	0080006f          	j	2f4 <test_8+0x2c>
 2f0:	00008713          	mv	a4,ra
 2f4:	000013b7          	lui	t2,0x1
 2f8:	aa038393          	addi	t2,t2,-1376 # aa0 <pass+0x404>
 2fc:	38771263          	bne	a4,t2,680 <fail>

00000300 <test_9>:
 300:	00900193          	li	gp,9
 304:	00002117          	auipc	sp,0x2
 308:	d0a10113          	addi	sp,sp,-758 # 200e <tdat8>
 30c:	ffffa0b7          	lui	ra,0xffffa
 310:	00a08093          	addi	ra,ra,10 # ffffa00a <__global_pointer$+0xffff780a>
 314:	00000797          	auipc	a5,0x0
 318:	01478793          	addi	a5,a5,20 # 328 <test_9+0x28>
 31c:	00111023          	sh	ra,0(sp)
 320:	00011703          	lh	a4,0(sp)
 324:	0080006f          	j	32c <test_9+0x2c>
 328:	00008713          	mv	a4,ra
 32c:	ffffa3b7          	lui	t2,0xffffa
 330:	00a38393          	addi	t2,t2,10 # ffffa00a <__global_pointer$+0xffff780a>
 334:	34771663          	bne	a4,t2,680 <fail>

00000338 <test_10>:
 338:	00a00193          	li	gp,10
 33c:	00002097          	auipc	ra,0x2
 340:	cd408093          	addi	ra,ra,-812 # 2010 <tdat9>
 344:	12345137          	lui	sp,0x12345
 348:	67810113          	addi	sp,sp,1656 # 12345678 <__global_pointer$+0x12342e78>
 34c:	fe008213          	addi	tp,ra,-32
 350:	02221023          	sh	sp,32(tp) # 20 <trap_vector+0x1c>
 354:	00009283          	lh	t0,0(ra)
 358:	000053b7          	lui	t2,0x5
 35c:	67838393          	addi	t2,t2,1656 # 5678 <__global_pointer$+0x2e78>
 360:	32729063          	bne	t0,t2,680 <fail>

00000364 <test_11>:
 364:	00b00193          	li	gp,11
 368:	00002097          	auipc	ra,0x2
 36c:	ca808093          	addi	ra,ra,-856 # 2010 <tdat9>
 370:	00003137          	lui	sp,0x3
 374:	09810113          	addi	sp,sp,152 # 3098 <__global_pointer$+0x898>
 378:	ffb08093          	addi	ra,ra,-5
 37c:	002093a3          	sh	sp,7(ra)
 380:	00002217          	auipc	tp,0x2
 384:	c9220213          	addi	tp,tp,-878 # 2012 <tdat10>
 388:	00021283          	lh	t0,0(tp) # 0 <_start>
 38c:	000033b7          	lui	t2,0x3
 390:	09838393          	addi	t2,t2,152 # 3098 <__global_pointer$+0x898>
 394:	2e729663          	bne	t0,t2,680 <fail>

00000398 <test_12>:
 398:	00c00193          	li	gp,12
 39c:	00000213          	li	tp,0
 3a0:	ffffd6b7          	lui	a3,0xffffd
 3a4:	cdd68693          	addi	a3,a3,-803 # ffffccdd <__global_pointer$+0xffffa4dd>
 3a8:	00002617          	auipc	a2,0x2
 3ac:	c5860613          	addi	a2,a2,-936 # 2000 <__DATA_BEGIN__>
 3b0:	00d61023          	sh	a3,0(a2)
 3b4:	00061703          	lh	a4,0(a2)
 3b8:	ffffd3b7          	lui	t2,0xffffd
 3bc:	cdd38393          	addi	t2,t2,-803 # ffffccdd <__global_pointer$+0xffffa4dd>
 3c0:	2c771063          	bne	a4,t2,680 <fail>
 3c4:	00120213          	addi	tp,tp,1 # 1 <_start+0x1>
 3c8:	00200293          	li	t0,2
 3cc:	fc521ae3          	bne	tp,t0,3a0 <test_12+0x8>

000003d0 <test_13>:
 3d0:	00d00193          	li	gp,13
 3d4:	00000213          	li	tp,0
 3d8:	ffffc6b7          	lui	a3,0xffffc
 3dc:	ccd68693          	addi	a3,a3,-819 # ffffbccd <__global_pointer$+0xffff94cd>
 3e0:	00002617          	auipc	a2,0x2
 3e4:	c2060613          	addi	a2,a2,-992 # 2000 <__DATA_BEGIN__>
 3e8:	00000013          	nop
 3ec:	00d61123          	sh	a3,2(a2)
 3f0:	00261703          	lh	a4,2(a2)
 3f4:	ffffc3b7          	lui	t2,0xffffc
 3f8:	ccd38393          	addi	t2,t2,-819 # ffffbccd <__global_pointer$+0xffff94cd>
 3fc:	28771263          	bne	a4,t2,680 <fail>
 400:	00120213          	addi	tp,tp,1 # 1 <_start+0x1>
 404:	00200293          	li	t0,2
 408:	fc5218e3          	bne	tp,t0,3d8 <test_13+0x8>

0000040c <test_14>:
 40c:	00e00193          	li	gp,14
 410:	00000213          	li	tp,0
 414:	ffffc6b7          	lui	a3,0xffffc
 418:	bcc68693          	addi	a3,a3,-1076 # ffffbbcc <__global_pointer$+0xffff93cc>
 41c:	00002617          	auipc	a2,0x2
 420:	be460613          	addi	a2,a2,-1052 # 2000 <__DATA_BEGIN__>
 424:	00000013          	nop
 428:	00000013          	nop
 42c:	00d61223          	sh	a3,4(a2)
 430:	00461703          	lh	a4,4(a2)
 434:	ffffc3b7          	lui	t2,0xffffc
 438:	bcc38393          	addi	t2,t2,-1076 # ffffbbcc <__global_pointer$+0xffff93cc>
 43c:	24771263          	bne	a4,t2,680 <fail>
 440:	00120213          	addi	tp,tp,1 # 1 <_start+0x1>
 444:	00200293          	li	t0,2
 448:	fc5216e3          	bne	tp,t0,414 <test_14+0x8>

0000044c <test_15>:
 44c:	00f00193          	li	gp,15
 450:	00000213          	li	tp,0
 454:	ffffb6b7          	lui	a3,0xffffb
 458:	bbc68693          	addi	a3,a3,-1092 # ffffabbc <__global_pointer$+0xffff83bc>
 45c:	00000013          	nop
 460:	00002617          	auipc	a2,0x2
 464:	ba060613          	addi	a2,a2,-1120 # 2000 <__DATA_BEGIN__>
 468:	00d61323          	sh	a3,6(a2)
 46c:	00661703          	lh	a4,6(a2)
 470:	ffffb3b7          	lui	t2,0xffffb
 474:	bbc38393          	addi	t2,t2,-1092 # ffffabbc <__global_pointer$+0xffff83bc>
 478:	20771463          	bne	a4,t2,680 <fail>
 47c:	00120213          	addi	tp,tp,1 # 1 <_start+0x1>
 480:	00200293          	li	t0,2
 484:	fc5218e3          	bne	tp,t0,454 <test_15+0x8>

00000488 <test_16>:
 488:	01000193          	li	gp,16
 48c:	00000213          	li	tp,0
 490:	ffffb6b7          	lui	a3,0xffffb
 494:	abb68693          	addi	a3,a3,-1349 # ffffaabb <__global_pointer$+0xffff82bb>
 498:	00000013          	nop
 49c:	00002617          	auipc	a2,0x2
 4a0:	b6460613          	addi	a2,a2,-1180 # 2000 <__DATA_BEGIN__>
 4a4:	00000013          	nop
 4a8:	00d61423          	sh	a3,8(a2)
 4ac:	00861703          	lh	a4,8(a2)
 4b0:	ffffb3b7          	lui	t2,0xffffb
 4b4:	abb38393          	addi	t2,t2,-1349 # ffffaabb <__global_pointer$+0xffff82bb>
 4b8:	1c771463          	bne	a4,t2,680 <fail>
 4bc:	00120213          	addi	tp,tp,1 # 1 <_start+0x1>
 4c0:	00200293          	li	t0,2
 4c4:	fc5216e3          	bne	tp,t0,490 <test_16+0x8>

000004c8 <test_17>:
 4c8:	01100193          	li	gp,17
 4cc:	00000213          	li	tp,0
 4d0:	ffffe6b7          	lui	a3,0xffffe
 4d4:	aab68693          	addi	a3,a3,-1365 # ffffdaab <__global_pointer$+0xffffb2ab>
 4d8:	00000013          	nop
 4dc:	00000013          	nop
 4e0:	00002617          	auipc	a2,0x2
 4e4:	b2060613          	addi	a2,a2,-1248 # 2000 <__DATA_BEGIN__>
 4e8:	00d61523          	sh	a3,10(a2)
 4ec:	00a61703          	lh	a4,10(a2)
 4f0:	ffffe3b7          	lui	t2,0xffffe
 4f4:	aab38393          	addi	t2,t2,-1365 # ffffdaab <__global_pointer$+0xffffb2ab>
 4f8:	18771463          	bne	a4,t2,680 <fail>
 4fc:	00120213          	addi	tp,tp,1 # 1 <_start+0x1>
 500:	00200293          	li	t0,2
 504:	fc5216e3          	bne	tp,t0,4d0 <test_17+0x8>

00000508 <test_18>:
 508:	01200193          	li	gp,18
 50c:	00000213          	li	tp,0
 510:	00002117          	auipc	sp,0x2
 514:	af010113          	addi	sp,sp,-1296 # 2000 <__DATA_BEGIN__>
 518:	000020b7          	lui	ra,0x2
 51c:	23308093          	addi	ra,ra,563 # 2233 <__BSS_END__+0x1ab>
 520:	00111023          	sh	ra,0(sp)
 524:	00011703          	lh	a4,0(sp)
 528:	000023b7          	lui	t2,0x2
 52c:	23338393          	addi	t2,t2,563 # 2233 <__BSS_END__+0x1ab>
 530:	14771863          	bne	a4,t2,680 <fail>
 534:	00120213          	addi	tp,tp,1 # 1 <_start+0x1>
 538:	00200293          	li	t0,2
 53c:	fc521ae3          	bne	tp,t0,510 <test_18+0x8>

00000540 <test_19>:
 540:	01300193          	li	gp,19
 544:	00000213          	li	tp,0
 548:	00002117          	auipc	sp,0x2
 54c:	ab810113          	addi	sp,sp,-1352 # 2000 <__DATA_BEGIN__>
 550:	000010b7          	lui	ra,0x1
 554:	22308093          	addi	ra,ra,547 # 1223 <pass+0xb87>
 558:	00000013          	nop
 55c:	00111123          	sh	ra,2(sp)
 560:	00211703          	lh	a4,2(sp)
 564:	000013b7          	lui	t2,0x1
 568:	22338393          	addi	t2,t2,547 # 1223 <pass+0xb87>
 56c:	10771a63          	bne	a4,t2,680 <fail>
 570:	00120213          	addi	tp,tp,1 # 1 <_start+0x1>
 574:	00200293          	li	t0,2
 578:	fc5218e3          	bne	tp,t0,548 <test_19+0x8>

0000057c <test_20>:
 57c:	01400193          	li	gp,20
 580:	00000213          	li	tp,0
 584:	00002117          	auipc	sp,0x2
 588:	a7c10113          	addi	sp,sp,-1412 # 2000 <__DATA_BEGIN__>
 58c:	000010b7          	lui	ra,0x1
 590:	12208093          	addi	ra,ra,290 # 1122 <pass+0xa86>
 594:	00000013          	nop
 598:	00000013          	nop
 59c:	00111223          	sh	ra,4(sp)
 5a0:	00411703          	lh	a4,4(sp)
 5a4:	000013b7          	lui	t2,0x1
 5a8:	12238393          	addi	t2,t2,290 # 1122 <pass+0xa86>
 5ac:	0c771a63          	bne	a4,t2,680 <fail>
 5b0:	00120213          	addi	tp,tp,1 # 1 <_start+0x1>
 5b4:	00200293          	li	t0,2
 5b8:	fc5216e3          	bne	tp,t0,584 <test_20+0x8>

000005bc <test_21>:
 5bc:	01500193          	li	gp,21
 5c0:	00000213          	li	tp,0
 5c4:	00002117          	auipc	sp,0x2
 5c8:	a3c10113          	addi	sp,sp,-1476 # 2000 <__DATA_BEGIN__>
 5cc:	00000013          	nop
 5d0:	11200093          	li	ra,274
 5d4:	00111323          	sh	ra,6(sp)
 5d8:	00611703          	lh	a4,6(sp)
 5dc:	11200393          	li	t2,274
 5e0:	0a771063          	bne	a4,t2,680 <fail>
 5e4:	00120213          	addi	tp,tp,1 # 1 <_start+0x1>
 5e8:	00200293          	li	t0,2
 5ec:	fc521ce3          	bne	tp,t0,5c4 <test_21+0x8>

000005f0 <test_22>:
 5f0:	01600193          	li	gp,22
 5f4:	00000213          	li	tp,0
 5f8:	00002117          	auipc	sp,0x2
 5fc:	a0810113          	addi	sp,sp,-1528 # 2000 <__DATA_BEGIN__>
 600:	00000013          	nop
 604:	01100093          	li	ra,17
 608:	00000013          	nop
 60c:	00111423          	sh	ra,8(sp)
 610:	00811703          	lh	a4,8(sp)
 614:	01100393          	li	t2,17
 618:	06771463          	bne	a4,t2,680 <fail>
 61c:	00120213          	addi	tp,tp,1 # 1 <_start+0x1>
 620:	00200293          	li	t0,2
 624:	fc521ae3          	bne	tp,t0,5f8 <test_22+0x8>

00000628 <test_23>:
 628:	01700193          	li	gp,23
 62c:	00000213          	li	tp,0
 630:	00002117          	auipc	sp,0x2
 634:	9d010113          	addi	sp,sp,-1584 # 2000 <__DATA_BEGIN__>
 638:	00000013          	nop
 63c:	00000013          	nop
 640:	000030b7          	lui	ra,0x3
 644:	00108093          	addi	ra,ra,1 # 3001 <__global_pointer$+0x801>
 648:	00111523          	sh	ra,10(sp)
 64c:	00a11703          	lh	a4,10(sp)
 650:	000033b7          	lui	t2,0x3
 654:	00138393          	addi	t2,t2,1 # 3001 <__global_pointer$+0x801>
 658:	02771463          	bne	a4,t2,680 <fail>
 65c:	00120213          	addi	tp,tp,1 # 1 <_start+0x1>
 660:	00200293          	li	t0,2
 664:	fc5216e3          	bne	tp,t0,630 <test_23+0x8>
 668:	0000c537          	lui	a0,0xc
 66c:	eef50513          	addi	a0,a0,-273 # beef <__global_pointer$+0x96ef>
 670:	00002597          	auipc	a1,0x2
 674:	99058593          	addi	a1,a1,-1648 # 2000 <__DATA_BEGIN__>
 678:	00a59323          	sh	a0,6(a1)
 67c:	02301063          	bne	zero,gp,69c <pass>

00000680 <fail>:
 680:	0ff0000f          	fence
 684:	00018063          	beqz	gp,684 <fail+0x4>
 688:	00119193          	slli	gp,gp,0x1
 68c:	0011e193          	ori	gp,gp,1
 690:	05d00893          	li	a7,93
 694:	00018513          	mv	a0,gp
 698:	00000073          	ecall

0000069c <pass>:
 69c:	0ff0000f          	fence
 6a0:	00100193          	li	gp,1
 6a4:	05d00893          	li	a7,93
 6a8:	00000513          	li	a0,0
 6ac:	00000073          	ecall
 6b0:	c0001073          	unimp
 6b4:	0000                	.insn	2, 0x
	...
