
/home/david/Documents/work/dtcore32/test/riscv-tests/rv32ui/slti.S.v2:     file format elf32-littleriscv


Disassembly of section .text:

00000000 <_start>:
   0:	a091                	j	44 <reset_vector>
   2:	0001                	nop

00000004 <trap_vector>:
   4:	34202f73          	csrr	t5,mcause
   8:	4fa1                	li	t6,8
   a:	03ff0463          	beq	t5,t6,32 <write_tohost>
   e:	4fa5                	li	t6,9
  10:	03ff0163          	beq	t5,t6,32 <write_tohost>
  14:	4fad                	li	t6,11
  16:	01ff0e63          	beq	t5,t6,32 <write_tohost>
  1a:	00000f13          	li	t5,0
  1e:	000f0363          	beqz	t5,24 <trap_vector+0x20>
  22:	8f02                	jr	t5
  24:	34202f73          	csrr	t5,mcause
  28:	000f5363          	bgez	t5,2e <handle_exception>
  2c:	a009                	j	2e <handle_exception>

0000002e <handle_exception>:
  2e:	5391e193          	ori	gp,gp,1337

00000032 <write_tohost>:
  32:	00002f17          	auipc	t5,0x2
  36:	fc3f2723          	sw	gp,-50(t5) # 2000 <tohost>
  3a:	00002f17          	auipc	t5,0x2
  3e:	fc0f2523          	sw	zero,-54(t5) # 2004 <tohost+0x4>
  42:	bfc5                	j	32 <write_tohost>

00000044 <reset_vector>:
  44:	4081                	li	ra,0
  46:	4101                	li	sp,0
  48:	4181                	li	gp,0
  4a:	4201                	li	tp,0
  4c:	4281                	li	t0,0
  4e:	4301                	li	t1,0
  50:	4381                	li	t2,0
  52:	4401                	li	s0,0
  54:	4481                	li	s1,0
  56:	4501                	li	a0,0
  58:	4581                	li	a1,0
  5a:	4601                	li	a2,0
  5c:	4681                	li	a3,0
  5e:	4701                	li	a4,0
  60:	4781                	li	a5,0
  62:	4801                	li	a6,0
  64:	4881                	li	a7,0
  66:	4901                	li	s2,0
  68:	4981                	li	s3,0
  6a:	4a01                	li	s4,0
  6c:	4a81                	li	s5,0
  6e:	4b01                	li	s6,0
  70:	4b81                	li	s7,0
  72:	4c01                	li	s8,0
  74:	4c81                	li	s9,0
  76:	4d01                	li	s10,0
  78:	4d81                	li	s11,0
  7a:	4e01                	li	t3,0
  7c:	4e81                	li	t4,0
  7e:	4f01                	li	t5,0
  80:	4f81                	li	t6,0
  82:	f1402573          	csrr	a0,mhartid
  86:	e101                	bnez	a0,86 <reset_vector+0x42>
  88:	00000297          	auipc	t0,0x0
  8c:	01028293          	addi	t0,t0,16 # 98 <reset_vector+0x54>
  90:	30529073          	csrw	mtvec,t0
  94:	74445073          	csrwi	0x744,8
  98:	00000297          	auipc	t0,0x0
  9c:	01028293          	addi	t0,t0,16 # a8 <reset_vector+0x64>
  a0:	30529073          	csrw	mtvec,t0
  a4:	18005073          	csrwi	satp,0
  a8:	00000297          	auipc	t0,0x0
  ac:	01c28293          	addi	t0,t0,28 # c4 <reset_vector+0x80>
  b0:	30529073          	csrw	mtvec,t0
  b4:	800002b7          	lui	t0,0x80000
  b8:	12fd                	addi	t0,t0,-1 # 7fffffff <__global_pointer$+0x7fffd7ff>
  ba:	3b029073          	csrw	pmpaddr0,t0
  be:	42fd                	li	t0,31
  c0:	3a029073          	csrw	pmpcfg0,t0
  c4:	30405073          	csrwi	mie,0
  c8:	00000297          	auipc	t0,0x0
  cc:	01428293          	addi	t0,t0,20 # dc <reset_vector+0x98>
  d0:	30529073          	csrw	mtvec,t0
  d4:	30205073          	csrwi	medeleg,0
  d8:	30305073          	csrwi	mideleg,0
  dc:	4181                	li	gp,0
  de:	00000297          	auipc	t0,0x0
  e2:	f2628293          	addi	t0,t0,-218 # 4 <trap_vector>
  e6:	30529073          	csrw	mtvec,t0
  ea:	4505                	li	a0,1
  ec:	057e                	slli	a0,a0,0x1f
  ee:	00054a63          	bltz	a0,102 <reset_vector+0xbe>
  f2:	0ff0000f          	fence
  f6:	4185                	li	gp,1
  f8:	05d00893          	li	a7,93
  fc:	4501                	li	a0,0
  fe:	00000073          	ecall
 102:	00000293          	li	t0,0
 106:	00028963          	beqz	t0,118 <reset_vector+0xd4>
 10a:	10529073          	csrw	stvec,t0
 10e:	62ad                	lui	t0,0xb
 110:	10928293          	addi	t0,t0,265 # b109 <__global_pointer$+0x8909>
 114:	30229073          	csrw	medeleg,t0
 118:	30005073          	csrwi	mstatus,0
 11c:	00000297          	auipc	t0,0x0
 120:	01428293          	addi	t0,t0,20 # 130 <test_2>
 124:	34129073          	csrw	mepc,t0
 128:	f1402573          	csrr	a0,mhartid
 12c:	30200073          	mret

00000130 <test_2>:
 130:	4189                	li	gp,2
 132:	4681                	li	a3,0
 134:	0006a713          	slti	a4,a3,0
 138:	4381                	li	t2,0
 13a:	1a771963          	bne	a4,t2,2ec <fail>

0000013e <test_3>:
 13e:	418d                	li	gp,3
 140:	4685                	li	a3,1
 142:	0016a713          	slti	a4,a3,1
 146:	4381                	li	t2,0
 148:	1a771263          	bne	a4,t2,2ec <fail>

0000014c <test_4>:
 14c:	4191                	li	gp,4
 14e:	468d                	li	a3,3
 150:	0076a713          	slti	a4,a3,7
 154:	4385                	li	t2,1
 156:	18771b63          	bne	a4,t2,2ec <fail>

0000015a <test_5>:
 15a:	4195                	li	gp,5
 15c:	469d                	li	a3,7
 15e:	0036a713          	slti	a4,a3,3
 162:	4381                	li	t2,0
 164:	18771463          	bne	a4,t2,2ec <fail>

00000168 <test_6>:
 168:	4199                	li	gp,6
 16a:	4681                	li	a3,0
 16c:	8006a713          	slti	a4,a3,-2048
 170:	4381                	li	t2,0
 172:	16771d63          	bne	a4,t2,2ec <fail>

00000176 <test_7>:
 176:	419d                	li	gp,7
 178:	800006b7          	lui	a3,0x80000
 17c:	0006a713          	slti	a4,a3,0
 180:	4385                	li	t2,1
 182:	16771563          	bne	a4,t2,2ec <fail>

00000186 <test_8>:
 186:	41a1                	li	gp,8
 188:	800006b7          	lui	a3,0x80000
 18c:	8006a713          	slti	a4,a3,-2048
 190:	4385                	li	t2,1
 192:	14771d63          	bne	a4,t2,2ec <fail>

00000196 <test_9>:
 196:	41a5                	li	gp,9
 198:	4681                	li	a3,0
 19a:	7ff6a713          	slti	a4,a3,2047
 19e:	4385                	li	t2,1
 1a0:	14771663          	bne	a4,t2,2ec <fail>

000001a4 <test_10>:
 1a4:	41a9                	li	gp,10
 1a6:	800006b7          	lui	a3,0x80000
 1aa:	16fd                	addi	a3,a3,-1 # 7fffffff <__global_pointer$+0x7fffd7ff>
 1ac:	0006a713          	slti	a4,a3,0
 1b0:	4381                	li	t2,0
 1b2:	12771d63          	bne	a4,t2,2ec <fail>

000001b6 <test_11>:
 1b6:	41ad                	li	gp,11
 1b8:	800006b7          	lui	a3,0x80000
 1bc:	16fd                	addi	a3,a3,-1 # 7fffffff <__global_pointer$+0x7fffd7ff>
 1be:	7ff6a713          	slti	a4,a3,2047
 1c2:	4381                	li	t2,0
 1c4:	12771463          	bne	a4,t2,2ec <fail>

000001c8 <test_12>:
 1c8:	41b1                	li	gp,12
 1ca:	800006b7          	lui	a3,0x80000
 1ce:	7ff6a713          	slti	a4,a3,2047
 1d2:	4385                	li	t2,1
 1d4:	10771c63          	bne	a4,t2,2ec <fail>

000001d8 <test_13>:
 1d8:	41b5                	li	gp,13
 1da:	800006b7          	lui	a3,0x80000
 1de:	16fd                	addi	a3,a3,-1 # 7fffffff <__global_pointer$+0x7fffd7ff>
 1e0:	8006a713          	slti	a4,a3,-2048
 1e4:	4381                	li	t2,0
 1e6:	10771363          	bne	a4,t2,2ec <fail>

000001ea <test_14>:
 1ea:	41b9                	li	gp,14
 1ec:	4681                	li	a3,0
 1ee:	fff6a713          	slti	a4,a3,-1
 1f2:	4381                	li	t2,0
 1f4:	0e771c63          	bne	a4,t2,2ec <fail>

000001f8 <test_15>:
 1f8:	41bd                	li	gp,15
 1fa:	fff00693          	li	a3,-1
 1fe:	0016a713          	slti	a4,a3,1
 202:	4385                	li	t2,1
 204:	0e771463          	bne	a4,t2,2ec <fail>

00000208 <test_16>:
 208:	41c1                	li	gp,16
 20a:	fff00693          	li	a3,-1
 20e:	fff6a713          	slti	a4,a3,-1
 212:	4381                	li	t2,0
 214:	0c771c63          	bne	a4,t2,2ec <fail>

00000218 <test_17>:
 218:	41c5                	li	gp,17
 21a:	45ad                	li	a1,11
 21c:	00d5a593          	slti	a1,a1,13
 220:	4385                	li	t2,1
 222:	0c759563          	bne	a1,t2,2ec <fail>

00000226 <test_18>:
 226:	41c9                	li	gp,18
 228:	4201                	li	tp,0
 22a:	40bd                	li	ra,15
 22c:	00a0a713          	slti	a4,ra,10
 230:	833a                	mv	t1,a4
 232:	0205                	addi	tp,tp,1 # 1 <_start+0x1>
 234:	4289                	li	t0,2
 236:	fe521ae3          	bne	tp,t0,22a <test_18+0x4>
 23a:	4381                	li	t2,0
 23c:	0a731863          	bne	t1,t2,2ec <fail>

00000240 <test_19>:
 240:	41cd                	li	gp,19
 242:	4201                	li	tp,0
 244:	40a9                	li	ra,10
 246:	0100a713          	slti	a4,ra,16
 24a:	0001                	nop
 24c:	833a                	mv	t1,a4
 24e:	0205                	addi	tp,tp,1 # 1 <_start+0x1>
 250:	4289                	li	t0,2
 252:	fe5219e3          	bne	tp,t0,244 <test_19+0x4>
 256:	4385                	li	t2,1
 258:	08731a63          	bne	t1,t2,2ec <fail>

0000025c <test_20>:
 25c:	41d1                	li	gp,20
 25e:	4201                	li	tp,0
 260:	40c1                	li	ra,16
 262:	0090a713          	slti	a4,ra,9
 266:	0001                	nop
 268:	0001                	nop
 26a:	833a                	mv	t1,a4
 26c:	0205                	addi	tp,tp,1 # 1 <_start+0x1>
 26e:	4289                	li	t0,2
 270:	fe5218e3          	bne	tp,t0,260 <test_20+0x4>
 274:	4381                	li	t2,0
 276:	06731b63          	bne	t1,t2,2ec <fail>

0000027a <test_21>:
 27a:	41d5                	li	gp,21
 27c:	4201                	li	tp,0
 27e:	40ad                	li	ra,11
 280:	00f0a713          	slti	a4,ra,15
 284:	0205                	addi	tp,tp,1 # 1 <_start+0x1>
 286:	4289                	li	t0,2
 288:	fe521be3          	bne	tp,t0,27e <test_21+0x4>
 28c:	4385                	li	t2,1
 28e:	04771f63          	bne	a4,t2,2ec <fail>

00000292 <test_22>:
 292:	41d9                	li	gp,22
 294:	4201                	li	tp,0
 296:	40c5                	li	ra,17
 298:	0001                	nop
 29a:	0080a713          	slti	a4,ra,8
 29e:	0205                	addi	tp,tp,1 # 1 <_start+0x1>
 2a0:	4289                	li	t0,2
 2a2:	fe521ae3          	bne	tp,t0,296 <test_22+0x4>
 2a6:	4381                	li	t2,0
 2a8:	04771263          	bne	a4,t2,2ec <fail>

000002ac <test_23>:
 2ac:	41dd                	li	gp,23
 2ae:	4201                	li	tp,0
 2b0:	40b1                	li	ra,12
 2b2:	0001                	nop
 2b4:	0001                	nop
 2b6:	00e0a713          	slti	a4,ra,14
 2ba:	0205                	addi	tp,tp,1 # 1 <_start+0x1>
 2bc:	4289                	li	t0,2
 2be:	fe5219e3          	bne	tp,t0,2b0 <test_23+0x4>
 2c2:	4385                	li	t2,1
 2c4:	02771463          	bne	a4,t2,2ec <fail>

000002c8 <test_24>:
 2c8:	41e1                	li	gp,24
 2ca:	fff02093          	slti	ra,zero,-1
 2ce:	4381                	li	t2,0
 2d0:	00709e63          	bne	ra,t2,2ec <fail>

000002d4 <test_25>:
 2d4:	41e5                	li	gp,25
 2d6:	00ff00b7          	lui	ra,0xff0
 2da:	0ff08093          	addi	ra,ra,255 # ff00ff <__global_pointer$+0xfed8ff>
 2de:	fff0a013          	slti	zero,ra,-1
 2e2:	4381                	li	t2,0
 2e4:	00701463          	bne	zero,t2,2ec <fail>
 2e8:	00301e63          	bne	zero,gp,304 <pass>

000002ec <fail>:
 2ec:	0ff0000f          	fence
 2f0:	00018063          	beqz	gp,2f0 <fail+0x4>
 2f4:	0186                	slli	gp,gp,0x1
 2f6:	0011e193          	ori	gp,gp,1
 2fa:	05d00893          	li	a7,93
 2fe:	850e                	mv	a0,gp
 300:	00000073          	ecall

00000304 <pass>:
 304:	0ff0000f          	fence
 308:	4185                	li	gp,1
 30a:	05d00893          	li	a7,93
 30e:	4501                	li	a0,0
 310:	00000073          	ecall
	...
