
/home/david/Documents/work/dtcore32/test/riscv-tests/rv32ui/sltu.S.v2:     file format elf32-littleriscv


Disassembly of section .text:

00000000 <_start>:
   0:	a091                	j	44 <reset_vector>
   2:	0001                	nop

00000004 <trap_vector>:
   4:	34202f73          	csrr	t5,mcause
   8:	4fa1                	li	t6,8
   a:	03ff0463          	beq	t5,t6,32 <write_tohost>
   e:	4fa5                	li	t6,9
  10:	03ff0163          	beq	t5,t6,32 <write_tohost>
  14:	4fad                	li	t6,11
  16:	01ff0e63          	beq	t5,t6,32 <write_tohost>
  1a:	00000f13          	li	t5,0
  1e:	000f0363          	beqz	t5,24 <trap_vector+0x20>
  22:	8f02                	jr	t5
  24:	34202f73          	csrr	t5,mcause
  28:	000f5363          	bgez	t5,2e <handle_exception>
  2c:	a009                	j	2e <handle_exception>

0000002e <handle_exception>:
  2e:	5391e193          	ori	gp,gp,1337

00000032 <write_tohost>:
  32:	00002f17          	auipc	t5,0x2
  36:	fc3f2723          	sw	gp,-50(t5) # 2000 <tohost>
  3a:	00002f17          	auipc	t5,0x2
  3e:	fc0f2523          	sw	zero,-54(t5) # 2004 <tohost+0x4>
  42:	bfc5                	j	32 <write_tohost>

00000044 <reset_vector>:
  44:	4081                	li	ra,0
  46:	4101                	li	sp,0
  48:	4181                	li	gp,0
  4a:	4201                	li	tp,0
  4c:	4281                	li	t0,0
  4e:	4301                	li	t1,0
  50:	4381                	li	t2,0
  52:	4401                	li	s0,0
  54:	4481                	li	s1,0
  56:	4501                	li	a0,0
  58:	4581                	li	a1,0
  5a:	4601                	li	a2,0
  5c:	4681                	li	a3,0
  5e:	4701                	li	a4,0
  60:	4781                	li	a5,0
  62:	4801                	li	a6,0
  64:	4881                	li	a7,0
  66:	4901                	li	s2,0
  68:	4981                	li	s3,0
  6a:	4a01                	li	s4,0
  6c:	4a81                	li	s5,0
  6e:	4b01                	li	s6,0
  70:	4b81                	li	s7,0
  72:	4c01                	li	s8,0
  74:	4c81                	li	s9,0
  76:	4d01                	li	s10,0
  78:	4d81                	li	s11,0
  7a:	4e01                	li	t3,0
  7c:	4e81                	li	t4,0
  7e:	4f01                	li	t5,0
  80:	4f81                	li	t6,0
  82:	f1402573          	csrr	a0,mhartid
  86:	e101                	bnez	a0,86 <reset_vector+0x42>
  88:	00000297          	auipc	t0,0x0
  8c:	01028293          	addi	t0,t0,16 # 98 <reset_vector+0x54>
  90:	30529073          	csrw	mtvec,t0
  94:	74445073          	csrwi	0x744,8
  98:	00000297          	auipc	t0,0x0
  9c:	01028293          	addi	t0,t0,16 # a8 <reset_vector+0x64>
  a0:	30529073          	csrw	mtvec,t0
  a4:	18005073          	csrwi	satp,0
  a8:	00000297          	auipc	t0,0x0
  ac:	01c28293          	addi	t0,t0,28 # c4 <reset_vector+0x80>
  b0:	30529073          	csrw	mtvec,t0
  b4:	800002b7          	lui	t0,0x80000
  b8:	12fd                	addi	t0,t0,-1 # 7fffffff <__global_pointer$+0x7fffd7ff>
  ba:	3b029073          	csrw	pmpaddr0,t0
  be:	42fd                	li	t0,31
  c0:	3a029073          	csrw	pmpcfg0,t0
  c4:	30405073          	csrwi	mie,0
  c8:	00000297          	auipc	t0,0x0
  cc:	01428293          	addi	t0,t0,20 # dc <reset_vector+0x98>
  d0:	30529073          	csrw	mtvec,t0
  d4:	30205073          	csrwi	medeleg,0
  d8:	30305073          	csrwi	mideleg,0
  dc:	4181                	li	gp,0
  de:	00000297          	auipc	t0,0x0
  e2:	f2628293          	addi	t0,t0,-218 # 4 <trap_vector>
  e6:	30529073          	csrw	mtvec,t0
  ea:	4505                	li	a0,1
  ec:	057e                	slli	a0,a0,0x1f
  ee:	00054a63          	bltz	a0,102 <reset_vector+0xbe>
  f2:	0ff0000f          	fence
  f6:	4185                	li	gp,1
  f8:	05d00893          	li	a7,93
  fc:	4501                	li	a0,0
  fe:	00000073          	ecall
 102:	00000293          	li	t0,0
 106:	00028963          	beqz	t0,118 <reset_vector+0xd4>
 10a:	10529073          	csrw	stvec,t0
 10e:	62ad                	lui	t0,0xb
 110:	10928293          	addi	t0,t0,265 # b109 <__global_pointer$+0x8909>
 114:	30229073          	csrw	medeleg,t0
 118:	30005073          	csrwi	mstatus,0
 11c:	00000297          	auipc	t0,0x0
 120:	01428293          	addi	t0,t0,20 # 130 <test_2>
 124:	34129073          	csrw	mepc,t0
 128:	f1402573          	csrr	a0,mhartid
 12c:	30200073          	mret

00000130 <test_2>:
 130:	4189                	li	gp,2
 132:	4581                	li	a1,0
 134:	4601                	li	a2,0
 136:	00c5b733          	sltu	a4,a1,a2
 13a:	4381                	li	t2,0
 13c:	32771963          	bne	a4,t2,46e <fail>

00000140 <test_3>:
 140:	418d                	li	gp,3
 142:	4585                	li	a1,1
 144:	4605                	li	a2,1
 146:	00c5b733          	sltu	a4,a1,a2
 14a:	4381                	li	t2,0
 14c:	32771163          	bne	a4,t2,46e <fail>

00000150 <test_4>:
 150:	4191                	li	gp,4
 152:	458d                	li	a1,3
 154:	461d                	li	a2,7
 156:	00c5b733          	sltu	a4,a1,a2
 15a:	4385                	li	t2,1
 15c:	30771963          	bne	a4,t2,46e <fail>

00000160 <test_5>:
 160:	4195                	li	gp,5
 162:	459d                	li	a1,7
 164:	460d                	li	a2,3
 166:	00c5b733          	sltu	a4,a1,a2
 16a:	4381                	li	t2,0
 16c:	30771163          	bne	a4,t2,46e <fail>

00000170 <test_6>:
 170:	4199                	li	gp,6
 172:	4581                	li	a1,0
 174:	7661                	lui	a2,0xffff8
 176:	00c5b733          	sltu	a4,a1,a2
 17a:	4385                	li	t2,1
 17c:	2e771963          	bne	a4,t2,46e <fail>

00000180 <test_7>:
 180:	419d                	li	gp,7
 182:	800005b7          	lui	a1,0x80000
 186:	4601                	li	a2,0
 188:	00c5b733          	sltu	a4,a1,a2
 18c:	4381                	li	t2,0
 18e:	2e771063          	bne	a4,t2,46e <fail>

00000192 <test_8>:
 192:	41a1                	li	gp,8
 194:	800005b7          	lui	a1,0x80000
 198:	7661                	lui	a2,0xffff8
 19a:	00c5b733          	sltu	a4,a1,a2
 19e:	4385                	li	t2,1
 1a0:	2c771763          	bne	a4,t2,46e <fail>

000001a4 <test_9>:
 1a4:	41a5                	li	gp,9
 1a6:	4581                	li	a1,0
 1a8:	6621                	lui	a2,0x8
 1aa:	167d                	addi	a2,a2,-1 # 7fff <__global_pointer$+0x57ff>
 1ac:	00c5b733          	sltu	a4,a1,a2
 1b0:	4385                	li	t2,1
 1b2:	2a771e63          	bne	a4,t2,46e <fail>

000001b6 <test_10>:
 1b6:	41a9                	li	gp,10
 1b8:	800005b7          	lui	a1,0x80000
 1bc:	15fd                	addi	a1,a1,-1 # 7fffffff <__global_pointer$+0x7fffd7ff>
 1be:	4601                	li	a2,0
 1c0:	00c5b733          	sltu	a4,a1,a2
 1c4:	4381                	li	t2,0
 1c6:	2a771463          	bne	a4,t2,46e <fail>

000001ca <test_11>:
 1ca:	41ad                	li	gp,11
 1cc:	800005b7          	lui	a1,0x80000
 1d0:	15fd                	addi	a1,a1,-1 # 7fffffff <__global_pointer$+0x7fffd7ff>
 1d2:	6621                	lui	a2,0x8
 1d4:	167d                	addi	a2,a2,-1 # 7fff <__global_pointer$+0x57ff>
 1d6:	00c5b733          	sltu	a4,a1,a2
 1da:	4381                	li	t2,0
 1dc:	28771963          	bne	a4,t2,46e <fail>

000001e0 <test_12>:
 1e0:	41b1                	li	gp,12
 1e2:	800005b7          	lui	a1,0x80000
 1e6:	6621                	lui	a2,0x8
 1e8:	167d                	addi	a2,a2,-1 # 7fff <__global_pointer$+0x57ff>
 1ea:	00c5b733          	sltu	a4,a1,a2
 1ee:	4381                	li	t2,0
 1f0:	26771f63          	bne	a4,t2,46e <fail>

000001f4 <test_13>:
 1f4:	41b5                	li	gp,13
 1f6:	800005b7          	lui	a1,0x80000
 1fa:	15fd                	addi	a1,a1,-1 # 7fffffff <__global_pointer$+0x7fffd7ff>
 1fc:	7661                	lui	a2,0xffff8
 1fe:	00c5b733          	sltu	a4,a1,a2
 202:	4385                	li	t2,1
 204:	26771563          	bne	a4,t2,46e <fail>

00000208 <test_14>:
 208:	41b9                	li	gp,14
 20a:	4581                	li	a1,0
 20c:	fff00613          	li	a2,-1
 210:	00c5b733          	sltu	a4,a1,a2
 214:	4385                	li	t2,1
 216:	24771c63          	bne	a4,t2,46e <fail>

0000021a <test_15>:
 21a:	41bd                	li	gp,15
 21c:	fff00593          	li	a1,-1
 220:	4605                	li	a2,1
 222:	00c5b733          	sltu	a4,a1,a2
 226:	4381                	li	t2,0
 228:	24771363          	bne	a4,t2,46e <fail>

0000022c <test_16>:
 22c:	41c1                	li	gp,16
 22e:	fff00593          	li	a1,-1
 232:	fff00613          	li	a2,-1
 236:	00c5b733          	sltu	a4,a1,a2
 23a:	4381                	li	t2,0
 23c:	22771963          	bne	a4,t2,46e <fail>

00000240 <test_17>:
 240:	41c5                	li	gp,17
 242:	45b9                	li	a1,14
 244:	4635                	li	a2,13
 246:	00c5b5b3          	sltu	a1,a1,a2
 24a:	4381                	li	t2,0
 24c:	22759163          	bne	a1,t2,46e <fail>

00000250 <test_18>:
 250:	41c9                	li	gp,18
 252:	45ad                	li	a1,11
 254:	4635                	li	a2,13
 256:	00c5b633          	sltu	a2,a1,a2
 25a:	4385                	li	t2,1
 25c:	20761963          	bne	a2,t2,46e <fail>

00000260 <test_19>:
 260:	41cd                	li	gp,19
 262:	45b5                	li	a1,13
 264:	00b5b5b3          	sltu	a1,a1,a1
 268:	4381                	li	t2,0
 26a:	20759263          	bne	a1,t2,46e <fail>

0000026e <test_20>:
 26e:	41d1                	li	gp,20
 270:	4201                	li	tp,0
 272:	40ad                	li	ra,11
 274:	4135                	li	sp,13
 276:	0020b733          	sltu	a4,ra,sp
 27a:	833a                	mv	t1,a4
 27c:	0205                	addi	tp,tp,1 # 1 <_start+0x1>
 27e:	4289                	li	t0,2
 280:	fe5219e3          	bne	tp,t0,272 <test_20+0x4>
 284:	4385                	li	t2,1
 286:	1e731463          	bne	t1,t2,46e <fail>

0000028a <test_21>:
 28a:	41d5                	li	gp,21
 28c:	4201                	li	tp,0
 28e:	40b9                	li	ra,14
 290:	4135                	li	sp,13
 292:	0020b733          	sltu	a4,ra,sp
 296:	0001                	nop
 298:	833a                	mv	t1,a4
 29a:	0205                	addi	tp,tp,1 # 1 <_start+0x1>
 29c:	4289                	li	t0,2
 29e:	fe5218e3          	bne	tp,t0,28e <test_21+0x4>
 2a2:	4381                	li	t2,0
 2a4:	1c731563          	bne	t1,t2,46e <fail>

000002a8 <test_22>:
 2a8:	41d9                	li	gp,22
 2aa:	4201                	li	tp,0
 2ac:	40b1                	li	ra,12
 2ae:	4135                	li	sp,13
 2b0:	0020b733          	sltu	a4,ra,sp
 2b4:	0001                	nop
 2b6:	0001                	nop
 2b8:	833a                	mv	t1,a4
 2ba:	0205                	addi	tp,tp,1 # 1 <_start+0x1>
 2bc:	4289                	li	t0,2
 2be:	fe5217e3          	bne	tp,t0,2ac <test_22+0x4>
 2c2:	4385                	li	t2,1
 2c4:	1a731563          	bne	t1,t2,46e <fail>

000002c8 <test_23>:
 2c8:	41dd                	li	gp,23
 2ca:	4201                	li	tp,0
 2cc:	40b9                	li	ra,14
 2ce:	4135                	li	sp,13
 2d0:	0020b733          	sltu	a4,ra,sp
 2d4:	0205                	addi	tp,tp,1 # 1 <_start+0x1>
 2d6:	4289                	li	t0,2
 2d8:	fe521ae3          	bne	tp,t0,2cc <test_23+0x4>
 2dc:	4381                	li	t2,0
 2de:	18771863          	bne	a4,t2,46e <fail>

000002e2 <test_24>:
 2e2:	41e1                	li	gp,24
 2e4:	4201                	li	tp,0
 2e6:	40ad                	li	ra,11
 2e8:	4135                	li	sp,13
 2ea:	0001                	nop
 2ec:	0020b733          	sltu	a4,ra,sp
 2f0:	0205                	addi	tp,tp,1 # 1 <_start+0x1>
 2f2:	4289                	li	t0,2
 2f4:	fe5219e3          	bne	tp,t0,2e6 <test_24+0x4>
 2f8:	4385                	li	t2,1
 2fa:	16771a63          	bne	a4,t2,46e <fail>

000002fe <test_25>:
 2fe:	41e5                	li	gp,25
 300:	4201                	li	tp,0
 302:	40bd                	li	ra,15
 304:	4135                	li	sp,13
 306:	0001                	nop
 308:	0001                	nop
 30a:	0020b733          	sltu	a4,ra,sp
 30e:	0205                	addi	tp,tp,1 # 1 <_start+0x1>
 310:	4289                	li	t0,2
 312:	fe5218e3          	bne	tp,t0,302 <test_25+0x4>
 316:	4381                	li	t2,0
 318:	14771b63          	bne	a4,t2,46e <fail>

0000031c <test_26>:
 31c:	41e9                	li	gp,26
 31e:	4201                	li	tp,0
 320:	40a9                	li	ra,10
 322:	0001                	nop
 324:	4135                	li	sp,13
 326:	0020b733          	sltu	a4,ra,sp
 32a:	0205                	addi	tp,tp,1 # 1 <_start+0x1>
 32c:	4289                	li	t0,2
 32e:	fe5219e3          	bne	tp,t0,320 <test_26+0x4>
 332:	4385                	li	t2,1
 334:	12771d63          	bne	a4,t2,46e <fail>

00000338 <test_27>:
 338:	41ed                	li	gp,27
 33a:	4201                	li	tp,0
 33c:	40c1                	li	ra,16
 33e:	0001                	nop
 340:	4135                	li	sp,13
 342:	0001                	nop
 344:	0020b733          	sltu	a4,ra,sp
 348:	0205                	addi	tp,tp,1 # 1 <_start+0x1>
 34a:	4289                	li	t0,2
 34c:	fe5218e3          	bne	tp,t0,33c <test_27+0x4>
 350:	4381                	li	t2,0
 352:	10771e63          	bne	a4,t2,46e <fail>

00000356 <test_28>:
 356:	41f1                	li	gp,28
 358:	4201                	li	tp,0
 35a:	40a5                	li	ra,9
 35c:	0001                	nop
 35e:	0001                	nop
 360:	4135                	li	sp,13
 362:	0020b733          	sltu	a4,ra,sp
 366:	0205                	addi	tp,tp,1 # 1 <_start+0x1>
 368:	4289                	li	t0,2
 36a:	fe5218e3          	bne	tp,t0,35a <test_28+0x4>
 36e:	4385                	li	t2,1
 370:	0e771f63          	bne	a4,t2,46e <fail>

00000374 <test_29>:
 374:	41f5                	li	gp,29
 376:	4201                	li	tp,0
 378:	4135                	li	sp,13
 37a:	40c5                	li	ra,17
 37c:	0020b733          	sltu	a4,ra,sp
 380:	0205                	addi	tp,tp,1 # 1 <_start+0x1>
 382:	4289                	li	t0,2
 384:	fe521ae3          	bne	tp,t0,378 <test_29+0x4>
 388:	4381                	li	t2,0
 38a:	0e771263          	bne	a4,t2,46e <fail>

0000038e <test_30>:
 38e:	41f9                	li	gp,30
 390:	4201                	li	tp,0
 392:	4135                	li	sp,13
 394:	40a1                	li	ra,8
 396:	0001                	nop
 398:	0020b733          	sltu	a4,ra,sp
 39c:	0205                	addi	tp,tp,1 # 1 <_start+0x1>
 39e:	4289                	li	t0,2
 3a0:	fe5219e3          	bne	tp,t0,392 <test_30+0x4>
 3a4:	4385                	li	t2,1
 3a6:	0c771463          	bne	a4,t2,46e <fail>

000003aa <test_31>:
 3aa:	41fd                	li	gp,31
 3ac:	4201                	li	tp,0
 3ae:	4135                	li	sp,13
 3b0:	40c9                	li	ra,18
 3b2:	0001                	nop
 3b4:	0001                	nop
 3b6:	0020b733          	sltu	a4,ra,sp
 3ba:	0205                	addi	tp,tp,1 # 1 <_start+0x1>
 3bc:	4289                	li	t0,2
 3be:	fe5218e3          	bne	tp,t0,3ae <test_31+0x4>
 3c2:	4381                	li	t2,0
 3c4:	0a771563          	bne	a4,t2,46e <fail>

000003c8 <test_32>:
 3c8:	02000193          	li	gp,32
 3cc:	4201                	li	tp,0
 3ce:	4135                	li	sp,13
 3d0:	0001                	nop
 3d2:	409d                	li	ra,7
 3d4:	0020b733          	sltu	a4,ra,sp
 3d8:	0205                	addi	tp,tp,1 # 1 <_start+0x1>
 3da:	4289                	li	t0,2
 3dc:	fe5219e3          	bne	tp,t0,3ce <test_32+0x6>
 3e0:	4385                	li	t2,1
 3e2:	08771663          	bne	a4,t2,46e <fail>

000003e6 <test_33>:
 3e6:	02100193          	li	gp,33
 3ea:	4201                	li	tp,0
 3ec:	4135                	li	sp,13
 3ee:	0001                	nop
 3f0:	40cd                	li	ra,19
 3f2:	0001                	nop
 3f4:	0020b733          	sltu	a4,ra,sp
 3f8:	0205                	addi	tp,tp,1 # 1 <_start+0x1>
 3fa:	4289                	li	t0,2
 3fc:	fe5218e3          	bne	tp,t0,3ec <test_33+0x6>
 400:	4381                	li	t2,0
 402:	06771663          	bne	a4,t2,46e <fail>

00000406 <test_34>:
 406:	02200193          	li	gp,34
 40a:	4201                	li	tp,0
 40c:	4135                	li	sp,13
 40e:	0001                	nop
 410:	0001                	nop
 412:	4099                	li	ra,6
 414:	0020b733          	sltu	a4,ra,sp
 418:	0205                	addi	tp,tp,1 # 1 <_start+0x1>
 41a:	4289                	li	t0,2
 41c:	fe5218e3          	bne	tp,t0,40c <test_34+0x6>
 420:	4385                	li	t2,1
 422:	04771663          	bne	a4,t2,46e <fail>

00000426 <test_35>:
 426:	02300193          	li	gp,35
 42a:	fff00093          	li	ra,-1
 42e:	00103133          	snez	sp,ra
 432:	4385                	li	t2,1
 434:	02711d63          	bne	sp,t2,46e <fail>

00000438 <test_36>:
 438:	02400193          	li	gp,36
 43c:	fff00093          	li	ra,-1
 440:	0000b133          	sltu	sp,ra,zero
 444:	4381                	li	t2,0
 446:	02711463          	bne	sp,t2,46e <fail>

0000044a <test_37>:
 44a:	02500193          	li	gp,37
 44e:	000030b3          	snez	ra,zero
 452:	4381                	li	t2,0
 454:	00709d63          	bne	ra,t2,46e <fail>

00000458 <test_38>:
 458:	02600193          	li	gp,38
 45c:	40c1                	li	ra,16
 45e:	4179                	li	sp,30
 460:	0020b033          	sltu	zero,ra,sp
 464:	4381                	li	t2,0
 466:	00701463          	bne	zero,t2,46e <fail>
 46a:	00301e63          	bne	zero,gp,486 <pass>

0000046e <fail>:
 46e:	0ff0000f          	fence
 472:	00018063          	beqz	gp,472 <fail+0x4>
 476:	0186                	slli	gp,gp,0x1
 478:	0011e193          	ori	gp,gp,1
 47c:	05d00893          	li	a7,93
 480:	850e                	mv	a0,gp
 482:	00000073          	ecall

00000486 <pass>:
 486:	0ff0000f          	fence
 48a:	4185                	li	gp,1
 48c:	05d00893          	li	a7,93
 490:	4501                	li	a0,0
 492:	00000073          	ecall
	...
