
/home/david/Documents/work/dtcore32/test/riscv-tests/rv32ui/srl.S.v2:     file format elf32-littleriscv


Disassembly of section .text:

00000000 <_start>:
   0:	a091                	j	44 <reset_vector>
   2:	0001                	nop

00000004 <trap_vector>:
   4:	34202f73          	csrr	t5,mcause
   8:	4fa1                	li	t6,8
   a:	03ff0463          	beq	t5,t6,32 <write_tohost>
   e:	4fa5                	li	t6,9
  10:	03ff0163          	beq	t5,t6,32 <write_tohost>
  14:	4fad                	li	t6,11
  16:	01ff0e63          	beq	t5,t6,32 <write_tohost>
  1a:	00000f13          	li	t5,0
  1e:	000f0363          	beqz	t5,24 <trap_vector+0x20>
  22:	8f02                	jr	t5
  24:	34202f73          	csrr	t5,mcause
  28:	000f5363          	bgez	t5,2e <handle_exception>
  2c:	a009                	j	2e <handle_exception>

0000002e <handle_exception>:
  2e:	5391e193          	ori	gp,gp,1337

00000032 <write_tohost>:
  32:	00002f17          	auipc	t5,0x2
  36:	fc3f2723          	sw	gp,-50(t5) # 2000 <tohost>
  3a:	00002f17          	auipc	t5,0x2
  3e:	fc0f2523          	sw	zero,-54(t5) # 2004 <tohost+0x4>
  42:	bfc5                	j	32 <write_tohost>

00000044 <reset_vector>:
  44:	4081                	li	ra,0
  46:	4101                	li	sp,0
  48:	4181                	li	gp,0
  4a:	4201                	li	tp,0
  4c:	4281                	li	t0,0
  4e:	4301                	li	t1,0
  50:	4381                	li	t2,0
  52:	4401                	li	s0,0
  54:	4481                	li	s1,0
  56:	4501                	li	a0,0
  58:	4581                	li	a1,0
  5a:	4601                	li	a2,0
  5c:	4681                	li	a3,0
  5e:	4701                	li	a4,0
  60:	4781                	li	a5,0
  62:	4801                	li	a6,0
  64:	4881                	li	a7,0
  66:	4901                	li	s2,0
  68:	4981                	li	s3,0
  6a:	4a01                	li	s4,0
  6c:	4a81                	li	s5,0
  6e:	4b01                	li	s6,0
  70:	4b81                	li	s7,0
  72:	4c01                	li	s8,0
  74:	4c81                	li	s9,0
  76:	4d01                	li	s10,0
  78:	4d81                	li	s11,0
  7a:	4e01                	li	t3,0
  7c:	4e81                	li	t4,0
  7e:	4f01                	li	t5,0
  80:	4f81                	li	t6,0
  82:	f1402573          	csrr	a0,mhartid
  86:	e101                	bnez	a0,86 <reset_vector+0x42>
  88:	00000297          	auipc	t0,0x0
  8c:	01028293          	addi	t0,t0,16 # 98 <reset_vector+0x54>
  90:	30529073          	csrw	mtvec,t0
  94:	74445073          	csrwi	0x744,8
  98:	00000297          	auipc	t0,0x0
  9c:	01028293          	addi	t0,t0,16 # a8 <reset_vector+0x64>
  a0:	30529073          	csrw	mtvec,t0
  a4:	18005073          	csrwi	satp,0
  a8:	00000297          	auipc	t0,0x0
  ac:	01c28293          	addi	t0,t0,28 # c4 <reset_vector+0x80>
  b0:	30529073          	csrw	mtvec,t0
  b4:	800002b7          	lui	t0,0x80000
  b8:	12fd                	addi	t0,t0,-1 # 7fffffff <__global_pointer$+0x7fffd7ff>
  ba:	3b029073          	csrw	pmpaddr0,t0
  be:	42fd                	li	t0,31
  c0:	3a029073          	csrw	pmpcfg0,t0
  c4:	30405073          	csrwi	mie,0
  c8:	00000297          	auipc	t0,0x0
  cc:	01428293          	addi	t0,t0,20 # dc <reset_vector+0x98>
  d0:	30529073          	csrw	mtvec,t0
  d4:	30205073          	csrwi	medeleg,0
  d8:	30305073          	csrwi	mideleg,0
  dc:	4181                	li	gp,0
  de:	00000297          	auipc	t0,0x0
  e2:	f2628293          	addi	t0,t0,-218 # 4 <trap_vector>
  e6:	30529073          	csrw	mtvec,t0
  ea:	4505                	li	a0,1
  ec:	057e                	slli	a0,a0,0x1f
  ee:	00054a63          	bltz	a0,102 <reset_vector+0xbe>
  f2:	0ff0000f          	fence
  f6:	4185                	li	gp,1
  f8:	05d00893          	li	a7,93
  fc:	4501                	li	a0,0
  fe:	00000073          	ecall
 102:	00000293          	li	t0,0
 106:	00028963          	beqz	t0,118 <reset_vector+0xd4>
 10a:	10529073          	csrw	stvec,t0
 10e:	62ad                	lui	t0,0xb
 110:	10928293          	addi	t0,t0,265 # b109 <__global_pointer$+0x8909>
 114:	30229073          	csrw	medeleg,t0
 118:	30005073          	csrwi	mstatus,0
 11c:	00000297          	auipc	t0,0x0
 120:	01428293          	addi	t0,t0,20 # 130 <test_2>
 124:	34129073          	csrw	mepc,t0
 128:	f1402573          	csrr	a0,mhartid
 12c:	30200073          	mret

00000130 <test_2>:
 130:	4189                	li	gp,2
 132:	800005b7          	lui	a1,0x80000
 136:	4601                	li	a2,0
 138:	00c5d733          	srl	a4,a1,a2
 13c:	800003b7          	lui	t2,0x80000
 140:	44771463          	bne	a4,t2,588 <fail>

00000144 <test_3>:
 144:	418d                	li	gp,3
 146:	800005b7          	lui	a1,0x80000
 14a:	4605                	li	a2,1
 14c:	00c5d733          	srl	a4,a1,a2
 150:	400003b7          	lui	t2,0x40000
 154:	42771a63          	bne	a4,t2,588 <fail>

00000158 <test_4>:
 158:	4191                	li	gp,4
 15a:	800005b7          	lui	a1,0x80000
 15e:	461d                	li	a2,7
 160:	00c5d733          	srl	a4,a1,a2
 164:	010003b7          	lui	t2,0x1000
 168:	42771063          	bne	a4,t2,588 <fail>

0000016c <test_5>:
 16c:	4195                	li	gp,5
 16e:	800005b7          	lui	a1,0x80000
 172:	4639                	li	a2,14
 174:	00c5d733          	srl	a4,a1,a2
 178:	000203b7          	lui	t2,0x20
 17c:	40771663          	bne	a4,t2,588 <fail>

00000180 <test_6>:
 180:	4199                	li	gp,6
 182:	800005b7          	lui	a1,0x80000
 186:	0585                	addi	a1,a1,1 # 80000001 <__global_pointer$+0x7fffd801>
 188:	467d                	li	a2,31
 18a:	00c5d733          	srl	a4,a1,a2
 18e:	4385                	li	t2,1
 190:	3e771c63          	bne	a4,t2,588 <fail>

00000194 <test_7>:
 194:	419d                	li	gp,7
 196:	fff00593          	li	a1,-1
 19a:	4601                	li	a2,0
 19c:	00c5d733          	srl	a4,a1,a2
 1a0:	fff00393          	li	t2,-1
 1a4:	3e771263          	bne	a4,t2,588 <fail>

000001a8 <test_8>:
 1a8:	41a1                	li	gp,8
 1aa:	fff00593          	li	a1,-1
 1ae:	4605                	li	a2,1
 1b0:	00c5d733          	srl	a4,a1,a2
 1b4:	800003b7          	lui	t2,0x80000
 1b8:	13fd                	addi	t2,t2,-1 # 7fffffff <__global_pointer$+0x7fffd7ff>
 1ba:	3c771763          	bne	a4,t2,588 <fail>

000001be <test_9>:
 1be:	41a5                	li	gp,9
 1c0:	fff00593          	li	a1,-1
 1c4:	461d                	li	a2,7
 1c6:	00c5d733          	srl	a4,a1,a2
 1ca:	020003b7          	lui	t2,0x2000
 1ce:	13fd                	addi	t2,t2,-1 # 1ffffff <__global_pointer$+0x1ffd7ff>
 1d0:	3a771c63          	bne	a4,t2,588 <fail>

000001d4 <test_10>:
 1d4:	41a9                	li	gp,10
 1d6:	fff00593          	li	a1,-1
 1da:	4639                	li	a2,14
 1dc:	00c5d733          	srl	a4,a1,a2
 1e0:	000403b7          	lui	t2,0x40
 1e4:	13fd                	addi	t2,t2,-1 # 3ffff <__global_pointer$+0x3d7ff>
 1e6:	3a771163          	bne	a4,t2,588 <fail>

000001ea <test_11>:
 1ea:	41ad                	li	gp,11
 1ec:	fff00593          	li	a1,-1
 1f0:	467d                	li	a2,31
 1f2:	00c5d733          	srl	a4,a1,a2
 1f6:	4385                	li	t2,1
 1f8:	38771863          	bne	a4,t2,588 <fail>

000001fc <test_12>:
 1fc:	41b1                	li	gp,12
 1fe:	212125b7          	lui	a1,0x21212
 202:	12158593          	addi	a1,a1,289 # 21212121 <__global_pointer$+0x2120f921>
 206:	4601                	li	a2,0
 208:	00c5d733          	srl	a4,a1,a2
 20c:	212123b7          	lui	t2,0x21212
 210:	12138393          	addi	t2,t2,289 # 21212121 <__global_pointer$+0x2120f921>
 214:	36771a63          	bne	a4,t2,588 <fail>

00000218 <test_13>:
 218:	41b5                	li	gp,13
 21a:	212125b7          	lui	a1,0x21212
 21e:	12158593          	addi	a1,a1,289 # 21212121 <__global_pointer$+0x2120f921>
 222:	4605                	li	a2,1
 224:	00c5d733          	srl	a4,a1,a2
 228:	109093b7          	lui	t2,0x10909
 22c:	09038393          	addi	t2,t2,144 # 10909090 <__global_pointer$+0x10906890>
 230:	34771c63          	bne	a4,t2,588 <fail>

00000234 <test_14>:
 234:	41b9                	li	gp,14
 236:	212125b7          	lui	a1,0x21212
 23a:	12158593          	addi	a1,a1,289 # 21212121 <__global_pointer$+0x2120f921>
 23e:	461d                	li	a2,7
 240:	00c5d733          	srl	a4,a1,a2
 244:	004243b7          	lui	t2,0x424
 248:	24238393          	addi	t2,t2,578 # 424242 <__global_pointer$+0x421a42>
 24c:	32771e63          	bne	a4,t2,588 <fail>

00000250 <test_15>:
 250:	41bd                	li	gp,15
 252:	212125b7          	lui	a1,0x21212
 256:	12158593          	addi	a1,a1,289 # 21212121 <__global_pointer$+0x2120f921>
 25a:	4639                	li	a2,14
 25c:	00c5d733          	srl	a4,a1,a2
 260:	63a1                	lui	t2,0x8
 262:	48438393          	addi	t2,t2,1156 # 8484 <__global_pointer$+0x5c84>
 266:	32771163          	bne	a4,t2,588 <fail>

0000026a <test_16>:
 26a:	41c1                	li	gp,16
 26c:	212125b7          	lui	a1,0x21212
 270:	12158593          	addi	a1,a1,289 # 21212121 <__global_pointer$+0x2120f921>
 274:	467d                	li	a2,31
 276:	00c5d733          	srl	a4,a1,a2
 27a:	4381                	li	t2,0
 27c:	30771663          	bne	a4,t2,588 <fail>

00000280 <test_17>:
 280:	41c5                	li	gp,17
 282:	212125b7          	lui	a1,0x21212
 286:	12158593          	addi	a1,a1,289 # 21212121 <__global_pointer$+0x2120f921>
 28a:	fc000613          	li	a2,-64
 28e:	00c5d733          	srl	a4,a1,a2
 292:	212123b7          	lui	t2,0x21212
 296:	12138393          	addi	t2,t2,289 # 21212121 <__global_pointer$+0x2120f921>
 29a:	2e771763          	bne	a4,t2,588 <fail>

0000029e <test_18>:
 29e:	41c9                	li	gp,18
 2a0:	212125b7          	lui	a1,0x21212
 2a4:	12158593          	addi	a1,a1,289 # 21212121 <__global_pointer$+0x2120f921>
 2a8:	fc100613          	li	a2,-63
 2ac:	00c5d733          	srl	a4,a1,a2
 2b0:	109093b7          	lui	t2,0x10909
 2b4:	09038393          	addi	t2,t2,144 # 10909090 <__global_pointer$+0x10906890>
 2b8:	2c771863          	bne	a4,t2,588 <fail>

000002bc <test_19>:
 2bc:	41cd                	li	gp,19
 2be:	212125b7          	lui	a1,0x21212
 2c2:	12158593          	addi	a1,a1,289 # 21212121 <__global_pointer$+0x2120f921>
 2c6:	fc700613          	li	a2,-57
 2ca:	00c5d733          	srl	a4,a1,a2
 2ce:	004243b7          	lui	t2,0x424
 2d2:	24238393          	addi	t2,t2,578 # 424242 <__global_pointer$+0x421a42>
 2d6:	2a771963          	bne	a4,t2,588 <fail>

000002da <test_20>:
 2da:	41d1                	li	gp,20
 2dc:	212125b7          	lui	a1,0x21212
 2e0:	12158593          	addi	a1,a1,289 # 21212121 <__global_pointer$+0x2120f921>
 2e4:	fce00613          	li	a2,-50
 2e8:	00c5d733          	srl	a4,a1,a2
 2ec:	63a1                	lui	t2,0x8
 2ee:	48438393          	addi	t2,t2,1156 # 8484 <__global_pointer$+0x5c84>
 2f2:	28771b63          	bne	a4,t2,588 <fail>

000002f6 <test_21>:
 2f6:	41d5                	li	gp,21
 2f8:	212125b7          	lui	a1,0x21212
 2fc:	12158593          	addi	a1,a1,289 # 21212121 <__global_pointer$+0x2120f921>
 300:	fff00613          	li	a2,-1
 304:	00c5d733          	srl	a4,a1,a2
 308:	4381                	li	t2,0
 30a:	26771f63          	bne	a4,t2,588 <fail>

0000030e <test_22>:
 30e:	41d9                	li	gp,22
 310:	800005b7          	lui	a1,0x80000
 314:	461d                	li	a2,7
 316:	00c5d5b3          	srl	a1,a1,a2
 31a:	010003b7          	lui	t2,0x1000
 31e:	26759563          	bne	a1,t2,588 <fail>

00000322 <test_23>:
 322:	41dd                	li	gp,23
 324:	800005b7          	lui	a1,0x80000
 328:	4639                	li	a2,14
 32a:	00c5d633          	srl	a2,a1,a2
 32e:	000203b7          	lui	t2,0x20
 332:	24761b63          	bne	a2,t2,588 <fail>

00000336 <test_24>:
 336:	41e1                	li	gp,24
 338:	459d                	li	a1,7
 33a:	00b5d5b3          	srl	a1,a1,a1
 33e:	4381                	li	t2,0
 340:	24759463          	bne	a1,t2,588 <fail>

00000344 <test_25>:
 344:	41e5                	li	gp,25
 346:	4201                	li	tp,0
 348:	800000b7          	lui	ra,0x80000
 34c:	411d                	li	sp,7
 34e:	0020d733          	srl	a4,ra,sp
 352:	833a                	mv	t1,a4
 354:	0205                	addi	tp,tp,1 # 1 <_start+0x1>
 356:	4289                	li	t0,2
 358:	fe5218e3          	bne	tp,t0,348 <test_25+0x4>
 35c:	010003b7          	lui	t2,0x1000
 360:	22731463          	bne	t1,t2,588 <fail>

00000364 <test_26>:
 364:	41e9                	li	gp,26
 366:	4201                	li	tp,0
 368:	800000b7          	lui	ra,0x80000
 36c:	4139                	li	sp,14
 36e:	0020d733          	srl	a4,ra,sp
 372:	0001                	nop
 374:	833a                	mv	t1,a4
 376:	0205                	addi	tp,tp,1 # 1 <_start+0x1>
 378:	4289                	li	t0,2
 37a:	fe5217e3          	bne	tp,t0,368 <test_26+0x4>
 37e:	000203b7          	lui	t2,0x20
 382:	20731363          	bne	t1,t2,588 <fail>

00000386 <test_27>:
 386:	41ed                	li	gp,27
 388:	4201                	li	tp,0
 38a:	800000b7          	lui	ra,0x80000
 38e:	417d                	li	sp,31
 390:	0020d733          	srl	a4,ra,sp
 394:	0001                	nop
 396:	0001                	nop
 398:	833a                	mv	t1,a4
 39a:	0205                	addi	tp,tp,1 # 1 <_start+0x1>
 39c:	4289                	li	t0,2
 39e:	fe5216e3          	bne	tp,t0,38a <test_27+0x4>
 3a2:	4385                	li	t2,1
 3a4:	1e731263          	bne	t1,t2,588 <fail>

000003a8 <test_28>:
 3a8:	41f1                	li	gp,28
 3aa:	4201                	li	tp,0
 3ac:	800000b7          	lui	ra,0x80000
 3b0:	411d                	li	sp,7
 3b2:	0020d733          	srl	a4,ra,sp
 3b6:	0205                	addi	tp,tp,1 # 1 <_start+0x1>
 3b8:	4289                	li	t0,2
 3ba:	fe5219e3          	bne	tp,t0,3ac <test_28+0x4>
 3be:	010003b7          	lui	t2,0x1000
 3c2:	1c771363          	bne	a4,t2,588 <fail>

000003c6 <test_29>:
 3c6:	41f5                	li	gp,29
 3c8:	4201                	li	tp,0
 3ca:	800000b7          	lui	ra,0x80000
 3ce:	4139                	li	sp,14
 3d0:	0001                	nop
 3d2:	0020d733          	srl	a4,ra,sp
 3d6:	0205                	addi	tp,tp,1 # 1 <_start+0x1>
 3d8:	4289                	li	t0,2
 3da:	fe5218e3          	bne	tp,t0,3ca <test_29+0x4>
 3de:	000203b7          	lui	t2,0x20
 3e2:	1a771363          	bne	a4,t2,588 <fail>

000003e6 <test_30>:
 3e6:	41f9                	li	gp,30
 3e8:	4201                	li	tp,0
 3ea:	800000b7          	lui	ra,0x80000
 3ee:	417d                	li	sp,31
 3f0:	0001                	nop
 3f2:	0001                	nop
 3f4:	0020d733          	srl	a4,ra,sp
 3f8:	0205                	addi	tp,tp,1 # 1 <_start+0x1>
 3fa:	4289                	li	t0,2
 3fc:	fe5217e3          	bne	tp,t0,3ea <test_30+0x4>
 400:	4385                	li	t2,1
 402:	18771363          	bne	a4,t2,588 <fail>

00000406 <test_31>:
 406:	41fd                	li	gp,31
 408:	4201                	li	tp,0
 40a:	800000b7          	lui	ra,0x80000
 40e:	0001                	nop
 410:	411d                	li	sp,7
 412:	0020d733          	srl	a4,ra,sp
 416:	0205                	addi	tp,tp,1 # 1 <_start+0x1>
 418:	4289                	li	t0,2
 41a:	fe5218e3          	bne	tp,t0,40a <test_31+0x4>
 41e:	010003b7          	lui	t2,0x1000
 422:	16771363          	bne	a4,t2,588 <fail>

00000426 <test_32>:
 426:	02000193          	li	gp,32
 42a:	4201                	li	tp,0
 42c:	800000b7          	lui	ra,0x80000
 430:	0001                	nop
 432:	4139                	li	sp,14
 434:	0001                	nop
 436:	0020d733          	srl	a4,ra,sp
 43a:	0205                	addi	tp,tp,1 # 1 <_start+0x1>
 43c:	4289                	li	t0,2
 43e:	fe5217e3          	bne	tp,t0,42c <test_32+0x6>
 442:	000203b7          	lui	t2,0x20
 446:	14771163          	bne	a4,t2,588 <fail>

0000044a <test_33>:
 44a:	02100193          	li	gp,33
 44e:	4201                	li	tp,0
 450:	800000b7          	lui	ra,0x80000
 454:	0001                	nop
 456:	0001                	nop
 458:	417d                	li	sp,31
 45a:	0020d733          	srl	a4,ra,sp
 45e:	0205                	addi	tp,tp,1 # 1 <_start+0x1>
 460:	4289                	li	t0,2
 462:	fe5217e3          	bne	tp,t0,450 <test_33+0x6>
 466:	4385                	li	t2,1
 468:	12771063          	bne	a4,t2,588 <fail>

0000046c <test_34>:
 46c:	02200193          	li	gp,34
 470:	4201                	li	tp,0
 472:	411d                	li	sp,7
 474:	800000b7          	lui	ra,0x80000
 478:	0020d733          	srl	a4,ra,sp
 47c:	0205                	addi	tp,tp,1 # 1 <_start+0x1>
 47e:	4289                	li	t0,2
 480:	fe5219e3          	bne	tp,t0,472 <test_34+0x6>
 484:	010003b7          	lui	t2,0x1000
 488:	10771063          	bne	a4,t2,588 <fail>

0000048c <test_35>:
 48c:	02300193          	li	gp,35
 490:	4201                	li	tp,0
 492:	4139                	li	sp,14
 494:	800000b7          	lui	ra,0x80000
 498:	0001                	nop
 49a:	0020d733          	srl	a4,ra,sp
 49e:	0205                	addi	tp,tp,1 # 1 <_start+0x1>
 4a0:	4289                	li	t0,2
 4a2:	fe5218e3          	bne	tp,t0,492 <test_35+0x6>
 4a6:	000203b7          	lui	t2,0x20
 4aa:	0c771f63          	bne	a4,t2,588 <fail>

000004ae <test_36>:
 4ae:	02400193          	li	gp,36
 4b2:	4201                	li	tp,0
 4b4:	417d                	li	sp,31
 4b6:	800000b7          	lui	ra,0x80000
 4ba:	0001                	nop
 4bc:	0001                	nop
 4be:	0020d733          	srl	a4,ra,sp
 4c2:	0205                	addi	tp,tp,1 # 1 <_start+0x1>
 4c4:	4289                	li	t0,2
 4c6:	fe5217e3          	bne	tp,t0,4b4 <test_36+0x6>
 4ca:	4385                	li	t2,1
 4cc:	0a771e63          	bne	a4,t2,588 <fail>

000004d0 <test_37>:
 4d0:	02500193          	li	gp,37
 4d4:	4201                	li	tp,0
 4d6:	411d                	li	sp,7
 4d8:	0001                	nop
 4da:	800000b7          	lui	ra,0x80000
 4de:	0020d733          	srl	a4,ra,sp
 4e2:	0205                	addi	tp,tp,1 # 1 <_start+0x1>
 4e4:	4289                	li	t0,2
 4e6:	fe5218e3          	bne	tp,t0,4d6 <test_37+0x6>
 4ea:	010003b7          	lui	t2,0x1000
 4ee:	08771d63          	bne	a4,t2,588 <fail>

000004f2 <test_38>:
 4f2:	02600193          	li	gp,38
 4f6:	4201                	li	tp,0
 4f8:	4139                	li	sp,14
 4fa:	0001                	nop
 4fc:	800000b7          	lui	ra,0x80000
 500:	0001                	nop
 502:	0020d733          	srl	a4,ra,sp
 506:	0205                	addi	tp,tp,1 # 1 <_start+0x1>
 508:	4289                	li	t0,2
 50a:	fe5217e3          	bne	tp,t0,4f8 <test_38+0x6>
 50e:	000203b7          	lui	t2,0x20
 512:	06771b63          	bne	a4,t2,588 <fail>

00000516 <test_39>:
 516:	02700193          	li	gp,39
 51a:	4201                	li	tp,0
 51c:	417d                	li	sp,31
 51e:	0001                	nop
 520:	0001                	nop
 522:	800000b7          	lui	ra,0x80000
 526:	0020d733          	srl	a4,ra,sp
 52a:	0205                	addi	tp,tp,1 # 1 <_start+0x1>
 52c:	4289                	li	t0,2
 52e:	fe5217e3          	bne	tp,t0,51c <test_39+0x6>
 532:	4385                	li	t2,1
 534:	04771a63          	bne	a4,t2,588 <fail>

00000538 <test_40>:
 538:	02800193          	li	gp,40
 53c:	40bd                	li	ra,15
 53e:	00105133          	srl	sp,zero,ra
 542:	4381                	li	t2,0
 544:	04711263          	bne	sp,t2,588 <fail>

00000548 <test_41>:
 548:	02900193          	li	gp,41
 54c:	02000093          	li	ra,32
 550:	0000d133          	srl	sp,ra,zero
 554:	02000393          	li	t2,32
 558:	02711863          	bne	sp,t2,588 <fail>

0000055c <test_42>:
 55c:	02a00193          	li	gp,42
 560:	000050b3          	srl	ra,zero,zero
 564:	4381                	li	t2,0
 566:	02709163          	bne	ra,t2,588 <fail>

0000056a <test_43>:
 56a:	02b00193          	li	gp,43
 56e:	40000093          	li	ra,1024
 572:	00001137          	lui	sp,0x1
 576:	80010113          	addi	sp,sp,-2048 # 800 <pass+0x260>
 57a:	0020d033          	srl	zero,ra,sp
 57e:	4381                	li	t2,0
 580:	00701463          	bne	zero,t2,588 <fail>
 584:	00301e63          	bne	zero,gp,5a0 <pass>

00000588 <fail>:
 588:	0ff0000f          	fence
 58c:	00018063          	beqz	gp,58c <fail+0x4>
 590:	0186                	slli	gp,gp,0x1
 592:	0011e193          	ori	gp,gp,1
 596:	05d00893          	li	a7,93
 59a:	850e                	mv	a0,gp
 59c:	00000073          	ecall

000005a0 <pass>:
 5a0:	0ff0000f          	fence
 5a4:	4185                	li	gp,1
 5a6:	05d00893          	li	a7,93
 5aa:	4501                	li	a0,0
 5ac:	00000073          	ecall
	...
