
hello.elf:     file format elf32-littleriscv


Disassembly of section .text:

00000000 <uart_putc>:
   0:	fe010113          	addi	sp,sp,-32
   4:	00112e23          	sw	ra,28(sp)
   8:	00812c23          	sw	s0,24(sp)
   c:	02010413          	addi	s0,sp,32
  10:	00050793          	mv	a5,a0
  14:	fef407a3          	sb	a5,-17(s0)
  18:	00000013          	nop
  1c:	40800793          	li	a5,1032
  20:	0007a783          	lw	a5,0(a5)
  24:	0087f793          	andi	a5,a5,8
  28:	fe078ae3          	beqz	a5,1c <uart_putc+0x1c>
  2c:	40c00793          	li	a5,1036
  30:	0007a783          	lw	a5,0(a5)
  34:	f007f693          	andi	a3,a5,-256
  38:	fef44703          	lbu	a4,-17(s0)
  3c:	40c00793          	li	a5,1036
  40:	00e6e733          	or	a4,a3,a4
  44:	00e7a023          	sw	a4,0(a5)
  48:	00000013          	nop
  4c:	01c12083          	lw	ra,28(sp)
  50:	01812403          	lw	s0,24(sp)
  54:	02010113          	addi	sp,sp,32
  58:	00008067          	ret

0000005c <uart_puts>:
  5c:	fe010113          	addi	sp,sp,-32
  60:	00112e23          	sw	ra,28(sp)
  64:	00812c23          	sw	s0,24(sp)
  68:	02010413          	addi	s0,sp,32
  6c:	fea42623          	sw	a0,-20(s0)
  70:	01c0006f          	j	8c <uart_puts+0x30>
  74:	fec42783          	lw	a5,-20(s0)
  78:	00178713          	addi	a4,a5,1
  7c:	fee42623          	sw	a4,-20(s0)
  80:	0007c783          	lbu	a5,0(a5)
  84:	00078513          	mv	a0,a5
  88:	f79ff0ef          	jal	0 <uart_putc>
  8c:	fec42783          	lw	a5,-20(s0)
  90:	0007c783          	lbu	a5,0(a5)
  94:	fe0790e3          	bnez	a5,74 <uart_puts+0x18>
  98:	00000013          	nop
  9c:	00000013          	nop
  a0:	01c12083          	lw	ra,28(sp)
  a4:	01812403          	lw	s0,24(sp)
  a8:	02010113          	addi	sp,sp,32
  ac:	00008067          	ret

000000b0 <main>:
  b0:	ff010113          	addi	sp,sp,-16
  b4:	00112623          	sw	ra,12(sp)
  b8:	00812423          	sw	s0,8(sp)
  bc:	01010413          	addi	s0,sp,16
  c0:	000017b7          	lui	a5,0x1
  c4:	00078513          	mv	a0,a5
  c8:	f95ff0ef          	jal	5c <uart_puts>
  cc:	0000006f          	j	cc <main+0x1c>
