
hello.elf:     file format elf32-littleriscv


Disassembly of section .text:

00000000 <_start>:
   0:	00103117          	auipc	sp,0x103
   4:	80010113          	addi	sp,sp,-2048 # 102800 <_stack_end>
   8:	00100297          	auipc	t0,0x100
   c:	00828293          	addi	t0,t0,8 # 100010 <__bss_end>
  10:	00100317          	auipc	t1,0x100
  14:	00030313          	mv	t1,t1
  18:	00000393          	li	t2,0

0000001c <bss_clear>:
  1c:	0062d863          	bge	t0,t1,2c <bss_done>
  20:	0072a023          	sw	t2,0(t0)
  24:	00428293          	addi	t0,t0,4
  28:	ff5ff06f          	j	1c <bss_clear>

0000002c <bss_done>:
  2c:	134000ef          	jal	160 <main>

00000030 <hang>:
  30:	0000006f          	j	30 <hang>

00000034 <uart_putc>:
  34:	fd010113          	addi	sp,sp,-48
  38:	02112623          	sw	ra,44(sp)
  3c:	02812423          	sw	s0,40(sp)
  40:	03010413          	addi	s0,sp,48
  44:	00050793          	mv	a5,a0
  48:	fcf40fa3          	sb	a5,-33(s0)
  4c:	00000013          	nop
  50:	010007b7          	lui	a5,0x1000
  54:	00878793          	addi	a5,a5,8 # 1000008 <_stack_end+0xefd808>
  58:	0007a783          	lw	a5,0(a5)
  5c:	0087f793          	andi	a5,a5,8
  60:	fe0798e3          	bnez	a5,50 <uart_putc+0x1c>
  64:	010007b7          	lui	a5,0x1000
  68:	00478793          	addi	a5,a5,4 # 1000004 <_stack_end+0xefd804>
  6c:	fdf44703          	lbu	a4,-33(s0)
  70:	00e7a023          	sw	a4,0(a5)
  74:	fe042623          	sw	zero,-20(s0)
  78:	0100006f          	j	88 <uart_putc+0x54>
  7c:	fec42783          	lw	a5,-20(s0)
  80:	00178793          	addi	a5,a5,1
  84:	fef42623          	sw	a5,-20(s0)
  88:	fec42703          	lw	a4,-20(s0)
  8c:	06300793          	li	a5,99
  90:	fee7d6e3          	bge	a5,a4,7c <uart_putc+0x48>
  94:	00000013          	nop
  98:	00000013          	nop
  9c:	02c12083          	lw	ra,44(sp)
  a0:	02812403          	lw	s0,40(sp)
  a4:	03010113          	addi	sp,sp,48
  a8:	00008067          	ret

000000ac <uart_puts>:
  ac:	fe010113          	addi	sp,sp,-32
  b0:	00112e23          	sw	ra,28(sp)
  b4:	00812c23          	sw	s0,24(sp)
  b8:	02010413          	addi	s0,sp,32
  bc:	fea42623          	sw	a0,-20(s0)
  c0:	01c0006f          	j	dc <uart_puts+0x30>
  c4:	fec42783          	lw	a5,-20(s0)
  c8:	00178713          	addi	a4,a5,1
  cc:	fee42623          	sw	a4,-20(s0)
  d0:	0007c783          	lbu	a5,0(a5)
  d4:	00078513          	mv	a0,a5
  d8:	f5dff0ef          	jal	34 <uart_putc>
  dc:	fec42783          	lw	a5,-20(s0)
  e0:	0007c783          	lbu	a5,0(a5)
  e4:	fe0790e3          	bnez	a5,c4 <uart_puts+0x18>
  e8:	00000013          	nop
  ec:	00000013          	nop
  f0:	01c12083          	lw	ra,28(sp)
  f4:	01812403          	lw	s0,24(sp)
  f8:	02010113          	addi	sp,sp,32
  fc:	00008067          	ret

00000100 <uart_flush>:
 100:	fe010113          	addi	sp,sp,-32
 104:	00112e23          	sw	ra,28(sp)
 108:	00812c23          	sw	s0,24(sp)
 10c:	02010413          	addi	s0,sp,32
 110:	00000013          	nop
 114:	010007b7          	lui	a5,0x1000
 118:	00878793          	addi	a5,a5,8 # 1000008 <_stack_end+0xefd808>
 11c:	0007a783          	lw	a5,0(a5)
 120:	0047f793          	andi	a5,a5,4
 124:	fe0788e3          	beqz	a5,114 <uart_flush+0x14>
 128:	fe042623          	sw	zero,-20(s0)
 12c:	0100006f          	j	13c <uart_flush+0x3c>
 130:	fec42783          	lw	a5,-20(s0)
 134:	00178793          	addi	a5,a5,1
 138:	fef42623          	sw	a5,-20(s0)
 13c:	fec42703          	lw	a4,-20(s0)
 140:	06300793          	li	a5,99
 144:	fee7d6e3          	bge	a5,a4,130 <uart_flush+0x30>
 148:	00000013          	nop
 14c:	00000013          	nop
 150:	01c12083          	lw	ra,28(sp)
 154:	01812403          	lw	s0,24(sp)
 158:	02010113          	addi	sp,sp,32
 15c:	00008067          	ret

00000160 <main>:
 160:	ff010113          	addi	sp,sp,-16
 164:	00112623          	sw	ra,12(sp)
 168:	00812423          	sw	s0,8(sp)
 16c:	01010413          	addi	s0,sp,16
 170:	001007b7          	lui	a5,0x100
 174:	00078513          	mv	a0,a5
 178:	f35ff0ef          	jal	ac <uart_puts>
 17c:	f85ff0ef          	jal	100 <uart_flush>
 180:	0000006f          	j	180 <main+0x20>
