
coremark.elf:     file format elf32-littleriscv


Disassembly of section .text:

00000000 <_start>:
       0:	00110117          	auipc	sp,0x110
       4:	00010113          	mv	sp,sp
       8:	00101297          	auipc	t0,0x101
       c:	b1028293          	addi	t0,t0,-1264 # 100b18 <CVTBUF>
      10:	00101317          	auipc	t1,0x101
      14:	b5830313          	addi	t1,t1,-1192 # 100b68 <stop_time_val>
      18:	00000393          	li	t2,0

0000001c <bss_clear>:
      1c:	0062d863          	bge	t0,t1,2c <bss_done>
      20:	0072a023          	sw	t2,0(t0)
      24:	00428293          	addi	t0,t0,4
      28:	ff5ff06f          	j	1c <bss_clear>

0000002c <bss_done>:
      2c:	76c050ef          	jal	5798 <main>

00000030 <hang>:
      30:	0000006f          	j	30 <hang>

00000034 <core_init_state>:
      34:	fff50313          	addi	t1,a0,-1
      38:	00100e93          	li	t4,1
      3c:	106efe63          	bgeu	t4,t1,158 <core_init_state+0x124>
      40:	01d585b3          	add	a1,a1,t4
      44:	01059593          	slli	a1,a1,0x10
      48:	0105d593          	srli	a1,a1,0x10
      4c:	ff010113          	addi	sp,sp,-16 # 10fff0 <_stack_start+0x5ff0>
      50:	001008b7          	lui	a7,0x100
      54:	01b59813          	slli	a6,a1,0x1b
      58:	00812623          	sw	s0,12(sp)
      5c:	00700e13          	li	t3,7
      60:	0075f693          	andi	a3,a1,7
      64:	00088893          	mv	a7,a7
      68:	00000713          	li	a4,0
      6c:	00400f13          	li	t5,4
      70:	02c00f93          	li	t6,44
      74:	01e85793          	srli	a5,a6,0x1e
      78:	07c68e63          	beq	a3,t3,f4 <core_init_state+0xc0>
      7c:	0cdf6463          	bltu	t5,a3,144 <core_init_state+0x110>
      80:	ffd68693          	addi	a3,a3,-3
      84:	01069693          	slli	a3,a3,0x10
      88:	00279793          	slli	a5,a5,0x2
      8c:	0106d693          	srli	a3,a3,0x10
      90:	00f887b3          	add	a5,a7,a5
      94:	0adee263          	bltu	t4,a3,138 <core_init_state+0x104>
      98:	0107a783          	lw	a5,16(a5)
      9c:	00800293          	li	t0,8
      a0:	00170693          	addi	a3,a4,1
      a4:	00568433          	add	s0,a3,t0
      a8:	06647463          	bgeu	s0,t1,110 <core_init_state+0xdc>
      ac:	00158593          	addi	a1,a1,1
      b0:	00e60733          	add	a4,a2,a4
      b4:	01059593          	slli	a1,a1,0x10
      b8:	0105d593          	srli	a1,a1,0x10
      bc:	00070693          	mv	a3,a4
      c0:	005783b3          	add	t2,a5,t0
      c4:	0007c803          	lbu	a6,0(a5)
      c8:	00178793          	addi	a5,a5,1
      cc:	00168693          	addi	a3,a3,1
      d0:	ff068fa3          	sb	a6,-1(a3)
      d4:	fef398e3          	bne	t2,a5,c4 <core_init_state+0x90>
      d8:	00570733          	add	a4,a4,t0
      dc:	01f70023          	sb	t6,0(a4)
      e0:	01b59813          	slli	a6,a1,0x1b
      e4:	0075f693          	andi	a3,a1,7
      e8:	00040713          	mv	a4,s0
      ec:	01e85793          	srli	a5,a6,0x1e
      f0:	f9c696e3          	bne	a3,t3,7c <core_init_state+0x48>
      f4:	00279793          	slli	a5,a5,0x2
      f8:	00800293          	li	t0,8
      fc:	00170693          	addi	a3,a4,1
     100:	00f887b3          	add	a5,a7,a5
     104:	00568433          	add	s0,a3,t0
     108:	0307a783          	lw	a5,48(a5)
     10c:	fa6460e3          	bltu	s0,t1,ac <core_init_state+0x78>
     110:	00a76663          	bltu	a4,a0,11c <core_init_state+0xe8>
     114:	0180006f          	j	12c <core_init_state+0xf8>
     118:	00168693          	addi	a3,a3,1
     11c:	00e60733          	add	a4,a2,a4
     120:	00070023          	sb	zero,0(a4)
     124:	00068713          	mv	a4,a3
     128:	fea6e8e3          	bltu	a3,a0,118 <core_init_state+0xe4>
     12c:	00c12403          	lw	s0,12(sp)
     130:	01010113          	addi	sp,sp,16
     134:	00008067          	ret
     138:	0007a783          	lw	a5,0(a5)
     13c:	00400293          	li	t0,4
     140:	f61ff06f          	j	a0 <core_init_state+0x6c>
     144:	00279793          	slli	a5,a5,0x2
     148:	00f887b3          	add	a5,a7,a5
     14c:	0207a783          	lw	a5,32(a5)
     150:	00800293          	li	t0,8
     154:	f4dff06f          	j	a0 <core_init_state+0x6c>
     158:	000e8693          	mv	a3,t4
     15c:	00000713          	li	a4,0
     160:	0080006f          	j	168 <core_init_state+0x134>
     164:	00168693          	addi	a3,a3,1
     168:	00e60733          	add	a4,a2,a4
     16c:	00070023          	sb	zero,0(a4)
     170:	00068713          	mv	a4,a3
     174:	fea6e8e3          	bltu	a3,a0,164 <core_init_state+0x130>
     178:	00008067          	ret

0000017c <core_state_transition>:
     17c:	00052683          	lw	a3,0(a0)
     180:	0006c783          	lbu	a5,0(a3)
     184:	04078263          	beqz	a5,1c8 <core_state_transition+0x4c>
     188:	02c00713          	li	a4,44
     18c:	20e78263          	beq	a5,a4,390 <core_state_transition+0x214>
     190:	02e00813          	li	a6,46
     194:	1d078c63          	beq	a5,a6,36c <core_state_transition+0x1f0>
     198:	02f86e63          	bltu	a6,a5,1d4 <core_state_transition+0x58>
     19c:	fd578793          	addi	a5,a5,-43
     1a0:	0fd7f793          	andi	a5,a5,253
     1a4:	1e078c63          	beqz	a5,39c <core_state_transition+0x220>
     1a8:	0045a703          	lw	a4,4(a1)
     1ac:	0005a783          	lw	a5,0(a1)
     1b0:	00168693          	addi	a3,a3,1
     1b4:	00170713          	addi	a4,a4,1
     1b8:	00178793          	addi	a5,a5,1
     1bc:	00f5a023          	sw	a5,0(a1)
     1c0:	00e5a223          	sw	a4,4(a1)
     1c4:	00100793          	li	a5,1
     1c8:	00d52023          	sw	a3,0(a0)
     1cc:	00078513          	mv	a0,a5
     1d0:	00008067          	ret
     1d4:	fd078793          	addi	a5,a5,-48
     1d8:	0ff7f793          	zext.b	a5,a5
     1dc:	00900613          	li	a2,9
     1e0:	fcf664e3          	bltu	a2,a5,1a8 <core_state_transition+0x2c>
     1e4:	0005a603          	lw	a2,0(a1)
     1e8:	00168793          	addi	a5,a3,1
     1ec:	00160613          	addi	a2,a2,1
     1f0:	00c5a023          	sw	a2,0(a1)
     1f4:	0016c683          	lbu	a3,1(a3)
     1f8:	1e068a63          	beqz	a3,3ec <core_state_transition+0x270>
     1fc:	20e68663          	beq	a3,a4,408 <core_state_transition+0x28c>
     200:	02e00713          	li	a4,46
     204:	04e68663          	beq	a3,a4,250 <core_state_transition+0xd4>
     208:	fd068693          	addi	a3,a3,-48
     20c:	0ff6f693          	zext.b	a3,a3
     210:	00900713          	li	a4,9
     214:	02d77463          	bgeu	a4,a3,23c <core_state_transition+0xc0>
     218:	0105a703          	lw	a4,16(a1)
     21c:	00178693          	addi	a3,a5,1
     220:	00100793          	li	a5,1
     224:	00f70733          	add	a4,a4,a5
     228:	00e5a823          	sw	a4,16(a1)
     22c:	00d52023          	sw	a3,0(a0)
     230:	00078513          	mv	a0,a5
     234:	00008067          	ret
     238:	00c5a423          	sw	a2,8(a1)
     23c:	0017c683          	lbu	a3,1(a5)
     240:	00178793          	addi	a5,a5,1
     244:	1a068463          	beqz	a3,3ec <core_state_transition+0x270>
     248:	02c00713          	li	a4,44
     24c:	fb1ff06f          	j	1fc <core_state_transition+0x80>
     250:	0105a703          	lw	a4,16(a1)
     254:	00170713          	addi	a4,a4,1
     258:	00e5a823          	sw	a4,16(a1)
     25c:	0017c683          	lbu	a3,1(a5)
     260:	00178793          	addi	a5,a5,1
     264:	12068063          	beqz	a3,384 <core_state_transition+0x208>
     268:	02c00713          	li	a4,44
     26c:	18e68663          	beq	a3,a4,3f8 <core_state_transition+0x27c>
     270:	0df6f713          	andi	a4,a3,223
     274:	04500613          	li	a2,69
     278:	0cc71663          	bne	a4,a2,344 <core_state_transition+0x1c8>
     27c:	0145a703          	lw	a4,20(a1)
     280:	00178693          	addi	a3,a5,1
     284:	00170713          	addi	a4,a4,1
     288:	00e5aa23          	sw	a4,20(a1)
     28c:	0017c703          	lbu	a4,1(a5)
     290:	18070863          	beqz	a4,420 <core_state_transition+0x2a4>
     294:	02c00613          	li	a2,44
     298:	18c70863          	beq	a4,a2,428 <core_state_transition+0x2ac>
     29c:	00c5a683          	lw	a3,12(a1)
     2a0:	fd570713          	addi	a4,a4,-43
     2a4:	0fd77713          	andi	a4,a4,253
     2a8:	00168693          	addi	a3,a3,1
     2ac:	00d5a623          	sw	a3,12(a1)
     2b0:	08071463          	bnez	a4,338 <core_state_transition+0x1bc>
     2b4:	0027c703          	lbu	a4,2(a5)
     2b8:	00278693          	addi	a3,a5,2
     2bc:	14070e63          	beqz	a4,418 <core_state_transition+0x29c>
     2c0:	18c70463          	beq	a4,a2,448 <core_state_transition+0x2cc>
     2c4:	0185a603          	lw	a2,24(a1)
     2c8:	fd070713          	addi	a4,a4,-48
     2cc:	0ff77713          	zext.b	a4,a4
     2d0:	00160613          	addi	a2,a2,1
     2d4:	00900813          	li	a6,9
     2d8:	00c5ac23          	sw	a2,24(a1)
     2dc:	00e87c63          	bgeu	a6,a4,2f4 <core_state_transition+0x178>
     2e0:	00378693          	addi	a3,a5,3
     2e4:	00100793          	li	a5,1
     2e8:	00d52023          	sw	a3,0(a0)
     2ec:	00078513          	mv	a0,a5
     2f0:	00008067          	ret
     2f4:	00068613          	mv	a2,a3
     2f8:	0016c703          	lbu	a4,1(a3)
     2fc:	00168693          	addi	a3,a3,1
     300:	02c00893          	li	a7,44
     304:	fd070793          	addi	a5,a4,-48
     308:	0ff7f793          	zext.b	a5,a5
     30c:	12070463          	beqz	a4,434 <core_state_transition+0x2b8>
     310:	13170663          	beq	a4,a7,43c <core_state_transition+0x2c0>
     314:	fef870e3          	bgeu	a6,a5,2f4 <core_state_transition+0x178>
     318:	0045a703          	lw	a4,4(a1)
     31c:	00100793          	li	a5,1
     320:	00260693          	addi	a3,a2,2
     324:	00f70733          	add	a4,a4,a5
     328:	00e5a223          	sw	a4,4(a1)
     32c:	00d52023          	sw	a3,0(a0)
     330:	00078513          	mv	a0,a5
     334:	00008067          	ret
     338:	00278693          	addi	a3,a5,2
     33c:	00100793          	li	a5,1
     340:	e89ff06f          	j	1c8 <core_state_transition+0x4c>
     344:	fd068693          	addi	a3,a3,-48
     348:	0ff6f693          	zext.b	a3,a3
     34c:	00900713          	li	a4,9
     350:	f0d776e3          	bgeu	a4,a3,25c <core_state_transition+0xe0>
     354:	0145a703          	lw	a4,20(a1)
     358:	00178693          	addi	a3,a5,1
     35c:	00100793          	li	a5,1
     360:	00f70733          	add	a4,a4,a5
     364:	00e5aa23          	sw	a4,20(a1)
     368:	e61ff06f          	j	1c8 <core_state_transition+0x4c>
     36c:	0005a603          	lw	a2,0(a1)
     370:	00168793          	addi	a5,a3,1
     374:	00160613          	addi	a2,a2,1
     378:	00c5a023          	sw	a2,0(a1)
     37c:	0016c683          	lbu	a3,1(a3)
     380:	ee0696e3          	bnez	a3,26c <core_state_transition+0xf0>
     384:	00078693          	mv	a3,a5
     388:	00500793          	li	a5,5
     38c:	e3dff06f          	j	1c8 <core_state_transition+0x4c>
     390:	00000793          	li	a5,0
     394:	00168693          	addi	a3,a3,1
     398:	e31ff06f          	j	1c8 <core_state_transition+0x4c>
     39c:	0005a603          	lw	a2,0(a1)
     3a0:	00168793          	addi	a5,a3,1
     3a4:	00160613          	addi	a2,a2,1
     3a8:	00c5a023          	sw	a2,0(a1)
     3ac:	0016c303          	lbu	t1,1(a3)
     3b0:	0a030a63          	beqz	t1,464 <core_state_transition+0x2e8>
     3b4:	0ae30063          	beq	t1,a4,454 <core_state_transition+0x2d8>
     3b8:	0085a603          	lw	a2,8(a1)
     3bc:	fd030713          	addi	a4,t1,-48
     3c0:	0ff77713          	zext.b	a4,a4
     3c4:	00900893          	li	a7,9
     3c8:	00160613          	addi	a2,a2,1
     3cc:	e6e8f6e3          	bgeu	a7,a4,238 <core_state_transition+0xbc>
     3d0:	01030a63          	beq	t1,a6,3e4 <core_state_transition+0x268>
     3d4:	00c5a423          	sw	a2,8(a1)
     3d8:	00268693          	addi	a3,a3,2
     3dc:	00100793          	li	a5,1
     3e0:	de9ff06f          	j	1c8 <core_state_transition+0x4c>
     3e4:	00c5a423          	sw	a2,8(a1)
     3e8:	e75ff06f          	j	25c <core_state_transition+0xe0>
     3ec:	00078693          	mv	a3,a5
     3f0:	00400793          	li	a5,4
     3f4:	dd5ff06f          	j	1c8 <core_state_transition+0x4c>
     3f8:	00078693          	mv	a3,a5
     3fc:	00168693          	addi	a3,a3,1
     400:	00500793          	li	a5,5
     404:	dc5ff06f          	j	1c8 <core_state_transition+0x4c>
     408:	00078693          	mv	a3,a5
     40c:	00168693          	addi	a3,a3,1
     410:	00400793          	li	a5,4
     414:	db5ff06f          	j	1c8 <core_state_transition+0x4c>
     418:	00600793          	li	a5,6
     41c:	dadff06f          	j	1c8 <core_state_transition+0x4c>
     420:	00300793          	li	a5,3
     424:	da5ff06f          	j	1c8 <core_state_transition+0x4c>
     428:	00300793          	li	a5,3
     42c:	00168693          	addi	a3,a3,1
     430:	d99ff06f          	j	1c8 <core_state_transition+0x4c>
     434:	00700793          	li	a5,7
     438:	d91ff06f          	j	1c8 <core_state_transition+0x4c>
     43c:	00700793          	li	a5,7
     440:	00168693          	addi	a3,a3,1
     444:	d85ff06f          	j	1c8 <core_state_transition+0x4c>
     448:	00600793          	li	a5,6
     44c:	00168693          	addi	a3,a3,1
     450:	d79ff06f          	j	1c8 <core_state_transition+0x4c>
     454:	00078693          	mv	a3,a5
     458:	00168693          	addi	a3,a3,1
     45c:	00200793          	li	a5,2
     460:	d69ff06f          	j	1c8 <core_state_transition+0x4c>
     464:	00078693          	mv	a3,a5
     468:	00200793          	li	a5,2
     46c:	d5dff06f          	j	1c8 <core_state_transition+0x4c>

00000470 <core_bench_state>:
     470:	f8010113          	addi	sp,sp,-128
     474:	07312623          	sw	s3,108(sp)
     478:	07412423          	sw	s4,104(sp)
     47c:	01010993          	addi	s3,sp,16
     480:	03010a13          	addi	s4,sp,48
     484:	06812c23          	sw	s0,120(sp)
     488:	06912a23          	sw	s1,116(sp)
     48c:	07212823          	sw	s2,112(sp)
     490:	07612023          	sw	s6,96(sp)
     494:	05712e23          	sw	s7,92(sp)
     498:	05812c23          	sw	s8,88(sp)
     49c:	05912a23          	sw	s9,84(sp)
     4a0:	00078493          	mv	s1,a5
     4a4:	00070b13          	mv	s6,a4
     4a8:	06112e23          	sw	ra,124(sp)
     4ac:	07512223          	sw	s5,100(sp)
     4b0:	00058413          	mv	s0,a1
     4b4:	00b12623          	sw	a1,12(sp)
     4b8:	00050c93          	mv	s9,a0
     4bc:	00060c13          	mv	s8,a2
     4c0:	00068b93          	mv	s7,a3
     4c4:	000a0793          	mv	a5,s4
     4c8:	00098913          	mv	s2,s3
     4cc:	00098713          	mv	a4,s3
     4d0:	0007a023          	sw	zero,0(a5)
     4d4:	00072023          	sw	zero,0(a4)
     4d8:	00478793          	addi	a5,a5,4
     4dc:	05010693          	addi	a3,sp,80
     4e0:	00470713          	addi	a4,a4,4
     4e4:	fed796e3          	bne	a5,a3,4d0 <core_bench_state+0x60>
     4e8:	00044783          	lbu	a5,0(s0)
     4ec:	00c10a93          	addi	s5,sp,12
     4f0:	10078a63          	beqz	a5,604 <core_bench_state+0x194>
     4f4:	03010593          	addi	a1,sp,48
     4f8:	000a8513          	mv	a0,s5
     4fc:	c81ff0ef          	jal	17c <core_state_transition>
     500:	00251713          	slli	a4,a0,0x2
     504:	00e98733          	add	a4,s3,a4
     508:	00c12683          	lw	a3,12(sp)
     50c:	00072783          	lw	a5,0(a4)
     510:	0006c683          	lbu	a3,0(a3)
     514:	00178793          	addi	a5,a5,1
     518:	00f72023          	sw	a5,0(a4)
     51c:	fc069ce3          	bnez	a3,4f4 <core_bench_state+0x84>
     520:	00812623          	sw	s0,12(sp)
     524:	01940cb3          	add	s9,s0,s9
     528:	03947863          	bgeu	s0,s9,558 <core_bench_state+0xe8>
     52c:	00040793          	mv	a5,s0
     530:	02c00613          	li	a2,44
     534:	0007c703          	lbu	a4,0(a5)
     538:	018746b3          	xor	a3,a4,s8
     53c:	00c70463          	beq	a4,a2,544 <core_bench_state+0xd4>
     540:	00d78023          	sb	a3,0(a5)
     544:	016787b3          	add	a5,a5,s6
     548:	ff97e6e3          	bltu	a5,s9,534 <core_bench_state+0xc4>
     54c:	00044783          	lbu	a5,0(s0)
     550:	00c10a93          	addi	s5,sp,12
     554:	02078863          	beqz	a5,584 <core_bench_state+0x114>
     558:	03010593          	addi	a1,sp,48
     55c:	000a8513          	mv	a0,s5
     560:	c1dff0ef          	jal	17c <core_state_transition>
     564:	00251713          	slli	a4,a0,0x2
     568:	00e98733          	add	a4,s3,a4
     56c:	00c12683          	lw	a3,12(sp)
     570:	00072783          	lw	a5,0(a4)
     574:	0006c683          	lbu	a3,0(a3)
     578:	00178793          	addi	a5,a5,1
     57c:	00f72023          	sw	a5,0(a4)
     580:	fc069ce3          	bnez	a3,558 <core_bench_state+0xe8>
     584:	02c00693          	li	a3,44
     588:	01947e63          	bgeu	s0,s9,5a4 <core_bench_state+0x134>
     58c:	00044783          	lbu	a5,0(s0)
     590:	0177c733          	xor	a4,a5,s7
     594:	00d78463          	beq	a5,a3,59c <core_bench_state+0x12c>
     598:	00e40023          	sb	a4,0(s0)
     59c:	01640433          	add	s0,s0,s6
     5a0:	ff9466e3          	bltu	s0,s9,58c <core_bench_state+0x11c>
     5a4:	02098993          	addi	s3,s3,32
     5a8:	00092503          	lw	a0,0(s2)
     5ac:	00048593          	mv	a1,s1
     5b0:	00490913          	addi	s2,s2,4
     5b4:	4a0000ef          	jal	a54 <crcu32>
     5b8:	00050593          	mv	a1,a0
     5bc:	000a2503          	lw	a0,0(s4)
     5c0:	004a0a13          	addi	s4,s4,4
     5c4:	490000ef          	jal	a54 <crcu32>
     5c8:	00050493          	mv	s1,a0
     5cc:	fd299ee3          	bne	s3,s2,5a8 <core_bench_state+0x138>
     5d0:	07c12083          	lw	ra,124(sp)
     5d4:	07812403          	lw	s0,120(sp)
     5d8:	07412483          	lw	s1,116(sp)
     5dc:	07012903          	lw	s2,112(sp)
     5e0:	06c12983          	lw	s3,108(sp)
     5e4:	06812a03          	lw	s4,104(sp)
     5e8:	06412a83          	lw	s5,100(sp)
     5ec:	06012b03          	lw	s6,96(sp)
     5f0:	05c12b83          	lw	s7,92(sp)
     5f4:	05812c03          	lw	s8,88(sp)
     5f8:	05412c83          	lw	s9,84(sp)
     5fc:	08010113          	addi	sp,sp,128
     600:	00008067          	ret
     604:	01940cb3          	add	s9,s0,s9
     608:	f39462e3          	bltu	s0,s9,52c <core_bench_state+0xbc>
     60c:	f99ff06f          	j	5a4 <core_bench_state+0x134>

00000610 <iterate>:
     610:	ff010113          	addi	sp,sp,-16
     614:	01212023          	sw	s2,0(sp)
     618:	01c52903          	lw	s2,28(a0)
     61c:	00112623          	sw	ra,12(sp)
     620:	02052c23          	sw	zero,56(a0)
     624:	02052e23          	sw	zero,60(a0)
     628:	04090e63          	beqz	s2,684 <iterate+0x74>
     62c:	00812423          	sw	s0,8(sp)
     630:	00912223          	sw	s1,4(sp)
     634:	00050413          	mv	s0,a0
     638:	00000493          	li	s1,0
     63c:	00100593          	li	a1,1
     640:	00040513          	mv	a0,s0
     644:	189010ef          	jal	1fcc <core_bench_list>
     648:	03845583          	lhu	a1,56(s0)
     64c:	1e0000ef          	jal	82c <crcu16>
     650:	02a41c23          	sh	a0,56(s0)
     654:	fff00593          	li	a1,-1
     658:	00040513          	mv	a0,s0
     65c:	171010ef          	jal	1fcc <core_bench_list>
     660:	03845583          	lhu	a1,56(s0)
     664:	1c8000ef          	jal	82c <crcu16>
     668:	02a41c23          	sh	a0,56(s0)
     66c:	00049463          	bnez	s1,674 <iterate+0x64>
     670:	02a41d23          	sh	a0,58(s0)
     674:	00148493          	addi	s1,s1,1
     678:	fc9912e3          	bne	s2,s1,63c <iterate+0x2c>
     67c:	00812403          	lw	s0,8(sp)
     680:	00412483          	lw	s1,4(sp)
     684:	00c12083          	lw	ra,12(sp)
     688:	00012903          	lw	s2,0(sp)
     68c:	00000513          	li	a0,0
     690:	01010113          	addi	sp,sp,16
     694:	00008067          	ret

00000698 <get_seed_32>:
     698:	00500793          	li	a5,5
     69c:	04a7ec63          	bltu	a5,a0,6f4 <get_seed_32+0x5c>
     6a0:	001007b7          	lui	a5,0x100
     6a4:	06478793          	addi	a5,a5,100 # 100064 <state_known_crc+0xc>
     6a8:	00251513          	slli	a0,a0,0x2
     6ac:	00f50533          	add	a0,a0,a5
     6b0:	00052783          	lw	a5,0(a0)
     6b4:	00078067          	jr	a5
     6b8:	001017b7          	lui	a5,0x101
     6bc:	b707a503          	lw	a0,-1168(a5) # 100b70 <seed5_volatile>
     6c0:	00008067          	ret
     6c4:	001017b7          	lui	a5,0x101
     6c8:	b147a503          	lw	a0,-1260(a5) # 100b14 <seed1_volatile>
     6cc:	00008067          	ret
     6d0:	001017b7          	lui	a5,0x101
     6d4:	b107a503          	lw	a0,-1264(a5) # 100b10 <seed2_volatile>
     6d8:	00008067          	ret
     6dc:	001017b7          	lui	a5,0x101
     6e0:	b0c7a503          	lw	a0,-1268(a5) # 100b0c <seed3_volatile>
     6e4:	00008067          	ret
     6e8:	001017b7          	lui	a5,0x101
     6ec:	b087a503          	lw	a0,-1272(a5) # 100b08 <seed4_volatile>
     6f0:	00008067          	ret
     6f4:	00000513          	li	a0,0
     6f8:	00008067          	ret

000006fc <crcu8>:
     6fc:	0ff5f713          	zext.b	a4,a1
     700:	00871713          	slli	a4,a4,0x8
     704:	0085d593          	srli	a1,a1,0x8
     708:	000017b7          	lui	a5,0x1
     70c:	fffff337          	lui	t1,0xfffff
     710:	00b76733          	or	a4,a4,a1
     714:	f0f78793          	addi	a5,a5,-241 # f0f <crc16+0x9b>
     718:	0f030313          	addi	t1,t1,240 # fffff0f0 <_stack_end+0xffeef0f0>
     71c:	00f77633          	and	a2,a4,a5
     720:	00677733          	and	a4,a4,t1
     724:	00475713          	srli	a4,a4,0x4
     728:	00461613          	slli	a2,a2,0x4
     72c:	00e66633          	or	a2,a2,a4
     730:	ffffd8b7          	lui	a7,0xffffd
     734:	00003737          	lui	a4,0x3
     738:	33370713          	addi	a4,a4,819 # 3333 <printf+0x5ff>
     73c:	ccc88893          	addi	a7,a7,-820 # ffffcccc <_stack_end+0xffeecccc>
     740:	00f57693          	andi	a3,a0,15
     744:	00e675b3          	and	a1,a2,a4
     748:	00455513          	srli	a0,a0,0x4
     74c:	01167633          	and	a2,a2,a7
     750:	00469693          	slli	a3,a3,0x4
     754:	00a6e6b3          	or	a3,a3,a0
     758:	00265613          	srli	a2,a2,0x2
     75c:	00259593          	slli	a1,a1,0x2
     760:	00c5e5b3          	or	a1,a1,a2
     764:	00005537          	lui	a0,0x5
     768:	0336f613          	andi	a2,a3,51
     76c:	ffffb837          	lui	a6,0xffffb
     770:	0cc6f693          	andi	a3,a3,204
     774:	aaa80813          	addi	a6,a6,-1366 # ffffaaaa <_stack_end+0xffeeaaaa>
     778:	0026de13          	srli	t3,a3,0x2
     77c:	55550513          	addi	a0,a0,1365 # 5555 <__subdf3+0x51d>
     780:	00261613          	slli	a2,a2,0x2
     784:	00a5f6b3          	and	a3,a1,a0
     788:	01c66633          	or	a2,a2,t3
     78c:	0105f5b3          	and	a1,a1,a6
     790:	0015d593          	srli	a1,a1,0x1
     794:	00169693          	slli	a3,a3,0x1
     798:	05567e93          	andi	t4,a2,85
     79c:	0aa67613          	andi	a2,a2,170
     7a0:	00b6ee33          	or	t3,a3,a1
     7a4:	001e9e93          	slli	t4,t4,0x1
     7a8:	00165613          	srli	a2,a2,0x1
     7ac:	008e5e13          	srli	t3,t3,0x8
     7b0:	00cee633          	or	a2,t4,a2
     7b4:	00ce4633          	xor	a2,t3,a2
     7b8:	00100e37          	lui	t3,0x100
     7bc:	07ce0e13          	addi	t3,t3,124 # 10007c <state_known_crc+0x24>
     7c0:	00161613          	slli	a2,a2,0x1
     7c4:	01c60633          	add	a2,a2,t3
     7c8:	00065603          	lhu	a2,0(a2)
     7cc:	00b6e6b3          	or	a3,a3,a1
     7d0:	00869693          	slli	a3,a3,0x8
     7d4:	00d646b3          	xor	a3,a2,a3
     7d8:	01069593          	slli	a1,a3,0x10
     7dc:	0ff67613          	zext.b	a2,a2
     7e0:	0185d693          	srli	a3,a1,0x18
     7e4:	00861613          	slli	a2,a2,0x8
     7e8:	00d66633          	or	a2,a2,a3
     7ec:	00f676b3          	and	a3,a2,a5
     7f0:	00667633          	and	a2,a2,t1
     7f4:	00465613          	srli	a2,a2,0x4
     7f8:	00469693          	slli	a3,a3,0x4
     7fc:	00c6e6b3          	or	a3,a3,a2
     800:	00e6f7b3          	and	a5,a3,a4
     804:	0116f6b3          	and	a3,a3,a7
     808:	0026d693          	srli	a3,a3,0x2
     80c:	00279793          	slli	a5,a5,0x2
     810:	00d7e7b3          	or	a5,a5,a3
     814:	00a7f533          	and	a0,a5,a0
     818:	0107f7b3          	and	a5,a5,a6
     81c:	0017d793          	srli	a5,a5,0x1
     820:	00151513          	slli	a0,a0,0x1
     824:	00f56533          	or	a0,a0,a5
     828:	00008067          	ret

0000082c <crcu16>:
     82c:	0ff5f793          	zext.b	a5,a1
     830:	00879793          	slli	a5,a5,0x8
     834:	0085d593          	srli	a1,a1,0x8
     838:	00001737          	lui	a4,0x1
     83c:	fffff337          	lui	t1,0xfffff
     840:	0f030313          	addi	t1,t1,240 # fffff0f0 <_stack_end+0xffeef0f0>
     844:	f0f70713          	addi	a4,a4,-241 # f0f <crc16+0x9b>
     848:	00b7e7b3          	or	a5,a5,a1
     84c:	00e7f5b3          	and	a1,a5,a4
     850:	0067f7b3          	and	a5,a5,t1
     854:	0047d793          	srli	a5,a5,0x4
     858:	00459593          	slli	a1,a1,0x4
     85c:	00f5e5b3          	or	a1,a1,a5
     860:	ffffd8b7          	lui	a7,0xffffd
     864:	000037b7          	lui	a5,0x3
     868:	ccc88893          	addi	a7,a7,-820 # ffffcccc <_stack_end+0xffeecccc>
     86c:	33378793          	addi	a5,a5,819 # 3333 <printf+0x5ff>
     870:	00f57693          	andi	a3,a0,15
     874:	0f057813          	andi	a6,a0,240
     878:	00f5f633          	and	a2,a1,a5
     87c:	00485813          	srli	a6,a6,0x4
     880:	0115f5b3          	and	a1,a1,a7
     884:	00469693          	slli	a3,a3,0x4
     888:	0106e6b3          	or	a3,a3,a6
     88c:	0025d593          	srli	a1,a1,0x2
     890:	00261613          	slli	a2,a2,0x2
     894:	00b66633          	or	a2,a2,a1
     898:	0336fe13          	andi	t3,a3,51
     89c:	000055b7          	lui	a1,0x5
     8a0:	0cc6f693          	andi	a3,a3,204
     8a4:	ffffb837          	lui	a6,0xffffb
     8a8:	55558593          	addi	a1,a1,1365 # 5555 <__subdf3+0x51d>
     8ac:	aaa80813          	addi	a6,a6,-1366 # ffffaaaa <_stack_end+0xffeeaaaa>
     8b0:	0026de93          	srli	t4,a3,0x2
     8b4:	002e1e13          	slli	t3,t3,0x2
     8b8:	00b676b3          	and	a3,a2,a1
     8bc:	01de6e33          	or	t3,t3,t4
     8c0:	01067633          	and	a2,a2,a6
     8c4:	00169693          	slli	a3,a3,0x1
     8c8:	00165613          	srli	a2,a2,0x1
     8cc:	055e7f13          	andi	t5,t3,85
     8d0:	0aae7e13          	andi	t3,t3,170
     8d4:	00c6eeb3          	or	t4,a3,a2
     8d8:	001f1f13          	slli	t5,t5,0x1
     8dc:	001e5e13          	srli	t3,t3,0x1
     8e0:	01cf6e33          	or	t3,t5,t3
     8e4:	008ede93          	srli	t4,t4,0x8
     8e8:	01ceceb3          	xor	t4,t4,t3
     8ec:	00100e37          	lui	t3,0x100
     8f0:	07ce0e13          	addi	t3,t3,124 # 10007c <state_known_crc+0x24>
     8f4:	00c6e633          	or	a2,a3,a2
     8f8:	001e9693          	slli	a3,t4,0x1
     8fc:	01c686b3          	add	a3,a3,t3
     900:	0006d683          	lhu	a3,0(a3)
     904:	00861613          	slli	a2,a2,0x8
     908:	00855513          	srli	a0,a0,0x8
     90c:	00c6c633          	xor	a2,a3,a2
     910:	01061e93          	slli	t4,a2,0x10
     914:	0ff6f693          	zext.b	a3,a3
     918:	018ed613          	srli	a2,t4,0x18
     91c:	00869693          	slli	a3,a3,0x8
     920:	00c6e6b3          	or	a3,a3,a2
     924:	00e6f633          	and	a2,a3,a4
     928:	0066f6b3          	and	a3,a3,t1
     92c:	0046d693          	srli	a3,a3,0x4
     930:	00461613          	slli	a2,a2,0x4
     934:	00d66633          	or	a2,a2,a3
     938:	00f676b3          	and	a3,a2,a5
     93c:	01167633          	and	a2,a2,a7
     940:	00265613          	srli	a2,a2,0x2
     944:	00269693          	slli	a3,a3,0x2
     948:	00c6e6b3          	or	a3,a3,a2
     94c:	00b6f633          	and	a2,a3,a1
     950:	0106f6b3          	and	a3,a3,a6
     954:	00161613          	slli	a2,a2,0x1
     958:	0016d693          	srli	a3,a3,0x1
     95c:	00d666b3          	or	a3,a2,a3
     960:	0ff6f613          	zext.b	a2,a3
     964:	00861613          	slli	a2,a2,0x8
     968:	0086d693          	srli	a3,a3,0x8
     96c:	00d66633          	or	a2,a2,a3
     970:	00e676b3          	and	a3,a2,a4
     974:	00667eb3          	and	t4,a2,t1
     978:	004ede93          	srli	t4,t4,0x4
     97c:	00f57613          	andi	a2,a0,15
     980:	00469693          	slli	a3,a3,0x4
     984:	01d6e6b3          	or	a3,a3,t4
     988:	00455513          	srli	a0,a0,0x4
     98c:	00461613          	slli	a2,a2,0x4
     990:	00a66633          	or	a2,a2,a0
     994:	0116feb3          	and	t4,a3,a7
     998:	00f6f533          	and	a0,a3,a5
     99c:	002ede93          	srli	t4,t4,0x2
     9a0:	03367693          	andi	a3,a2,51
     9a4:	00251513          	slli	a0,a0,0x2
     9a8:	0cc67613          	andi	a2,a2,204
     9ac:	01d56533          	or	a0,a0,t4
     9b0:	00265613          	srli	a2,a2,0x2
     9b4:	00269693          	slli	a3,a3,0x2
     9b8:	00c6e6b3          	or	a3,a3,a2
     9bc:	00b57633          	and	a2,a0,a1
     9c0:	01057533          	and	a0,a0,a6
     9c4:	0556ff13          	andi	t5,a3,85
     9c8:	00161613          	slli	a2,a2,0x1
     9cc:	00155513          	srli	a0,a0,0x1
     9d0:	0aa6f693          	andi	a3,a3,170
     9d4:	00a66eb3          	or	t4,a2,a0
     9d8:	0016d693          	srli	a3,a3,0x1
     9dc:	001f1f13          	slli	t5,t5,0x1
     9e0:	00df6f33          	or	t5,t5,a3
     9e4:	008ed693          	srli	a3,t4,0x8
     9e8:	01e6c6b3          	xor	a3,a3,t5
     9ec:	00169693          	slli	a3,a3,0x1
     9f0:	01c686b3          	add	a3,a3,t3
     9f4:	0006d683          	lhu	a3,0(a3)
     9f8:	008e9613          	slli	a2,t4,0x8
     9fc:	00c6c633          	xor	a2,a3,a2
     a00:	01061513          	slli	a0,a2,0x10
     a04:	0ff6f693          	zext.b	a3,a3
     a08:	01855613          	srli	a2,a0,0x18
     a0c:	00869693          	slli	a3,a3,0x8
     a10:	00c6e6b3          	or	a3,a3,a2
     a14:	00e6f733          	and	a4,a3,a4
     a18:	0066f6b3          	and	a3,a3,t1
     a1c:	0046d693          	srli	a3,a3,0x4
     a20:	00471713          	slli	a4,a4,0x4
     a24:	00d76733          	or	a4,a4,a3
     a28:	00f777b3          	and	a5,a4,a5
     a2c:	01177733          	and	a4,a4,a7
     a30:	00275713          	srli	a4,a4,0x2
     a34:	00279793          	slli	a5,a5,0x2
     a38:	00e7e7b3          	or	a5,a5,a4
     a3c:	00b7f533          	and	a0,a5,a1
     a40:	0107f7b3          	and	a5,a5,a6
     a44:	0017d793          	srli	a5,a5,0x1
     a48:	00151513          	slli	a0,a0,0x1
     a4c:	00f56533          	or	a0,a0,a5
     a50:	00008067          	ret

00000a54 <crcu32>:
     a54:	0ff5f793          	zext.b	a5,a1
     a58:	00879793          	slli	a5,a5,0x8
     a5c:	0085d593          	srli	a1,a1,0x8
     a60:	00001737          	lui	a4,0x1
     a64:	fffff8b7          	lui	a7,0xfffff
     a68:	0f088893          	addi	a7,a7,240 # fffff0f0 <_stack_end+0xffeef0f0>
     a6c:	f0f70713          	addi	a4,a4,-241 # f0f <crc16+0x9b>
     a70:	00b7e7b3          	or	a5,a5,a1
     a74:	00e7f6b3          	and	a3,a5,a4
     a78:	0117f7b3          	and	a5,a5,a7
     a7c:	0047d793          	srli	a5,a5,0x4
     a80:	00469693          	slli	a3,a3,0x4
     a84:	00f6e6b3          	or	a3,a3,a5
     a88:	ffffd837          	lui	a6,0xffffd
     a8c:	000037b7          	lui	a5,0x3
     a90:	ccc80813          	addi	a6,a6,-820 # ffffcccc <_stack_end+0xffeecccc>
     a94:	33378793          	addi	a5,a5,819 # 3333 <printf+0x5ff>
     a98:	00f57613          	andi	a2,a0,15
     a9c:	0f057593          	andi	a1,a0,240
     aa0:	00f6f333          	and	t1,a3,a5
     aa4:	0045d593          	srli	a1,a1,0x4
     aa8:	0106f6b3          	and	a3,a3,a6
     aac:	00461613          	slli	a2,a2,0x4
     ab0:	00b66633          	or	a2,a2,a1
     ab4:	0026d693          	srli	a3,a3,0x2
     ab8:	00231313          	slli	t1,t1,0x2
     abc:	00d36333          	or	t1,t1,a3
     ac0:	03367e13          	andi	t3,a2,51
     ac4:	000056b7          	lui	a3,0x5
     ac8:	0cc67613          	andi	a2,a2,204
     acc:	ffffb5b7          	lui	a1,0xffffb
     ad0:	55568693          	addi	a3,a3,1365 # 5555 <__subdf3+0x51d>
     ad4:	aaa58593          	addi	a1,a1,-1366 # ffffaaaa <_stack_end+0xffeeaaaa>
     ad8:	00265e93          	srli	t4,a2,0x2
     adc:	002e1e13          	slli	t3,t3,0x2
     ae0:	00d37633          	and	a2,t1,a3
     ae4:	01de6e33          	or	t3,t3,t4
     ae8:	00b37333          	and	t1,t1,a1
     aec:	00161613          	slli	a2,a2,0x1
     af0:	00135313          	srli	t1,t1,0x1
     af4:	055e7f13          	andi	t5,t3,85
     af8:	0aae7e13          	andi	t3,t3,170
     afc:	00666eb3          	or	t4,a2,t1
     b00:	001f1f13          	slli	t5,t5,0x1
     b04:	001e5e13          	srli	t3,t3,0x1
     b08:	01cf6e33          	or	t3,t5,t3
     b0c:	008ede93          	srli	t4,t4,0x8
     b10:	01ceceb3          	xor	t4,t4,t3
     b14:	00666e33          	or	t3,a2,t1
     b18:	00100337          	lui	t1,0x100
     b1c:	07c30313          	addi	t1,t1,124 # 10007c <state_known_crc+0x24>
     b20:	001e9613          	slli	a2,t4,0x1
     b24:	00660633          	add	a2,a2,t1
     b28:	00065603          	lhu	a2,0(a2)
     b2c:	008e1e13          	slli	t3,t3,0x8
     b30:	00855f13          	srli	t5,a0,0x8
     b34:	01c64e33          	xor	t3,a2,t3
     b38:	010e1e93          	slli	t4,t3,0x10
     b3c:	0ff67613          	zext.b	a2,a2
     b40:	018ede13          	srli	t3,t4,0x18
     b44:	00861613          	slli	a2,a2,0x8
     b48:	01c66633          	or	a2,a2,t3
     b4c:	00e67e33          	and	t3,a2,a4
     b50:	01167633          	and	a2,a2,a7
     b54:	00465613          	srli	a2,a2,0x4
     b58:	004e1e13          	slli	t3,t3,0x4
     b5c:	00ce6e33          	or	t3,t3,a2
     b60:	00fe7633          	and	a2,t3,a5
     b64:	010e7e33          	and	t3,t3,a6
     b68:	002e5e13          	srli	t3,t3,0x2
     b6c:	00261613          	slli	a2,a2,0x2
     b70:	01c66633          	or	a2,a2,t3
     b74:	00d67e33          	and	t3,a2,a3
     b78:	00b67633          	and	a2,a2,a1
     b7c:	00165613          	srli	a2,a2,0x1
     b80:	001e1e13          	slli	t3,t3,0x1
     b84:	00ce6e33          	or	t3,t3,a2
     b88:	0ffe7613          	zext.b	a2,t3
     b8c:	00861613          	slli	a2,a2,0x8
     b90:	008e5e13          	srli	t3,t3,0x8
     b94:	01c66633          	or	a2,a2,t3
     b98:	00e67eb3          	and	t4,a2,a4
     b9c:	01167633          	and	a2,a2,a7
     ba0:	00465613          	srli	a2,a2,0x4
     ba4:	004e9e93          	slli	t4,t4,0x4
     ba8:	00ceeeb3          	or	t4,t4,a2
     bac:	00ff7613          	andi	a2,t5,15
     bb0:	0f0f7f13          	andi	t5,t5,240
     bb4:	00fefe33          	and	t3,t4,a5
     bb8:	004f5f13          	srli	t5,t5,0x4
     bbc:	010efeb3          	and	t4,t4,a6
     bc0:	00461613          	slli	a2,a2,0x4
     bc4:	01e66633          	or	a2,a2,t5
     bc8:	002ede93          	srli	t4,t4,0x2
     bcc:	002e1e13          	slli	t3,t3,0x2
     bd0:	01de6e33          	or	t3,t3,t4
     bd4:	03367e93          	andi	t4,a2,51
     bd8:	0cc67613          	andi	a2,a2,204
     bdc:	00265f13          	srli	t5,a2,0x2
     be0:	002e9e93          	slli	t4,t4,0x2
     be4:	00de7633          	and	a2,t3,a3
     be8:	01eeeeb3          	or	t4,t4,t5
     bec:	00be7e33          	and	t3,t3,a1
     bf0:	00161613          	slli	a2,a2,0x1
     bf4:	001e5e13          	srli	t3,t3,0x1
     bf8:	055eff93          	andi	t6,t4,85
     bfc:	0aaefe93          	andi	t4,t4,170
     c00:	01c66f33          	or	t5,a2,t3
     c04:	001f9f93          	slli	t6,t6,0x1
     c08:	001ede93          	srli	t4,t4,0x1
     c0c:	008f5f13          	srli	t5,t5,0x8
     c10:	01dfeeb3          	or	t4,t6,t4
     c14:	01df4eb3          	xor	t4,t5,t4
     c18:	01c66e33          	or	t3,a2,t3
     c1c:	001e9613          	slli	a2,t4,0x1
     c20:	00660633          	add	a2,a2,t1
     c24:	00065603          	lhu	a2,0(a2)
     c28:	008e1e13          	slli	t3,t3,0x8
     c2c:	01055e93          	srli	t4,a0,0x10
     c30:	01c64e33          	xor	t3,a2,t3
     c34:	010e1f13          	slli	t5,t3,0x10
     c38:	0ff67613          	zext.b	a2,a2
     c3c:	018f5e13          	srli	t3,t5,0x18
     c40:	00861613          	slli	a2,a2,0x8
     c44:	01c66633          	or	a2,a2,t3
     c48:	00e67e33          	and	t3,a2,a4
     c4c:	01167633          	and	a2,a2,a7
     c50:	00465613          	srli	a2,a2,0x4
     c54:	004e1e13          	slli	t3,t3,0x4
     c58:	00ce6e33          	or	t3,t3,a2
     c5c:	00fe7633          	and	a2,t3,a5
     c60:	010e7e33          	and	t3,t3,a6
     c64:	002e5e13          	srli	t3,t3,0x2
     c68:	00261613          	slli	a2,a2,0x2
     c6c:	01c66633          	or	a2,a2,t3
     c70:	00d67e33          	and	t3,a2,a3
     c74:	00b67633          	and	a2,a2,a1
     c78:	001e1e13          	slli	t3,t3,0x1
     c7c:	00165613          	srli	a2,a2,0x1
     c80:	00ce6633          	or	a2,t3,a2
     c84:	0ff67e13          	zext.b	t3,a2
     c88:	008e1e13          	slli	t3,t3,0x8
     c8c:	00865613          	srli	a2,a2,0x8
     c90:	00ce6e33          	or	t3,t3,a2
     c94:	00ee7633          	and	a2,t3,a4
     c98:	011e7e33          	and	t3,t3,a7
     c9c:	004e5e13          	srli	t3,t3,0x4
     ca0:	00461613          	slli	a2,a2,0x4
     ca4:	01c66633          	or	a2,a2,t3
     ca8:	00fefe13          	andi	t3,t4,15
     cac:	0f0efe93          	andi	t4,t4,240
     cb0:	004edf13          	srli	t5,t4,0x4
     cb4:	004e1e13          	slli	t3,t3,0x4
     cb8:	00f67eb3          	and	t4,a2,a5
     cbc:	01067633          	and	a2,a2,a6
     cc0:	01ee6e33          	or	t3,t3,t5
     cc4:	00265613          	srli	a2,a2,0x2
     cc8:	002e9e93          	slli	t4,t4,0x2
     ccc:	00ceeeb3          	or	t4,t4,a2
     cd0:	033e7613          	andi	a2,t3,51
     cd4:	0cce7e13          	andi	t3,t3,204
     cd8:	002e5f13          	srli	t5,t3,0x2
     cdc:	00261613          	slli	a2,a2,0x2
     ce0:	00defe33          	and	t3,t4,a3
     ce4:	01e66633          	or	a2,a2,t5
     ce8:	00befeb3          	and	t4,t4,a1
     cec:	001ede93          	srli	t4,t4,0x1
     cf0:	001e1e13          	slli	t3,t3,0x1
     cf4:	05567f93          	andi	t6,a2,85
     cf8:	0aa67613          	andi	a2,a2,170
     cfc:	01de6f33          	or	t5,t3,t4
     d00:	001f9f93          	slli	t6,t6,0x1
     d04:	00165613          	srli	a2,a2,0x1
     d08:	008f5f13          	srli	t5,t5,0x8
     d0c:	00cfe633          	or	a2,t6,a2
     d10:	00cf4633          	xor	a2,t5,a2
     d14:	00161613          	slli	a2,a2,0x1
     d18:	00660633          	add	a2,a2,t1
     d1c:	00065603          	lhu	a2,0(a2)
     d20:	01de6e33          	or	t3,t3,t4
     d24:	008e1e13          	slli	t3,t3,0x8
     d28:	01c64e33          	xor	t3,a2,t3
     d2c:	010e1e93          	slli	t4,t3,0x10
     d30:	0ff67613          	zext.b	a2,a2
     d34:	018ede13          	srli	t3,t4,0x18
     d38:	00861613          	slli	a2,a2,0x8
     d3c:	01c66633          	or	a2,a2,t3
     d40:	00e67e33          	and	t3,a2,a4
     d44:	01167633          	and	a2,a2,a7
     d48:	00465613          	srli	a2,a2,0x4
     d4c:	004e1e13          	slli	t3,t3,0x4
     d50:	00ce6e33          	or	t3,t3,a2
     d54:	00fe7633          	and	a2,t3,a5
     d58:	010e7e33          	and	t3,t3,a6
     d5c:	002e5e13          	srli	t3,t3,0x2
     d60:	00261613          	slli	a2,a2,0x2
     d64:	01c66633          	or	a2,a2,t3
     d68:	00d67e33          	and	t3,a2,a3
     d6c:	00b67633          	and	a2,a2,a1
     d70:	00165613          	srli	a2,a2,0x1
     d74:	001e1e13          	slli	t3,t3,0x1
     d78:	00ce6e33          	or	t3,t3,a2
     d7c:	0ffe7613          	zext.b	a2,t3
     d80:	00861613          	slli	a2,a2,0x8
     d84:	008e5e13          	srli	t3,t3,0x8
     d88:	01c66633          	or	a2,a2,t3
     d8c:	00e67eb3          	and	t4,a2,a4
     d90:	01167e33          	and	t3,a2,a7
     d94:	01855513          	srli	a0,a0,0x18
     d98:	00f57613          	andi	a2,a0,15
     d9c:	004e5e13          	srli	t3,t3,0x4
     da0:	004e9e93          	slli	t4,t4,0x4
     da4:	00461613          	slli	a2,a2,0x4
     da8:	01ceeeb3          	or	t4,t4,t3
     dac:	00455513          	srli	a0,a0,0x4
     db0:	00fefe33          	and	t3,t4,a5
     db4:	00a66533          	or	a0,a2,a0
     db8:	010efeb3          	and	t4,t4,a6
     dbc:	03357613          	andi	a2,a0,51
     dc0:	002ede93          	srli	t4,t4,0x2
     dc4:	0cc57513          	andi	a0,a0,204
     dc8:	002e1e13          	slli	t3,t3,0x2
     dcc:	01de6e33          	or	t3,t3,t4
     dd0:	00255513          	srli	a0,a0,0x2
     dd4:	00261613          	slli	a2,a2,0x2
     dd8:	00a66633          	or	a2,a2,a0
     ddc:	00de7533          	and	a0,t3,a3
     de0:	00be7e33          	and	t3,t3,a1
     de4:	05567f13          	andi	t5,a2,85
     de8:	00151513          	slli	a0,a0,0x1
     dec:	001e5e13          	srli	t3,t3,0x1
     df0:	0aa67613          	andi	a2,a2,170
     df4:	01c56eb3          	or	t4,a0,t3
     df8:	00165613          	srli	a2,a2,0x1
     dfc:	001f1f13          	slli	t5,t5,0x1
     e00:	00cf6f33          	or	t5,t5,a2
     e04:	008ed613          	srli	a2,t4,0x8
     e08:	01e64633          	xor	a2,a2,t5
     e0c:	00161613          	slli	a2,a2,0x1
     e10:	00660633          	add	a2,a2,t1
     e14:	00065603          	lhu	a2,0(a2)
     e18:	008e9513          	slli	a0,t4,0x8
     e1c:	00a64533          	xor	a0,a2,a0
     e20:	01051313          	slli	t1,a0,0x10
     e24:	0ff67613          	zext.b	a2,a2
     e28:	01835513          	srli	a0,t1,0x18
     e2c:	00861613          	slli	a2,a2,0x8
     e30:	00a66633          	or	a2,a2,a0
     e34:	00e67733          	and	a4,a2,a4
     e38:	01167633          	and	a2,a2,a7
     e3c:	00465613          	srli	a2,a2,0x4
     e40:	00471713          	slli	a4,a4,0x4
     e44:	00c76733          	or	a4,a4,a2
     e48:	00f777b3          	and	a5,a4,a5
     e4c:	01077733          	and	a4,a4,a6
     e50:	00275713          	srli	a4,a4,0x2
     e54:	00279793          	slli	a5,a5,0x2
     e58:	00e7e7b3          	or	a5,a5,a4
     e5c:	00d7f533          	and	a0,a5,a3
     e60:	00b7f7b3          	and	a5,a5,a1
     e64:	0017d793          	srli	a5,a5,0x1
     e68:	00151513          	slli	a0,a0,0x1
     e6c:	00f56533          	or	a0,a0,a5
     e70:	00008067          	ret

00000e74 <crc16>:
     e74:	0ff5f793          	zext.b	a5,a1
     e78:	00879793          	slli	a5,a5,0x8
     e7c:	0085d593          	srli	a1,a1,0x8
     e80:	00001737          	lui	a4,0x1
     e84:	fffff337          	lui	t1,0xfffff
     e88:	0f030313          	addi	t1,t1,240 # fffff0f0 <_stack_end+0xffeef0f0>
     e8c:	f0f70713          	addi	a4,a4,-241 # f0f <crc16+0x9b>
     e90:	00b7e7b3          	or	a5,a5,a1
     e94:	00e7f5b3          	and	a1,a5,a4
     e98:	0067f7b3          	and	a5,a5,t1
     e9c:	0047d793          	srli	a5,a5,0x4
     ea0:	00459593          	slli	a1,a1,0x4
     ea4:	00f5e5b3          	or	a1,a1,a5
     ea8:	ffffd8b7          	lui	a7,0xffffd
     eac:	000037b7          	lui	a5,0x3
     eb0:	ccc88893          	addi	a7,a7,-820 # ffffcccc <_stack_end+0xffeecccc>
     eb4:	33378793          	addi	a5,a5,819 # 3333 <printf+0x5ff>
     eb8:	00f57693          	andi	a3,a0,15
     ebc:	0f057813          	andi	a6,a0,240
     ec0:	00f5f633          	and	a2,a1,a5
     ec4:	00485813          	srli	a6,a6,0x4
     ec8:	0115f5b3          	and	a1,a1,a7
     ecc:	00469693          	slli	a3,a3,0x4
     ed0:	0106e6b3          	or	a3,a3,a6
     ed4:	0025d593          	srli	a1,a1,0x2
     ed8:	00261613          	slli	a2,a2,0x2
     edc:	00b66633          	or	a2,a2,a1
     ee0:	0336fe13          	andi	t3,a3,51
     ee4:	000055b7          	lui	a1,0x5
     ee8:	0cc6f693          	andi	a3,a3,204
     eec:	ffffb837          	lui	a6,0xffffb
     ef0:	55558593          	addi	a1,a1,1365 # 5555 <__subdf3+0x51d>
     ef4:	aaa80813          	addi	a6,a6,-1366 # ffffaaaa <_stack_end+0xffeeaaaa>
     ef8:	0026de93          	srli	t4,a3,0x2
     efc:	002e1e13          	slli	t3,t3,0x2
     f00:	00b676b3          	and	a3,a2,a1
     f04:	01de6e33          	or	t3,t3,t4
     f08:	01067633          	and	a2,a2,a6
     f0c:	00169693          	slli	a3,a3,0x1
     f10:	00165613          	srli	a2,a2,0x1
     f14:	055e7f13          	andi	t5,t3,85
     f18:	0aae7e13          	andi	t3,t3,170
     f1c:	00c6eeb3          	or	t4,a3,a2
     f20:	001f1f13          	slli	t5,t5,0x1
     f24:	001e5e13          	srli	t3,t3,0x1
     f28:	01cf6e33          	or	t3,t5,t3
     f2c:	008ede93          	srli	t4,t4,0x8
     f30:	01ceceb3          	xor	t4,t4,t3
     f34:	00100e37          	lui	t3,0x100
     f38:	07ce0e13          	addi	t3,t3,124 # 10007c <state_known_crc+0x24>
     f3c:	00c6e633          	or	a2,a3,a2
     f40:	001e9693          	slli	a3,t4,0x1
     f44:	01c686b3          	add	a3,a3,t3
     f48:	0006d683          	lhu	a3,0(a3)
     f4c:	00861613          	slli	a2,a2,0x8
     f50:	00855513          	srli	a0,a0,0x8
     f54:	00c6c633          	xor	a2,a3,a2
     f58:	01061e93          	slli	t4,a2,0x10
     f5c:	0ff6f693          	zext.b	a3,a3
     f60:	018ed613          	srli	a2,t4,0x18
     f64:	00869693          	slli	a3,a3,0x8
     f68:	00c6e6b3          	or	a3,a3,a2
     f6c:	00e6f633          	and	a2,a3,a4
     f70:	0066f6b3          	and	a3,a3,t1
     f74:	0046d693          	srli	a3,a3,0x4
     f78:	00461613          	slli	a2,a2,0x4
     f7c:	00d66633          	or	a2,a2,a3
     f80:	00f676b3          	and	a3,a2,a5
     f84:	01167633          	and	a2,a2,a7
     f88:	00265613          	srli	a2,a2,0x2
     f8c:	00269693          	slli	a3,a3,0x2
     f90:	00c6e6b3          	or	a3,a3,a2
     f94:	00b6f633          	and	a2,a3,a1
     f98:	0106f6b3          	and	a3,a3,a6
     f9c:	00161613          	slli	a2,a2,0x1
     fa0:	0016d693          	srli	a3,a3,0x1
     fa4:	00d666b3          	or	a3,a2,a3
     fa8:	0ff6f613          	zext.b	a2,a3
     fac:	00861613          	slli	a2,a2,0x8
     fb0:	0086d693          	srli	a3,a3,0x8
     fb4:	00d66633          	or	a2,a2,a3
     fb8:	00e676b3          	and	a3,a2,a4
     fbc:	00667eb3          	and	t4,a2,t1
     fc0:	004ede93          	srli	t4,t4,0x4
     fc4:	00f57613          	andi	a2,a0,15
     fc8:	00469693          	slli	a3,a3,0x4
     fcc:	0f057513          	andi	a0,a0,240
     fd0:	01d6e6b3          	or	a3,a3,t4
     fd4:	00455513          	srli	a0,a0,0x4
     fd8:	00461613          	slli	a2,a2,0x4
     fdc:	00a66633          	or	a2,a2,a0
     fe0:	0116feb3          	and	t4,a3,a7
     fe4:	00f6f533          	and	a0,a3,a5
     fe8:	002ede93          	srli	t4,t4,0x2
     fec:	03367693          	andi	a3,a2,51
     ff0:	00251513          	slli	a0,a0,0x2
     ff4:	0cc67613          	andi	a2,a2,204
     ff8:	01d56533          	or	a0,a0,t4
     ffc:	00265613          	srli	a2,a2,0x2
    1000:	00269693          	slli	a3,a3,0x2
    1004:	00c6e6b3          	or	a3,a3,a2
    1008:	00b57633          	and	a2,a0,a1
    100c:	01057533          	and	a0,a0,a6
    1010:	0556ff13          	andi	t5,a3,85
    1014:	00161613          	slli	a2,a2,0x1
    1018:	00155513          	srli	a0,a0,0x1
    101c:	0aa6f693          	andi	a3,a3,170
    1020:	00a66eb3          	or	t4,a2,a0
    1024:	0016d693          	srli	a3,a3,0x1
    1028:	001f1f13          	slli	t5,t5,0x1
    102c:	00df6f33          	or	t5,t5,a3
    1030:	008ed693          	srli	a3,t4,0x8
    1034:	01e6c6b3          	xor	a3,a3,t5
    1038:	00169693          	slli	a3,a3,0x1
    103c:	01c686b3          	add	a3,a3,t3
    1040:	0006d683          	lhu	a3,0(a3)
    1044:	008e9613          	slli	a2,t4,0x8
    1048:	00c6c633          	xor	a2,a3,a2
    104c:	01061513          	slli	a0,a2,0x10
    1050:	0ff6f693          	zext.b	a3,a3
    1054:	01855613          	srli	a2,a0,0x18
    1058:	00869693          	slli	a3,a3,0x8
    105c:	00c6e6b3          	or	a3,a3,a2
    1060:	00e6f733          	and	a4,a3,a4
    1064:	0066f6b3          	and	a3,a3,t1
    1068:	0046d693          	srli	a3,a3,0x4
    106c:	00471713          	slli	a4,a4,0x4
    1070:	00d76733          	or	a4,a4,a3
    1074:	00f777b3          	and	a5,a4,a5
    1078:	01177733          	and	a4,a4,a7
    107c:	00275713          	srli	a4,a4,0x2
    1080:	00279793          	slli	a5,a5,0x2
    1084:	00e7e7b3          	or	a5,a5,a4
    1088:	00b7f533          	and	a0,a5,a1
    108c:	0107f7b3          	and	a5,a5,a6
    1090:	0017d793          	srli	a5,a5,0x1
    1094:	00151513          	slli	a0,a0,0x1
    1098:	00f56533          	or	a0,a0,a5
    109c:	00008067          	ret

000010a0 <check_data_types>:
    10a0:	00000513          	li	a0,0
    10a4:	00008067          	ret

000010a8 <core_init_matrix>:
    10a8:	fb010113          	addi	sp,sp,-80
    10ac:	04912223          	sw	s1,68(sp)
    10b0:	03612823          	sw	s6,48(sp)
    10b4:	03912223          	sw	s9,36(sp)
    10b8:	04112623          	sw	ra,76(sp)
    10bc:	04812423          	sw	s0,72(sp)
    10c0:	05212023          	sw	s2,64(sp)
    10c4:	03712623          	sw	s7,44(sp)
    10c8:	00050493          	mv	s1,a0
    10cc:	00068c93          	mv	s9,a3
    10d0:	00060b13          	mv	s6,a2
    10d4:	00061463          	bnez	a2,10dc <core_init_matrix+0x34>
    10d8:	00100b13          	li	s6,1
    10dc:	fff58b93          	addi	s7,a1,-1
    10e0:	ffcbfb93          	andi	s7,s7,-4
    10e4:	004b8793          	addi	a5,s7,4
    10e8:	00f12223          	sw	a5,4(sp)
    10ec:	00000413          	li	s0,0
    10f0:	14048663          	beqz	s1,123c <core_init_matrix+0x194>
    10f4:	00040913          	mv	s2,s0
    10f8:	00140413          	addi	s0,s0,1
    10fc:	00040593          	mv	a1,s0
    1100:	00040513          	mv	a0,s0
    1104:	611030ef          	jal	4f14 <__mulsi3>
    1108:	00351513          	slli	a0,a0,0x3
    110c:	fe9564e3          	bltu	a0,s1,10f4 <core_init_matrix+0x4c>
    1110:	00090593          	mv	a1,s2
    1114:	00090513          	mv	a0,s2
    1118:	5fd030ef          	jal	4f14 <__mulsi3>
    111c:	00151793          	slli	a5,a0,0x1
    1120:	00f12423          	sw	a5,8(sp)
    1124:	00812703          	lw	a4,8(sp)
    1128:	00412783          	lw	a5,4(sp)
    112c:	00e78bb3          	add	s7,a5,a4
    1130:	14090063          	beqz	s2,1270 <core_init_matrix+0x1c8>
    1134:	03312e23          	sw	s3,60(sp)
    1138:	03412c23          	sw	s4,56(sp)
    113c:	03512a23          	sw	s5,52(sp)
    1140:	03812423          	sw	s8,40(sp)
    1144:	03a12023          	sw	s10,32(sp)
    1148:	01b12e23          	sw	s11,28(sp)
    114c:	01212623          	sw	s2,12(sp)
    1150:	00412783          	lw	a5,4(sp)
    1154:	00190413          	addi	s0,s2,1
    1158:	00191c13          	slli	s8,s2,0x1
    115c:	000b8a13          	mv	s4,s7
    1160:	00000993          	li	s3,0
    1164:	00100d93          	li	s11,1
    1168:	417784b3          	sub	s1,a5,s7
    116c:	000d8a93          	mv	s5,s11
    1170:	000a0d13          	mv	s10,s4
    1174:	000b0513          	mv	a0,s6
    1178:	000d8593          	mv	a1,s11
    117c:	599030ef          	jal	4f14 <__mulsi3>
    1180:	41f55793          	srai	a5,a0,0x1f
    1184:	0107d793          	srli	a5,a5,0x10
    1188:	00f50633          	add	a2,a0,a5
    118c:	01061613          	slli	a2,a2,0x10
    1190:	01065613          	srli	a2,a2,0x10
    1194:	40f60b33          	sub	s6,a2,a5
    1198:	016d86b3          	add	a3,s11,s6
    119c:	01b687b3          	add	a5,a3,s11
    11a0:	01a48533          	add	a0,s1,s10
    11a4:	00dd1023          	sh	a3,0(s10)
    11a8:	0ff7f793          	zext.b	a5,a5
    11ac:	001d8d93          	addi	s11,s11,1
    11b0:	00f51023          	sh	a5,0(a0)
    11b4:	002d0d13          	addi	s10,s10,2
    11b8:	fa8d9ee3          	bne	s11,s0,1174 <core_init_matrix+0xcc>
    11bc:	00198993          	addi	s3,s3,1
    11c0:	01590db3          	add	s11,s2,s5
    11c4:	01240433          	add	s0,s0,s2
    11c8:	018a0a33          	add	s4,s4,s8
    11cc:	fb2990e3          	bne	s3,s2,116c <core_init_matrix+0xc4>
    11d0:	03c12983          	lw	s3,60(sp)
    11d4:	03812a03          	lw	s4,56(sp)
    11d8:	03412a83          	lw	s5,52(sp)
    11dc:	02812c03          	lw	s8,40(sp)
    11e0:	02012d03          	lw	s10,32(sp)
    11e4:	01c12d83          	lw	s11,28(sp)
    11e8:	00812783          	lw	a5,8(sp)
    11ec:	04c12083          	lw	ra,76(sp)
    11f0:	04812403          	lw	s0,72(sp)
    11f4:	00fb87b3          	add	a5,s7,a5
    11f8:	fff78793          	addi	a5,a5,-1
    11fc:	ffc7f793          	andi	a5,a5,-4
    1200:	00478793          	addi	a5,a5,4
    1204:	00fca623          	sw	a5,12(s9)
    1208:	00412783          	lw	a5,4(sp)
    120c:	017ca423          	sw	s7,8(s9)
    1210:	04412483          	lw	s1,68(sp)
    1214:	00fca223          	sw	a5,4(s9)
    1218:	00c12783          	lw	a5,12(sp)
    121c:	03012b03          	lw	s6,48(sp)
    1220:	02c12b83          	lw	s7,44(sp)
    1224:	00fca023          	sw	a5,0(s9)
    1228:	00090513          	mv	a0,s2
    122c:	02412c83          	lw	s9,36(sp)
    1230:	04012903          	lw	s2,64(sp)
    1234:	05010113          	addi	sp,sp,80
    1238:	00008067          	ret
    123c:	fff00793          	li	a5,-1
    1240:	00f12623          	sw	a5,12(sp)
    1244:	00078913          	mv	s2,a5
    1248:	00200793          	li	a5,2
    124c:	03312e23          	sw	s3,60(sp)
    1250:	03412c23          	sw	s4,56(sp)
    1254:	03512a23          	sw	s5,52(sp)
    1258:	03812423          	sw	s8,40(sp)
    125c:	03a12023          	sw	s10,32(sp)
    1260:	01b12e23          	sw	s11,28(sp)
    1264:	006b8b93          	addi	s7,s7,6
    1268:	00f12423          	sw	a5,8(sp)
    126c:	ee5ff06f          	j	1150 <core_init_matrix+0xa8>
    1270:	00012423          	sw	zero,8(sp)
    1274:	00012623          	sw	zero,12(sp)
    1278:	f71ff06f          	j	11e8 <core_init_matrix+0x140>

0000127c <matrix_sum>:
    127c:	00050e93          	mv	t4,a0
    1280:	06050a63          	beqz	a0,12f4 <matrix_sum+0x78>
    1284:	00251e13          	slli	t3,a0,0x2
    1288:	01c588b3          	add	a7,a1,t3
    128c:	00000313          	li	t1,0
    1290:	00000513          	li	a0,0
    1294:	00000713          	li	a4,0
    1298:	00000693          	li	a3,0
    129c:	41c887b3          	sub	a5,a7,t3
    12a0:	0180006f          	j	12b8 <matrix_sum+0x3c>
    12a4:	00b50833          	add	a6,a0,a1
    12a8:	01081513          	slli	a0,a6,0x10
    12ac:	00478793          	addi	a5,a5,4
    12b0:	41055513          	srai	a0,a0,0x10
    12b4:	02f88863          	beq	a7,a5,12e4 <matrix_sum+0x68>
    12b8:	00070593          	mv	a1,a4
    12bc:	0007a703          	lw	a4,0(a5)
    12c0:	00a50813          	addi	a6,a0,10
    12c4:	00e686b3          	add	a3,a3,a4
    12c8:	00e5a5b3          	slt	a1,a1,a4
    12cc:	fcd65ce3          	bge	a2,a3,12a4 <matrix_sum+0x28>
    12d0:	01081513          	slli	a0,a6,0x10
    12d4:	00478793          	addi	a5,a5,4
    12d8:	00000693          	li	a3,0
    12dc:	41055513          	srai	a0,a0,0x10
    12e0:	fcf89ce3          	bne	a7,a5,12b8 <matrix_sum+0x3c>
    12e4:	00130313          	addi	t1,t1,1
    12e8:	01c888b3          	add	a7,a7,t3
    12ec:	fa6e98e3          	bne	t4,t1,129c <matrix_sum+0x20>
    12f0:	00008067          	ret
    12f4:	00000513          	li	a0,0
    12f8:	00008067          	ret

000012fc <matrix_mul_const>:
    12fc:	0a050a63          	beqz	a0,13b0 <matrix_mul_const+0xb4>
    1300:	fd010113          	addi	sp,sp,-48
    1304:	01812423          	sw	s8,8(sp)
    1308:	00151c13          	slli	s8,a0,0x1
    130c:	03212023          	sw	s2,32(sp)
    1310:	01312e23          	sw	s3,28(sp)
    1314:	01412c23          	sw	s4,24(sp)
    1318:	01512a23          	sw	s5,20(sp)
    131c:	01612823          	sw	s6,16(sp)
    1320:	01712623          	sw	s7,12(sp)
    1324:	02112623          	sw	ra,44(sp)
    1328:	02812423          	sw	s0,40(sp)
    132c:	02912223          	sw	s1,36(sp)
    1330:	00068993          	mv	s3,a3
    1334:	00058b93          	mv	s7,a1
    1338:	00050b13          	mv	s6,a0
    133c:	01860933          	add	s2,a2,s8
    1340:	00000a93          	li	s5,0
    1344:	00000a13          	li	s4,0
    1348:	002a9493          	slli	s1,s5,0x2
    134c:	009b84b3          	add	s1,s7,s1
    1350:	41890433          	sub	s0,s2,s8
    1354:	00041503          	lh	a0,0(s0)
    1358:	00098593          	mv	a1,s3
    135c:	00240413          	addi	s0,s0,2
    1360:	3b5030ef          	jal	4f14 <__mulsi3>
    1364:	00a4a023          	sw	a0,0(s1)
    1368:	00448493          	addi	s1,s1,4
    136c:	fe8914e3          	bne	s2,s0,1354 <matrix_mul_const+0x58>
    1370:	001a0a13          	addi	s4,s4,1
    1374:	016a8ab3          	add	s5,s5,s6
    1378:	01890933          	add	s2,s2,s8
    137c:	fd4b16e3          	bne	s6,s4,1348 <matrix_mul_const+0x4c>
    1380:	02c12083          	lw	ra,44(sp)
    1384:	02812403          	lw	s0,40(sp)
    1388:	02412483          	lw	s1,36(sp)
    138c:	02012903          	lw	s2,32(sp)
    1390:	01c12983          	lw	s3,28(sp)
    1394:	01812a03          	lw	s4,24(sp)
    1398:	01412a83          	lw	s5,20(sp)
    139c:	01012b03          	lw	s6,16(sp)
    13a0:	00c12b83          	lw	s7,12(sp)
    13a4:	00812c03          	lw	s8,8(sp)
    13a8:	03010113          	addi	sp,sp,48
    13ac:	00008067          	ret
    13b0:	00008067          	ret

000013b4 <matrix_add_const>:
    13b4:	02050a63          	beqz	a0,13e8 <matrix_add_const+0x34>
    13b8:	00151813          	slli	a6,a0,0x1
    13bc:	010586b3          	add	a3,a1,a6
    13c0:	00000593          	li	a1,0
    13c4:	410687b3          	sub	a5,a3,a6
    13c8:	0007d703          	lhu	a4,0(a5)
    13cc:	00278793          	addi	a5,a5,2
    13d0:	00e60733          	add	a4,a2,a4
    13d4:	fee79f23          	sh	a4,-2(a5)
    13d8:	fef698e3          	bne	a3,a5,13c8 <matrix_add_const+0x14>
    13dc:	00158593          	addi	a1,a1,1
    13e0:	010686b3          	add	a3,a3,a6
    13e4:	feb510e3          	bne	a0,a1,13c4 <matrix_add_const+0x10>
    13e8:	00008067          	ret

000013ec <matrix_mul_vect>:
    13ec:	0c050463          	beqz	a0,14b4 <matrix_mul_vect+0xc8>
    13f0:	fd010113          	addi	sp,sp,-48
    13f4:	01312e23          	sw	s3,28(sp)
    13f8:	01812423          	sw	s8,8(sp)
    13fc:	00151993          	slli	s3,a0,0x1
    1400:	00251c13          	slli	s8,a0,0x2
    1404:	01412c23          	sw	s4,24(sp)
    1408:	01512a23          	sw	s5,20(sp)
    140c:	01612823          	sw	s6,16(sp)
    1410:	01712623          	sw	s7,12(sp)
    1414:	01912223          	sw	s9,4(sp)
    1418:	02112623          	sw	ra,44(sp)
    141c:	02812423          	sw	s0,40(sp)
    1420:	02912223          	sw	s1,36(sp)
    1424:	03212023          	sw	s2,32(sp)
    1428:	00068b13          	mv	s6,a3
    142c:	00060b93          	mv	s7,a2
    1430:	00050a93          	mv	s5,a0
    1434:	00058a13          	mv	s4,a1
    1438:	01858c33          	add	s8,a1,s8
    143c:	013689b3          	add	s3,a3,s3
    1440:	00000c93          	li	s9,0
    1444:	001c9493          	slli	s1,s9,0x1
    1448:	009b84b3          	add	s1,s7,s1
    144c:	000b0413          	mv	s0,s6
    1450:	00000913          	li	s2,0
    1454:	00041583          	lh	a1,0(s0)
    1458:	00049503          	lh	a0,0(s1)
    145c:	00240413          	addi	s0,s0,2
    1460:	00248493          	addi	s1,s1,2
    1464:	2b1030ef          	jal	4f14 <__mulsi3>
    1468:	00a90933          	add	s2,s2,a0
    146c:	fe8994e3          	bne	s3,s0,1454 <matrix_mul_vect+0x68>
    1470:	012a2023          	sw	s2,0(s4)
    1474:	004a0a13          	addi	s4,s4,4
    1478:	015c8cb3          	add	s9,s9,s5
    147c:	fd4c14e3          	bne	s8,s4,1444 <matrix_mul_vect+0x58>
    1480:	02c12083          	lw	ra,44(sp)
    1484:	02812403          	lw	s0,40(sp)
    1488:	02412483          	lw	s1,36(sp)
    148c:	02012903          	lw	s2,32(sp)
    1490:	01c12983          	lw	s3,28(sp)
    1494:	01812a03          	lw	s4,24(sp)
    1498:	01412a83          	lw	s5,20(sp)
    149c:	01012b03          	lw	s6,16(sp)
    14a0:	00c12b83          	lw	s7,12(sp)
    14a4:	00812c03          	lw	s8,8(sp)
    14a8:	00412c83          	lw	s9,4(sp)
    14ac:	03010113          	addi	sp,sp,48
    14b0:	00008067          	ret
    14b4:	00008067          	ret

000014b8 <matrix_mul_matrix>:
    14b8:	10050463          	beqz	a0,15c0 <matrix_mul_matrix+0x108>
    14bc:	fb010113          	addi	sp,sp,-80
    14c0:	04912223          	sw	s1,68(sp)
    14c4:	00151493          	slli	s1,a0,0x1
    14c8:	05212023          	sw	s2,64(sp)
    14cc:	03612823          	sw	s6,48(sp)
    14d0:	03712623          	sw	s7,44(sp)
    14d4:	03812423          	sw	s8,40(sp)
    14d8:	03912223          	sw	s9,36(sp)
    14dc:	04112623          	sw	ra,76(sp)
    14e0:	04812423          	sw	s0,72(sp)
    14e4:	03312e23          	sw	s3,60(sp)
    14e8:	03412c23          	sw	s4,56(sp)
    14ec:	03512a23          	sw	s5,52(sp)
    14f0:	03a12023          	sw	s10,32(sp)
    14f4:	01b12e23          	sw	s11,28(sp)
    14f8:	00d12623          	sw	a3,12(sp)
    14fc:	00b12423          	sw	a1,8(sp)
    1500:	00050b93          	mv	s7,a0
    1504:	00060b13          	mv	s6,a2
    1508:	00960933          	add	s2,a2,s1
    150c:	00000c13          	li	s8,0
    1510:	00000c93          	li	s9,0
    1514:	00812783          	lw	a5,8(sp)
    1518:	00c12a03          	lw	s4,12(sp)
    151c:	002c1993          	slli	s3,s8,0x2
    1520:	013789b3          	add	s3,a5,s3
    1524:	00000a93          	li	s5,0
    1528:	000a0d93          	mv	s11,s4
    152c:	000b0413          	mv	s0,s6
    1530:	00000d13          	li	s10,0
    1534:	000d9583          	lh	a1,0(s11)
    1538:	00041503          	lh	a0,0(s0)
    153c:	00240413          	addi	s0,s0,2
    1540:	009d8db3          	add	s11,s11,s1
    1544:	1d1030ef          	jal	4f14 <__mulsi3>
    1548:	00ad0d33          	add	s10,s10,a0
    154c:	fe8914e3          	bne	s2,s0,1534 <matrix_mul_matrix+0x7c>
    1550:	01a9a023          	sw	s10,0(s3)
    1554:	001a8793          	addi	a5,s5,1
    1558:	00498993          	addi	s3,s3,4
    155c:	002a0a13          	addi	s4,s4,2
    1560:	00fb8663          	beq	s7,a5,156c <matrix_mul_matrix+0xb4>
    1564:	00078a93          	mv	s5,a5
    1568:	fc1ff06f          	j	1528 <matrix_mul_matrix+0x70>
    156c:	009b0b33          	add	s6,s6,s1
    1570:	017c0c33          	add	s8,s8,s7
    1574:	00990933          	add	s2,s2,s1
    1578:	015c8663          	beq	s9,s5,1584 <matrix_mul_matrix+0xcc>
    157c:	001c8c93          	addi	s9,s9,1
    1580:	f95ff06f          	j	1514 <matrix_mul_matrix+0x5c>
    1584:	04c12083          	lw	ra,76(sp)
    1588:	04812403          	lw	s0,72(sp)
    158c:	04412483          	lw	s1,68(sp)
    1590:	04012903          	lw	s2,64(sp)
    1594:	03c12983          	lw	s3,60(sp)
    1598:	03812a03          	lw	s4,56(sp)
    159c:	03412a83          	lw	s5,52(sp)
    15a0:	03012b03          	lw	s6,48(sp)
    15a4:	02c12b83          	lw	s7,44(sp)
    15a8:	02812c03          	lw	s8,40(sp)
    15ac:	02412c83          	lw	s9,36(sp)
    15b0:	02012d03          	lw	s10,32(sp)
    15b4:	01c12d83          	lw	s11,28(sp)
    15b8:	05010113          	addi	sp,sp,80
    15bc:	00008067          	ret
    15c0:	00008067          	ret

000015c4 <matrix_mul_matrix_bitextract>:
    15c4:	10050e63          	beqz	a0,16e0 <matrix_mul_matrix_bitextract+0x11c>
    15c8:	fb010113          	addi	sp,sp,-80
    15cc:	04812423          	sw	s0,72(sp)
    15d0:	00151413          	slli	s0,a0,0x1
    15d4:	04912223          	sw	s1,68(sp)
    15d8:	03512a23          	sw	s5,52(sp)
    15dc:	03612823          	sw	s6,48(sp)
    15e0:	03712623          	sw	s7,44(sp)
    15e4:	03812423          	sw	s8,40(sp)
    15e8:	04112623          	sw	ra,76(sp)
    15ec:	05212023          	sw	s2,64(sp)
    15f0:	03312e23          	sw	s3,60(sp)
    15f4:	03412c23          	sw	s4,56(sp)
    15f8:	03912223          	sw	s9,36(sp)
    15fc:	03a12023          	sw	s10,32(sp)
    1600:	01b12e23          	sw	s11,28(sp)
    1604:	00d12623          	sw	a3,12(sp)
    1608:	00b12423          	sw	a1,8(sp)
    160c:	00050b13          	mv	s6,a0
    1610:	00060a93          	mv	s5,a2
    1614:	008604b3          	add	s1,a2,s0
    1618:	00000b93          	li	s7,0
    161c:	00000c13          	li	s8,0
    1620:	00812783          	lw	a5,8(sp)
    1624:	00c12983          	lw	s3,12(sp)
    1628:	002b9913          	slli	s2,s7,0x2
    162c:	01278933          	add	s2,a5,s2
    1630:	00000a13          	li	s4,0
    1634:	00098d13          	mv	s10,s3
    1638:	000a8d93          	mv	s11,s5
    163c:	00000c93          	li	s9,0
    1640:	000d1583          	lh	a1,0(s10)
    1644:	000d9503          	lh	a0,0(s11)
    1648:	002d8d93          	addi	s11,s11,2
    164c:	008d0d33          	add	s10,s10,s0
    1650:	0c5030ef          	jal	4f14 <__mulsi3>
    1654:	40255693          	srai	a3,a0,0x2
    1658:	40555593          	srai	a1,a0,0x5
    165c:	07f5f593          	andi	a1,a1,127
    1660:	00f6f513          	andi	a0,a3,15
    1664:	0b1030ef          	jal	4f14 <__mulsi3>
    1668:	00ac8cb3          	add	s9,s9,a0
    166c:	fdb49ae3          	bne	s1,s11,1640 <matrix_mul_matrix_bitextract+0x7c>
    1670:	01992023          	sw	s9,0(s2)
    1674:	001a0793          	addi	a5,s4,1
    1678:	00490913          	addi	s2,s2,4
    167c:	00298993          	addi	s3,s3,2
    1680:	00fb0663          	beq	s6,a5,168c <matrix_mul_matrix_bitextract+0xc8>
    1684:	00078a13          	mv	s4,a5
    1688:	fadff06f          	j	1634 <matrix_mul_matrix_bitextract+0x70>
    168c:	008a8ab3          	add	s5,s5,s0
    1690:	016b8bb3          	add	s7,s7,s6
    1694:	008484b3          	add	s1,s1,s0
    1698:	014c0663          	beq	s8,s4,16a4 <matrix_mul_matrix_bitextract+0xe0>
    169c:	001c0c13          	addi	s8,s8,1
    16a0:	f81ff06f          	j	1620 <matrix_mul_matrix_bitextract+0x5c>
    16a4:	04c12083          	lw	ra,76(sp)
    16a8:	04812403          	lw	s0,72(sp)
    16ac:	04412483          	lw	s1,68(sp)
    16b0:	04012903          	lw	s2,64(sp)
    16b4:	03c12983          	lw	s3,60(sp)
    16b8:	03812a03          	lw	s4,56(sp)
    16bc:	03412a83          	lw	s5,52(sp)
    16c0:	03012b03          	lw	s6,48(sp)
    16c4:	02c12b83          	lw	s7,44(sp)
    16c8:	02812c03          	lw	s8,40(sp)
    16cc:	02412c83          	lw	s9,36(sp)
    16d0:	02012d03          	lw	s10,32(sp)
    16d4:	01c12d83          	lw	s11,28(sp)
    16d8:	05010113          	addi	sp,sp,80
    16dc:	00008067          	ret
    16e0:	00008067          	ret

000016e4 <matrix_test>:
    16e4:	fb010113          	addi	sp,sp,-80
    16e8:	03312e23          	sw	s3,60(sp)
    16ec:	03412c23          	sw	s4,56(sp)
    16f0:	04112623          	sw	ra,76(sp)
    16f4:	04812423          	sw	s0,72(sp)
    16f8:	04912223          	sw	s1,68(sp)
    16fc:	00d12623          	sw	a3,12(sp)
    1700:	00058a13          	mv	s4,a1
    1704:	00060993          	mv	s3,a2
    1708:	36050063          	beqz	a0,1a68 <matrix_test+0x384>
    170c:	03812423          	sw	s8,40(sp)
    1710:	00151c13          	slli	s8,a0,0x1
    1714:	05212023          	sw	s2,64(sp)
    1718:	03712623          	sw	s7,44(sp)
    171c:	03912223          	sw	s9,36(sp)
    1720:	01860bb3          	add	s7,a2,s8
    1724:	00070c93          	mv	s9,a4
    1728:	fffff937          	lui	s2,0xfffff
    172c:	03612823          	sw	s6,48(sp)
    1730:	03512a23          	sw	s5,52(sp)
    1734:	03a12023          	sw	s10,32(sp)
    1738:	01b12e23          	sw	s11,28(sp)
    173c:	000b8713          	mv	a4,s7
    1740:	012ce933          	or	s2,s9,s2
    1744:	00000b13          	li	s6,0
    1748:	418707b3          	sub	a5,a4,s8
    174c:	0007d683          	lhu	a3,0(a5)
    1750:	00278793          	addi	a5,a5,2
    1754:	00dc86b3          	add	a3,s9,a3
    1758:	fed79f23          	sh	a3,-2(a5)
    175c:	fee798e3          	bne	a5,a4,174c <matrix_test+0x68>
    1760:	001b0413          	addi	s0,s6,1
    1764:	01878733          	add	a4,a5,s8
    1768:	00850663          	beq	a0,s0,1774 <matrix_test+0x90>
    176c:	00040b13          	mv	s6,s0
    1770:	fd9ff06f          	j	1748 <matrix_test+0x64>
    1774:	00000d13          	li	s10,0
    1778:	00000d93          	li	s11,0
    177c:	002d1793          	slli	a5,s10,0x2
    1780:	00fa0ab3          	add	s5,s4,a5
    1784:	418b84b3          	sub	s1,s7,s8
    1788:	00049503          	lh	a0,0(s1)
    178c:	000c8593          	mv	a1,s9
    1790:	00248493          	addi	s1,s1,2
    1794:	780030ef          	jal	4f14 <__mulsi3>
    1798:	00aaa023          	sw	a0,0(s5)
    179c:	004a8a93          	addi	s5,s5,4
    17a0:	fe9b94e3          	bne	s7,s1,1788 <matrix_test+0xa4>
    17a4:	008d0d33          	add	s10,s10,s0
    17a8:	018b8bb3          	add	s7,s7,s8
    17ac:	016d8663          	beq	s11,s6,17b8 <matrix_test+0xd4>
    17b0:	001d8d93          	addi	s11,s11,1
    17b4:	fc9ff06f          	j	177c <matrix_test+0x98>
    17b8:	00241c13          	slli	s8,s0,0x2
    17bc:	018a0bb3          	add	s7,s4,s8
    17c0:	000b8813          	mv	a6,s7
    17c4:	00000693          	li	a3,0
    17c8:	00000713          	li	a4,0
    17cc:	00000513          	li	a0,0
    17d0:	00000893          	li	a7,0
    17d4:	418807b3          	sub	a5,a6,s8
    17d8:	0180006f          	j	17f0 <matrix_test+0x10c>
    17dc:	00c505b3          	add	a1,a0,a2
    17e0:	01059513          	slli	a0,a1,0x10
    17e4:	00478793          	addi	a5,a5,4
    17e8:	41055513          	srai	a0,a0,0x10
    17ec:	02f80863          	beq	a6,a5,181c <matrix_test+0x138>
    17f0:	00068613          	mv	a2,a3
    17f4:	0007a683          	lw	a3,0(a5)
    17f8:	00a50593          	addi	a1,a0,10
    17fc:	00d70733          	add	a4,a4,a3
    1800:	00d62633          	slt	a2,a2,a3
    1804:	fce95ce3          	bge	s2,a4,17dc <matrix_test+0xf8>
    1808:	01059513          	slli	a0,a1,0x10
    180c:	00478793          	addi	a5,a5,4
    1810:	00000713          	li	a4,0
    1814:	41055513          	srai	a0,a0,0x10
    1818:	fcf81ce3          	bne	a6,a5,17f0 <matrix_test+0x10c>
    181c:	01880833          	add	a6,a6,s8
    1820:	011b0663          	beq	s6,a7,182c <matrix_test+0x148>
    1824:	00188893          	addi	a7,a7,1
    1828:	fadff06f          	j	17d4 <matrix_test+0xf0>
    182c:	00000593          	li	a1,0
    1830:	e44ff0ef          	jal	e74 <crc16>
    1834:	00c12683          	lw	a3,12(sp)
    1838:	00050493          	mv	s1,a0
    183c:	00098613          	mv	a2,s3
    1840:	00040513          	mv	a0,s0
    1844:	000a0593          	mv	a1,s4
    1848:	ba5ff0ef          	jal	13ec <matrix_mul_vect>
    184c:	00000693          	li	a3,0
    1850:	00000713          	li	a4,0
    1854:	00000513          	li	a0,0
    1858:	00000813          	li	a6,0
    185c:	418b87b3          	sub	a5,s7,s8
    1860:	0180006f          	j	1878 <matrix_test+0x194>
    1864:	00c505b3          	add	a1,a0,a2
    1868:	01059513          	slli	a0,a1,0x10
    186c:	00478793          	addi	a5,a5,4
    1870:	41055513          	srai	a0,a0,0x10
    1874:	03778863          	beq	a5,s7,18a4 <matrix_test+0x1c0>
    1878:	00068613          	mv	a2,a3
    187c:	0007a683          	lw	a3,0(a5)
    1880:	00a50593          	addi	a1,a0,10
    1884:	00d70733          	add	a4,a4,a3
    1888:	00d62633          	slt	a2,a2,a3
    188c:	fce95ce3          	bge	s2,a4,1864 <matrix_test+0x180>
    1890:	01059513          	slli	a0,a1,0x10
    1894:	00478793          	addi	a5,a5,4
    1898:	00000713          	li	a4,0
    189c:	41055513          	srai	a0,a0,0x10
    18a0:	fd779ce3          	bne	a5,s7,1878 <matrix_test+0x194>
    18a4:	01878bb3          	add	s7,a5,s8
    18a8:	01680663          	beq	a6,s6,18b4 <matrix_test+0x1d0>
    18ac:	00180813          	addi	a6,a6,1
    18b0:	fadff06f          	j	185c <matrix_test+0x178>
    18b4:	00048593          	mv	a1,s1
    18b8:	dbcff0ef          	jal	e74 <crc16>
    18bc:	00c12683          	lw	a3,12(sp)
    18c0:	00050493          	mv	s1,a0
    18c4:	00098613          	mv	a2,s3
    18c8:	00040513          	mv	a0,s0
    18cc:	000a0593          	mv	a1,s4
    18d0:	be9ff0ef          	jal	14b8 <matrix_mul_matrix>
    18d4:	00000313          	li	t1,0
    18d8:	00000793          	li	a5,0
    18dc:	00000713          	li	a4,0
    18e0:	00000513          	li	a0,0
    18e4:	00000893          	li	a7,0
    18e8:	00231613          	slli	a2,t1,0x2
    18ec:	00ca0633          	add	a2,s4,a2
    18f0:	00000593          	li	a1,0
    18f4:	01c0006f          	j	1910 <matrix_test+0x22c>
    18f8:	00d50833          	add	a6,a0,a3
    18fc:	01081513          	slli	a0,a6,0x10
    1900:	00158593          	addi	a1,a1,1
    1904:	41055513          	srai	a0,a0,0x10
    1908:	00460613          	addi	a2,a2,4
    190c:	0285fa63          	bgeu	a1,s0,1940 <matrix_test+0x25c>
    1910:	00078693          	mv	a3,a5
    1914:	00062783          	lw	a5,0(a2)
    1918:	00a50813          	addi	a6,a0,10
    191c:	00f70733          	add	a4,a4,a5
    1920:	00f6a6b3          	slt	a3,a3,a5
    1924:	fce95ae3          	bge	s2,a4,18f8 <matrix_test+0x214>
    1928:	01081513          	slli	a0,a6,0x10
    192c:	00158593          	addi	a1,a1,1
    1930:	00000713          	li	a4,0
    1934:	41055513          	srai	a0,a0,0x10
    1938:	00460613          	addi	a2,a2,4
    193c:	fc85eae3          	bltu	a1,s0,1910 <matrix_test+0x22c>
    1940:	00188893          	addi	a7,a7,1
    1944:	00830333          	add	t1,t1,s0
    1948:	fa88e0e3          	bltu	a7,s0,18e8 <matrix_test+0x204>
    194c:	00048593          	mv	a1,s1
    1950:	d24ff0ef          	jal	e74 <crc16>
    1954:	00c12683          	lw	a3,12(sp)
    1958:	00050493          	mv	s1,a0
    195c:	00098613          	mv	a2,s3
    1960:	00040513          	mv	a0,s0
    1964:	000a0593          	mv	a1,s4
    1968:	c5dff0ef          	jal	15c4 <matrix_mul_matrix_bitextract>
    196c:	00000313          	li	t1,0
    1970:	00000793          	li	a5,0
    1974:	00000713          	li	a4,0
    1978:	00000513          	li	a0,0
    197c:	00000893          	li	a7,0
    1980:	00231613          	slli	a2,t1,0x2
    1984:	00ca0633          	add	a2,s4,a2
    1988:	00000593          	li	a1,0
    198c:	01c0006f          	j	19a8 <matrix_test+0x2c4>
    1990:	00d50833          	add	a6,a0,a3
    1994:	01081513          	slli	a0,a6,0x10
    1998:	00158593          	addi	a1,a1,1
    199c:	41055513          	srai	a0,a0,0x10
    19a0:	00460613          	addi	a2,a2,4
    19a4:	0285fa63          	bgeu	a1,s0,19d8 <matrix_test+0x2f4>
    19a8:	00078693          	mv	a3,a5
    19ac:	00062783          	lw	a5,0(a2)
    19b0:	00a50813          	addi	a6,a0,10
    19b4:	00f70733          	add	a4,a4,a5
    19b8:	00f6a6b3          	slt	a3,a3,a5
    19bc:	fce95ae3          	bge	s2,a4,1990 <matrix_test+0x2ac>
    19c0:	01081513          	slli	a0,a6,0x10
    19c4:	00158593          	addi	a1,a1,1
    19c8:	00000713          	li	a4,0
    19cc:	41055513          	srai	a0,a0,0x10
    19d0:	00460613          	addi	a2,a2,4
    19d4:	fc85eae3          	bltu	a1,s0,19a8 <matrix_test+0x2c4>
    19d8:	00188893          	addi	a7,a7,1
    19dc:	00830333          	add	t1,t1,s0
    19e0:	fa88e0e3          	bltu	a7,s0,1980 <matrix_test+0x29c>
    19e4:	00048593          	mv	a1,s1
    19e8:	c8cff0ef          	jal	e74 <crc16>
    19ec:	00000593          	li	a1,0
    19f0:	00000613          	li	a2,0
    19f4:	00159793          	slli	a5,a1,0x1
    19f8:	00f987b3          	add	a5,s3,a5
    19fc:	00000713          	li	a4,0
    1a00:	0007d683          	lhu	a3,0(a5)
    1a04:	00170713          	addi	a4,a4,1
    1a08:	00278793          	addi	a5,a5,2
    1a0c:	419686b3          	sub	a3,a3,s9
    1a10:	fed79f23          	sh	a3,-2(a5)
    1a14:	fe8766e3          	bltu	a4,s0,1a00 <matrix_test+0x31c>
    1a18:	00160613          	addi	a2,a2,1
    1a1c:	008585b3          	add	a1,a1,s0
    1a20:	fc866ae3          	bltu	a2,s0,19f4 <matrix_test+0x310>
    1a24:	04012903          	lw	s2,64(sp)
    1a28:	03412a83          	lw	s5,52(sp)
    1a2c:	03012b03          	lw	s6,48(sp)
    1a30:	02c12b83          	lw	s7,44(sp)
    1a34:	02812c03          	lw	s8,40(sp)
    1a38:	02412c83          	lw	s9,36(sp)
    1a3c:	02012d03          	lw	s10,32(sp)
    1a40:	01c12d83          	lw	s11,28(sp)
    1a44:	04c12083          	lw	ra,76(sp)
    1a48:	04812403          	lw	s0,72(sp)
    1a4c:	01051513          	slli	a0,a0,0x10
    1a50:	04412483          	lw	s1,68(sp)
    1a54:	03c12983          	lw	s3,60(sp)
    1a58:	03812a03          	lw	s4,56(sp)
    1a5c:	41055513          	srai	a0,a0,0x10
    1a60:	05010113          	addi	sp,sp,80
    1a64:	00008067          	ret
    1a68:	00000593          	li	a1,0
    1a6c:	c08ff0ef          	jal	e74 <crc16>
    1a70:	00c12483          	lw	s1,12(sp)
    1a74:	00098613          	mv	a2,s3
    1a78:	00050413          	mv	s0,a0
    1a7c:	00048693          	mv	a3,s1
    1a80:	000a0593          	mv	a1,s4
    1a84:	00000513          	li	a0,0
    1a88:	965ff0ef          	jal	13ec <matrix_mul_vect>
    1a8c:	00040593          	mv	a1,s0
    1a90:	00000513          	li	a0,0
    1a94:	be0ff0ef          	jal	e74 <crc16>
    1a98:	00048693          	mv	a3,s1
    1a9c:	00098613          	mv	a2,s3
    1aa0:	00050413          	mv	s0,a0
    1aa4:	000a0593          	mv	a1,s4
    1aa8:	00000513          	li	a0,0
    1aac:	a0dff0ef          	jal	14b8 <matrix_mul_matrix>
    1ab0:	00040593          	mv	a1,s0
    1ab4:	00000513          	li	a0,0
    1ab8:	bbcff0ef          	jal	e74 <crc16>
    1abc:	00050413          	mv	s0,a0
    1ac0:	000a0593          	mv	a1,s4
    1ac4:	00048693          	mv	a3,s1
    1ac8:	00098613          	mv	a2,s3
    1acc:	00000513          	li	a0,0
    1ad0:	af5ff0ef          	jal	15c4 <matrix_mul_matrix_bitextract>
    1ad4:	00040593          	mv	a1,s0
    1ad8:	00000513          	li	a0,0
    1adc:	b98ff0ef          	jal	e74 <crc16>
    1ae0:	f65ff06f          	j	1a44 <matrix_test+0x360>

00001ae4 <core_bench_matrix>:
    1ae4:	ff010113          	addi	sp,sp,-16
    1ae8:	00812423          	sw	s0,8(sp)
    1aec:	00852683          	lw	a3,8(a0)
    1af0:	00060413          	mv	s0,a2
    1af4:	00058713          	mv	a4,a1
    1af8:	00452603          	lw	a2,4(a0)
    1afc:	00c52583          	lw	a1,12(a0)
    1b00:	00052503          	lw	a0,0(a0)
    1b04:	00112623          	sw	ra,12(sp)
    1b08:	bddff0ef          	jal	16e4 <matrix_test>
    1b0c:	00040593          	mv	a1,s0
    1b10:	00812403          	lw	s0,8(sp)
    1b14:	00c12083          	lw	ra,12(sp)
    1b18:	01010113          	addi	sp,sp,16
    1b1c:	b58ff06f          	j	e74 <crc16>

00001b20 <cmp_idx>:
    1b20:	00060a63          	beqz	a2,1b34 <cmp_idx+0x14>
    1b24:	00251503          	lh	a0,2(a0)
    1b28:	00259783          	lh	a5,2(a1)
    1b2c:	40f50533          	sub	a0,a0,a5
    1b30:	00008067          	ret
    1b34:	00051783          	lh	a5,0(a0)
    1b38:	01079693          	slli	a3,a5,0x10
    1b3c:	f007f713          	andi	a4,a5,-256
    1b40:	0186d793          	srli	a5,a3,0x18
    1b44:	00f767b3          	or	a5,a4,a5
    1b48:	00f51023          	sh	a5,0(a0)
    1b4c:	00059783          	lh	a5,0(a1)
    1b50:	00251503          	lh	a0,2(a0)
    1b54:	01079693          	slli	a3,a5,0x10
    1b58:	f007f713          	andi	a4,a5,-256
    1b5c:	0186d793          	srli	a5,a3,0x18
    1b60:	00f767b3          	or	a5,a4,a5
    1b64:	00f59023          	sh	a5,0(a1)
    1b68:	00259783          	lh	a5,2(a1)
    1b6c:	40f50533          	sub	a0,a0,a5
    1b70:	00008067          	ret

00001b74 <calc_func>:
    1b74:	00051803          	lh	a6,0(a0)
    1b78:	40785793          	srai	a5,a6,0x7
    1b7c:	0017f793          	andi	a5,a5,1
    1b80:	00078663          	beqz	a5,1b8c <calc_func+0x18>
    1b84:	07f87513          	andi	a0,a6,127
    1b88:	00008067          	ret
    1b8c:	40385713          	srai	a4,a6,0x3
    1b90:	00f77713          	andi	a4,a4,15
    1b94:	fe010113          	addi	sp,sp,-32
    1b98:	00471793          	slli	a5,a4,0x4
    1b9c:	00f70633          	add	a2,a4,a5
    1ba0:	00812c23          	sw	s0,24(sp)
    1ba4:	00112e23          	sw	ra,28(sp)
    1ba8:	00912a23          	sw	s1,20(sp)
    1bac:	00787693          	andi	a3,a6,7
    1bb0:	0385d783          	lhu	a5,56(a1)
    1bb4:	00058893          	mv	a7,a1
    1bb8:	00050413          	mv	s0,a0
    1bbc:	00060713          	mv	a4,a2
    1bc0:	08068e63          	beqz	a3,1c5c <calc_func+0xe8>
    1bc4:	00100613          	li	a2,1
    1bc8:	08c69263          	bne	a3,a2,1c4c <calc_func+0xd8>
    1bcc:	00078613          	mv	a2,a5
    1bd0:	02888513          	addi	a0,a7,40
    1bd4:	00070593          	mv	a1,a4
    1bd8:	01012623          	sw	a6,12(sp)
    1bdc:	01112423          	sw	a7,8(sp)
    1be0:	f05ff0ef          	jal	1ae4 <core_bench_matrix>
    1be4:	00812883          	lw	a7,8(sp)
    1be8:	01051493          	slli	s1,a0,0x10
    1bec:	00c12803          	lw	a6,12(sp)
    1bf0:	03c8d783          	lhu	a5,60(a7)
    1bf4:	4104d493          	srai	s1,s1,0x10
    1bf8:	0a079463          	bnez	a5,1ca0 <calc_func+0x12c>
    1bfc:	0388d783          	lhu	a5,56(a7)
    1c00:	02a89e23          	sh	a0,60(a7)
    1c04:	00078593          	mv	a1,a5
    1c08:	01112623          	sw	a7,12(sp)
    1c0c:	01012423          	sw	a6,8(sp)
    1c10:	c1dfe0ef          	jal	82c <crcu16>
    1c14:	00812803          	lw	a6,8(sp)
    1c18:	00c12883          	lw	a7,12(sp)
    1c1c:	00050793          	mv	a5,a0
    1c20:	f0087813          	andi	a6,a6,-256
    1c24:	07f4f513          	andi	a0,s1,127
    1c28:	01056833          	or	a6,a0,a6
    1c2c:	02f89c23          	sh	a5,56(a7)
    1c30:	08086813          	ori	a6,a6,128
    1c34:	01c12083          	lw	ra,28(sp)
    1c38:	01041023          	sh	a6,0(s0)
    1c3c:	01812403          	lw	s0,24(sp)
    1c40:	01412483          	lw	s1,20(sp)
    1c44:	02010113          	addi	sp,sp,32
    1c48:	00008067          	ret
    1c4c:	01081513          	slli	a0,a6,0x10
    1c50:	01055513          	srli	a0,a0,0x10
    1c54:	00080493          	mv	s1,a6
    1c58:	fadff06f          	j	1c04 <calc_func+0x90>
    1c5c:	02100693          	li	a3,33
    1c60:	00c6e463          	bltu	a3,a2,1c68 <calc_func+0xf4>
    1c64:	02200713          	li	a4,34
    1c68:	00289683          	lh	a3,2(a7)
    1c6c:	00089603          	lh	a2,0(a7)
    1c70:	0148a583          	lw	a1,20(a7)
    1c74:	0188a503          	lw	a0,24(a7)
    1c78:	01012623          	sw	a6,12(sp)
    1c7c:	01112423          	sw	a7,8(sp)
    1c80:	ff0fe0ef          	jal	470 <core_bench_state>
    1c84:	00812883          	lw	a7,8(sp)
    1c88:	01051493          	slli	s1,a0,0x10
    1c8c:	00c12803          	lw	a6,12(sp)
    1c90:	03e8d783          	lhu	a5,62(a7)
    1c94:	4104d493          	srai	s1,s1,0x10
    1c98:	00079463          	bnez	a5,1ca0 <calc_func+0x12c>
    1c9c:	02a89f23          	sh	a0,62(a7)
    1ca0:	0388d783          	lhu	a5,56(a7)
    1ca4:	f61ff06f          	j	1c04 <calc_func+0x90>

00001ca8 <cmp_complex>:
    1ca8:	fe010113          	addi	sp,sp,-32
    1cac:	00912a23          	sw	s1,20(sp)
    1cb0:	00058493          	mv	s1,a1
    1cb4:	00060593          	mv	a1,a2
    1cb8:	00112e23          	sw	ra,28(sp)
    1cbc:	00812c23          	sw	s0,24(sp)
    1cc0:	00c12623          	sw	a2,12(sp)
    1cc4:	eb1ff0ef          	jal	1b74 <calc_func>
    1cc8:	00c12583          	lw	a1,12(sp)
    1ccc:	00050413          	mv	s0,a0
    1cd0:	00048513          	mv	a0,s1
    1cd4:	ea1ff0ef          	jal	1b74 <calc_func>
    1cd8:	01c12083          	lw	ra,28(sp)
    1cdc:	40a40533          	sub	a0,s0,a0
    1ce0:	01812403          	lw	s0,24(sp)
    1ce4:	01412483          	lw	s1,20(sp)
    1ce8:	02010113          	addi	sp,sp,32
    1cec:	00008067          	ret

00001cf0 <copy_info>:
    1cf0:	00059703          	lh	a4,0(a1)
    1cf4:	00259783          	lh	a5,2(a1)
    1cf8:	00e51023          	sh	a4,0(a0)
    1cfc:	00f51123          	sh	a5,2(a0)
    1d00:	00008067          	ret

00001d04 <core_list_insert_new>:
    1d04:	00062803          	lw	a6,0(a2)
    1d08:	00880893          	addi	a7,a6,8
    1d0c:	04e8f663          	bgeu	a7,a4,1d58 <core_list_insert_new+0x54>
    1d10:	0006a703          	lw	a4,0(a3)
    1d14:	00470313          	addi	t1,a4,4
    1d18:	04f37063          	bgeu	t1,a5,1d58 <core_list_insert_new+0x54>
    1d1c:	01162023          	sw	a7,0(a2)
    1d20:	00052783          	lw	a5,0(a0)
    1d24:	00059883          	lh	a7,0(a1)
    1d28:	00259603          	lh	a2,2(a1)
    1d2c:	00f82023          	sw	a5,0(a6)
    1d30:	01052023          	sw	a6,0(a0)
    1d34:	00e82223          	sw	a4,4(a6)
    1d38:	0006a783          	lw	a5,0(a3)
    1d3c:	00080513          	mv	a0,a6
    1d40:	00478793          	addi	a5,a5,4
    1d44:	00f6a023          	sw	a5,0(a3)
    1d48:	00482783          	lw	a5,4(a6)
    1d4c:	01179023          	sh	a7,0(a5)
    1d50:	00c79123          	sh	a2,2(a5)
    1d54:	00008067          	ret
    1d58:	00000813          	li	a6,0
    1d5c:	00080513          	mv	a0,a6
    1d60:	00008067          	ret

00001d64 <core_list_remove>:
    1d64:	00050793          	mv	a5,a0
    1d68:	00052503          	lw	a0,0(a0)
    1d6c:	0047a683          	lw	a3,4(a5)
    1d70:	00452603          	lw	a2,4(a0)
    1d74:	00052703          	lw	a4,0(a0)
    1d78:	00c7a223          	sw	a2,4(a5)
    1d7c:	00d52223          	sw	a3,4(a0)
    1d80:	00e7a023          	sw	a4,0(a5)
    1d84:	00052023          	sw	zero,0(a0)
    1d88:	00008067          	ret

00001d8c <core_list_undo_remove>:
    1d8c:	0045a683          	lw	a3,4(a1)
    1d90:	00452703          	lw	a4,4(a0)
    1d94:	0005a783          	lw	a5,0(a1)
    1d98:	00d52223          	sw	a3,4(a0)
    1d9c:	00e5a223          	sw	a4,4(a1)
    1da0:	00f52023          	sw	a5,0(a0)
    1da4:	00a5a023          	sw	a0,0(a1)
    1da8:	00008067          	ret

00001dac <core_list_find>:
    1dac:	00259703          	lh	a4,2(a1)
    1db0:	02074263          	bltz	a4,1dd4 <core_list_find+0x28>
    1db4:	00051863          	bnez	a0,1dc4 <core_list_find+0x18>
    1db8:	00008067          	ret
    1dbc:	00052503          	lw	a0,0(a0)
    1dc0:	02050a63          	beqz	a0,1df4 <core_list_find+0x48>
    1dc4:	00452783          	lw	a5,4(a0)
    1dc8:	00279783          	lh	a5,2(a5)
    1dcc:	fee798e3          	bne	a5,a4,1dbc <core_list_find+0x10>
    1dd0:	00008067          	ret
    1dd4:	02050063          	beqz	a0,1df4 <core_list_find+0x48>
    1dd8:	00059703          	lh	a4,0(a1)
    1ddc:	00c0006f          	j	1de8 <core_list_find+0x3c>
    1de0:	00052503          	lw	a0,0(a0)
    1de4:	00050863          	beqz	a0,1df4 <core_list_find+0x48>
    1de8:	00452783          	lw	a5,4(a0)
    1dec:	0007c783          	lbu	a5,0(a5)
    1df0:	fee798e3          	bne	a5,a4,1de0 <core_list_find+0x34>
    1df4:	00008067          	ret

00001df8 <core_list_reverse>:
    1df8:	02050063          	beqz	a0,1e18 <core_list_reverse+0x20>
    1dfc:	00000713          	li	a4,0
    1e00:	0080006f          	j	1e08 <core_list_reverse+0x10>
    1e04:	00078513          	mv	a0,a5
    1e08:	00052783          	lw	a5,0(a0)
    1e0c:	00e52023          	sw	a4,0(a0)
    1e10:	00050713          	mv	a4,a0
    1e14:	fe0798e3          	bnez	a5,1e04 <core_list_reverse+0xc>
    1e18:	00008067          	ret

00001e1c <core_list_mergesort>:
    1e1c:	fd010113          	addi	sp,sp,-48
    1e20:	03212023          	sw	s2,32(sp)
    1e24:	01512a23          	sw	s5,20(sp)
    1e28:	01612823          	sw	s6,16(sp)
    1e2c:	01712623          	sw	s7,12(sp)
    1e30:	01a12023          	sw	s10,0(sp)
    1e34:	00100a93          	li	s5,1
    1e38:	02112623          	sw	ra,44(sp)
    1e3c:	02812423          	sw	s0,40(sp)
    1e40:	02912223          	sw	s1,36(sp)
    1e44:	01312e23          	sw	s3,28(sp)
    1e48:	01412c23          	sw	s4,24(sp)
    1e4c:	01812423          	sw	s8,8(sp)
    1e50:	01912223          	sw	s9,4(sp)
    1e54:	00050913          	mv	s2,a0
    1e58:	00058b93          	mv	s7,a1
    1e5c:	00060b13          	mv	s6,a2
    1e60:	000a8d13          	mv	s10,s5
    1e64:	0e090863          	beqz	s2,1f54 <core_list_mergesort+0x138>
    1e68:	00000c93          	li	s9,0
    1e6c:	00000493          	li	s1,0
    1e70:	00000c13          	li	s8,0
    1e74:	001c8c93          	addi	s9,s9,1
    1e78:	00090793          	mv	a5,s2
    1e7c:	00000413          	li	s0,0
    1e80:	01545863          	bge	s0,s5,1e90 <core_list_mergesort+0x74>
    1e84:	0007a783          	lw	a5,0(a5)
    1e88:	00140413          	addi	s0,s0,1
    1e8c:	fe079ae3          	bnez	a5,1e80 <core_list_mergesort+0x64>
    1e90:	00090993          	mv	s3,s2
    1e94:	000a8a13          	mv	s4,s5
    1e98:	00078913          	mv	s2,a5
    1e9c:	02805463          	blez	s0,1ec4 <core_list_mergesort+0xa8>
    1ea0:	000a0463          	beqz	s4,1ea8 <core_list_mergesort+0x8c>
    1ea4:	02091863          	bnez	s2,1ed4 <core_list_mergesort+0xb8>
    1ea8:	00048793          	mv	a5,s1
    1eac:	fff40413          	addi	s0,s0,-1
    1eb0:	00098493          	mv	s1,s3
    1eb4:	0009a983          	lw	s3,0(s3)
    1eb8:	04078263          	beqz	a5,1efc <core_list_mergesort+0xe0>
    1ebc:	0097a023          	sw	s1,0(a5)
    1ec0:	fe8040e3          	bgtz	s0,1ea0 <core_list_mergesort+0x84>
    1ec4:	012037b3          	snez	a5,s2
    1ec8:	07405a63          	blez	s4,1f3c <core_list_mergesort+0x120>
    1ecc:	06078a63          	beqz	a5,1f40 <core_list_mergesort+0x124>
    1ed0:	04040463          	beqz	s0,1f18 <core_list_mergesort+0xfc>
    1ed4:	00492583          	lw	a1,4(s2) # fffff004 <_stack_end+0xffeef004>
    1ed8:	0049a503          	lw	a0,4(s3)
    1edc:	000b0613          	mv	a2,s6
    1ee0:	000b80e7          	jalr	s7
    1ee4:	06a05c63          	blez	a0,1f5c <core_list_mergesort+0x140>
    1ee8:	00048793          	mv	a5,s1
    1eec:	fffa0a13          	addi	s4,s4,-1
    1ef0:	00090493          	mv	s1,s2
    1ef4:	00092903          	lw	s2,0(s2)
    1ef8:	fc0792e3          	bnez	a5,1ebc <core_list_mergesort+0xa0>
    1efc:	00048c13          	mv	s8,s1
    1f00:	f9dff06f          	j	1e9c <core_list_mergesort+0x80>
    1f04:	00e4a023          	sw	a4,0(s1)
    1f08:	012037b3          	snez	a5,s2
    1f0c:	00070493          	mv	s1,a4
    1f10:	020a0463          	beqz	s4,1f38 <core_list_mergesort+0x11c>
    1f14:	02078263          	beqz	a5,1f38 <core_list_mergesort+0x11c>
    1f18:	00090713          	mv	a4,s2
    1f1c:	fffa0a13          	addi	s4,s4,-1
    1f20:	00092903          	lw	s2,0(s2)
    1f24:	fe0490e3          	bnez	s1,1f04 <core_list_mergesort+0xe8>
    1f28:	00070c13          	mv	s8,a4
    1f2c:	012037b3          	snez	a5,s2
    1f30:	00070493          	mv	s1,a4
    1f34:	fe0a10e3          	bnez	s4,1f14 <core_list_mergesort+0xf8>
    1f38:	00070493          	mv	s1,a4
    1f3c:	f2079ce3          	bnez	a5,1e74 <core_list_mergesort+0x58>
    1f40:	0004a023          	sw	zero,0(s1)
    1f44:	05ac8663          	beq	s9,s10,1f90 <core_list_mergesort+0x174>
    1f48:	000c0913          	mv	s2,s8
    1f4c:	001a9a93          	slli	s5,s5,0x1
    1f50:	f0091ce3          	bnez	s2,1e68 <core_list_mergesort+0x4c>
    1f54:	00002023          	sw	zero,0(zero) # 0 <_start>
    1f58:	00100073          	ebreak
    1f5c:	0009a703          	lw	a4,0(s3)
    1f60:	fff40413          	addi	s0,s0,-1
    1f64:	00048c63          	beqz	s1,1f7c <core_list_mergesort+0x160>
    1f68:	00048793          	mv	a5,s1
    1f6c:	00098493          	mv	s1,s3
    1f70:	0097a023          	sw	s1,0(a5)
    1f74:	00070993          	mv	s3,a4
    1f78:	f49ff06f          	j	1ec0 <core_list_mergesort+0xa4>
    1f7c:	00098c13          	mv	s8,s3
    1f80:	00098493          	mv	s1,s3
    1f84:	00070993          	mv	s3,a4
    1f88:	f48046e3          	bgtz	s0,1ed4 <core_list_mergesort+0xb8>
    1f8c:	f39ff06f          	j	1ec4 <core_list_mergesort+0xa8>
    1f90:	02c12083          	lw	ra,44(sp)
    1f94:	02812403          	lw	s0,40(sp)
    1f98:	02412483          	lw	s1,36(sp)
    1f9c:	02012903          	lw	s2,32(sp)
    1fa0:	01c12983          	lw	s3,28(sp)
    1fa4:	01812a03          	lw	s4,24(sp)
    1fa8:	01412a83          	lw	s5,20(sp)
    1fac:	01012b03          	lw	s6,16(sp)
    1fb0:	00c12b83          	lw	s7,12(sp)
    1fb4:	00412c83          	lw	s9,4(sp)
    1fb8:	00012d03          	lw	s10,0(sp)
    1fbc:	000c0513          	mv	a0,s8
    1fc0:	00812c03          	lw	s8,8(sp)
    1fc4:	03010113          	addi	sp,sp,48
    1fc8:	00008067          	ret

00001fcc <core_bench_list>:
    1fcc:	00451603          	lh	a2,4(a0)
    1fd0:	fd010113          	addi	sp,sp,-48
    1fd4:	02812423          	sw	s0,40(sp)
    1fd8:	02112623          	sw	ra,44(sp)
    1fdc:	02912223          	sw	s1,36(sp)
    1fe0:	03212023          	sw	s2,32(sp)
    1fe4:	01312e23          	sw	s3,28(sp)
    1fe8:	02452403          	lw	s0,36(a0)
    1fec:	2ac05263          	blez	a2,2290 <core_bench_list+0x2c4>
    1ff0:	2a05c863          	bltz	a1,22a0 <core_bench_list+0x2d4>
    1ff4:	2c040863          	beqz	s0,22c4 <core_bench_list+0x2f8>
    1ff8:	00058693          	mv	a3,a1
    1ffc:	00000e13          	li	t3,0
    2000:	00000f13          	li	t5,0
    2004:	00000e93          	li	t4,0
    2008:	00000893          	li	a7,0
    200c:	00000313          	li	t1,0
    2010:	00040793          	mv	a5,s0
    2014:	00c0006f          	j	2020 <core_bench_list+0x54>
    2018:	0007a783          	lw	a5,0(a5)
    201c:	0e078463          	beqz	a5,2104 <core_bench_list+0x138>
    2020:	0047a703          	lw	a4,4(a5)
    2024:	00271803          	lh	a6,2(a4)
    2028:	fed818e3          	bne	a6,a3,2018 <core_bench_list+0x4c>
    202c:	00000693          	li	a3,0
    2030:	0080006f          	j	2038 <core_bench_list+0x6c>
    2034:	00070413          	mv	s0,a4
    2038:	00042703          	lw	a4,0(s0)
    203c:	00d42023          	sw	a3,0(s0)
    2040:	00040693          	mv	a3,s0
    2044:	fe0718e3          	bnez	a4,2034 <core_bench_list+0x68>
    2048:	0c078263          	beqz	a5,210c <core_bench_list+0x140>
    204c:	0047a703          	lw	a4,4(a5)
    2050:	001e8e93          	addi	t4,t4,1
    2054:	00071703          	lh	a4,0(a4)
    2058:	00177693          	andi	a3,a4,1
    205c:	00068863          	beqz	a3,206c <core_bench_list+0xa0>
    2060:	40975713          	srai	a4,a4,0x9
    2064:	00177713          	andi	a4,a4,1
    2068:	00e888b3          	add	a7,a7,a4
    206c:	0007a703          	lw	a4,0(a5)
    2070:	00070c63          	beqz	a4,2088 <core_bench_list+0xbc>
    2074:	00072683          	lw	a3,0(a4)
    2078:	00d7a023          	sw	a3,0(a5)
    207c:	00042783          	lw	a5,0(s0)
    2080:	00f72023          	sw	a5,0(a4)
    2084:	00e42023          	sw	a4,0(s0)
    2088:	04084063          	bltz	a6,20c8 <core_bench_list+0xfc>
    208c:	001e0793          	addi	a5,t3,1
    2090:	01079e13          	slli	t3,a5,0x10
    2094:	00180693          	addi	a3,a6,1
    2098:	01069693          	slli	a3,a3,0x10
    209c:	01079793          	slli	a5,a5,0x10
    20a0:	410e5e13          	srai	t3,t3,0x10
    20a4:	4106d693          	srai	a3,a3,0x10
    20a8:	0107d793          	srli	a5,a5,0x10
    20ac:	09c60463          	beq	a2,t3,2134 <core_bench_list+0x168>
    20b0:	0ff7f313          	zext.b	t1,a5
    20b4:	f406dee3          	bgez	a3,2010 <core_bench_list+0x44>
    20b8:	00030693          	mv	a3,t1
    20bc:	00040793          	mv	a5,s0
    20c0:	ffff8837          	lui	a6,0xffff8
    20c4:	0300006f          	j	20f4 <core_bench_list+0x128>
    20c8:	001e0693          	addi	a3,t3,1
    20cc:	01069e13          	slli	t3,a3,0x10
    20d0:	410e5e13          	srai	t3,t3,0x10
    20d4:	01069693          	slli	a3,a3,0x10
    20d8:	0106d693          	srli	a3,a3,0x10
    20dc:	05c60a63          	beq	a2,t3,2130 <core_bench_list+0x164>
    20e0:	0ff6f693          	zext.b	a3,a3
    20e4:	00040793          	mv	a5,s0
    20e8:	00c0006f          	j	20f4 <core_bench_list+0x128>
    20ec:	0007a783          	lw	a5,0(a5)
    20f0:	02078c63          	beqz	a5,2128 <core_bench_list+0x15c>
    20f4:	0047a703          	lw	a4,4(a5)
    20f8:	00074303          	lbu	t1,0(a4)
    20fc:	fed318e3          	bne	t1,a3,20ec <core_bench_list+0x120>
    2100:	f2dff06f          	j	202c <core_bench_list+0x60>
    2104:	00068813          	mv	a6,a3
    2108:	f25ff06f          	j	202c <core_bench_list+0x60>
    210c:	00042783          	lw	a5,0(s0)
    2110:	001f0f13          	addi	t5,t5,1
    2114:	0047a783          	lw	a5,4(a5)
    2118:	00178783          	lb	a5,1(a5)
    211c:	0017f793          	andi	a5,a5,1
    2120:	00f888b3          	add	a7,a7,a5
    2124:	f65ff06f          	j	2088 <core_bench_list+0xbc>
    2128:	00068313          	mv	t1,a3
    212c:	f01ff06f          	j	202c <core_bench_list+0x60>
    2130:	00080693          	mv	a3,a6
    2134:	002e9793          	slli	a5,t4,0x2
    2138:	41e787b3          	sub	a5,a5,t5
    213c:	00f888b3          	add	a7,a7,a5
    2140:	01089493          	slli	s1,a7,0x10
    2144:	0104d493          	srli	s1,s1,0x10
    2148:	02b05663          	blez	a1,2174 <core_bench_list+0x1a8>
    214c:	000025b7          	lui	a1,0x2
    2150:	00050613          	mv	a2,a0
    2154:	ca858593          	addi	a1,a1,-856 # 1ca8 <cmp_complex>
    2158:	00040513          	mv	a0,s0
    215c:	00612623          	sw	t1,12(sp)
    2160:	00d12423          	sw	a3,8(sp)
    2164:	cb9ff0ef          	jal	1e1c <core_list_mergesort>
    2168:	00c12303          	lw	t1,12(sp)
    216c:	00812683          	lw	a3,8(sp)
    2170:	00050413          	mv	s0,a0
    2174:	00042783          	lw	a5,0(s0)
    2178:	00040913          	mv	s2,s0
    217c:	0007a983          	lw	s3,0(a5)
    2180:	0047a703          	lw	a4,4(a5)
    2184:	0049a583          	lw	a1,4(s3)
    2188:	0009a603          	lw	a2,0(s3)
    218c:	00b7a223          	sw	a1,4(a5)
    2190:	00e9a223          	sw	a4,4(s3)
    2194:	00c7a023          	sw	a2,0(a5)
    2198:	0009a023          	sw	zero,0(s3)
    219c:	0006d863          	bgez	a3,21ac <core_bench_list+0x1e0>
    21a0:	0b80006f          	j	2258 <core_bench_list+0x28c>
    21a4:	00092903          	lw	s2,0(s2)
    21a8:	0c090063          	beqz	s2,2268 <core_bench_list+0x29c>
    21ac:	00492783          	lw	a5,4(s2)
    21b0:	00279783          	lh	a5,2(a5)
    21b4:	fed798e3          	bne	a5,a3,21a4 <core_bench_list+0x1d8>
    21b8:	00442783          	lw	a5,4(s0)
    21bc:	00048593          	mv	a1,s1
    21c0:	00079503          	lh	a0,0(a5)
    21c4:	cb1fe0ef          	jal	e74 <crc16>
    21c8:	00092903          	lw	s2,0(s2)
    21cc:	00050493          	mv	s1,a0
    21d0:	fe0914e3          	bnez	s2,21b8 <core_bench_list+0x1ec>
    21d4:	00042903          	lw	s2,0(s0)
    21d8:	0049a703          	lw	a4,4(s3)
    21dc:	00492683          	lw	a3,4(s2)
    21e0:	00092783          	lw	a5,0(s2)
    21e4:	000025b7          	lui	a1,0x2
    21e8:	00d9a223          	sw	a3,4(s3)
    21ec:	00e92223          	sw	a4,4(s2)
    21f0:	00f9a023          	sw	a5,0(s3)
    21f4:	00040513          	mv	a0,s0
    21f8:	01392023          	sw	s3,0(s2)
    21fc:	b2058593          	addi	a1,a1,-1248 # 1b20 <cmp_idx>
    2200:	00000613          	li	a2,0
    2204:	c19ff0ef          	jal	1e1c <core_list_mergesort>
    2208:	00052403          	lw	s0,0(a0)
    220c:	00050913          	mv	s2,a0
    2210:	02040063          	beqz	s0,2230 <core_bench_list+0x264>
    2214:	00492783          	lw	a5,4(s2)
    2218:	00048593          	mv	a1,s1
    221c:	00079503          	lh	a0,0(a5)
    2220:	c55fe0ef          	jal	e74 <crc16>
    2224:	00042403          	lw	s0,0(s0)
    2228:	00050493          	mv	s1,a0
    222c:	fe0414e3          	bnez	s0,2214 <core_bench_list+0x248>
    2230:	02c12083          	lw	ra,44(sp)
    2234:	02812403          	lw	s0,40(sp)
    2238:	02012903          	lw	s2,32(sp)
    223c:	01c12983          	lw	s3,28(sp)
    2240:	00048513          	mv	a0,s1
    2244:	02412483          	lw	s1,36(sp)
    2248:	03010113          	addi	sp,sp,48
    224c:	00008067          	ret
    2250:	00092903          	lw	s2,0(s2)
    2254:	00090a63          	beqz	s2,2268 <core_bench_list+0x29c>
    2258:	00492783          	lw	a5,4(s2)
    225c:	0007c783          	lbu	a5,0(a5)
    2260:	fef318e3          	bne	t1,a5,2250 <core_bench_list+0x284>
    2264:	f55ff06f          	j	21b8 <core_bench_list+0x1ec>
    2268:	00042903          	lw	s2,0(s0)
    226c:	f60908e3          	beqz	s2,21dc <core_bench_list+0x210>
    2270:	00442783          	lw	a5,4(s0)
    2274:	00048593          	mv	a1,s1
    2278:	00079503          	lh	a0,0(a5)
    227c:	bf9fe0ef          	jal	e74 <crc16>
    2280:	00092903          	lw	s2,0(s2)
    2284:	00050493          	mv	s1,a0
    2288:	f20918e3          	bnez	s2,21b8 <core_bench_list+0x1ec>
    228c:	f49ff06f          	j	21d4 <core_bench_list+0x208>
    2290:	00058693          	mv	a3,a1
    2294:	00000493          	li	s1,0
    2298:	00000313          	li	t1,0
    229c:	eadff06f          	j	2148 <core_bench_list+0x17c>
    22a0:	02040263          	beqz	s0,22c4 <core_bench_list+0x2f8>
    22a4:	00058813          	mv	a6,a1
    22a8:	00040793          	mv	a5,s0
    22ac:	00000893          	li	a7,0
    22b0:	00000693          	li	a3,0
    22b4:	00000f13          	li	t5,0
    22b8:	00000e13          	li	t3,0
    22bc:	00000e93          	li	t4,0
    22c0:	e35ff06f          	j	20f4 <core_bench_list+0x128>
    22c4:	00002783          	lw	a5,0(zero) # 0 <_start>
    22c8:	00100073          	ebreak

000022cc <core_list_init>:
    22cc:	fe010113          	addi	sp,sp,-32
    22d0:	00812c23          	sw	s0,24(sp)
    22d4:	00058413          	mv	s0,a1
    22d8:	01400593          	li	a1,20
    22dc:	00912a23          	sw	s1,20(sp)
    22e0:	00112e23          	sw	ra,28(sp)
    22e4:	00060493          	mv	s1,a2
    22e8:	459020ef          	jal	4f40 <__hidden___udivsi3>
    22ec:	ffe50513          	addi	a0,a0,-2
    22f0:	00351313          	slli	t1,a0,0x3
    22f4:	00640333          	add	t1,s0,t1
    22f8:	ffff87b7          	lui	a5,0xffff8
    22fc:	00042023          	sw	zero,0(s0)
    2300:	00642223          	sw	t1,4(s0)
    2304:	08078793          	addi	a5,a5,128 # ffff8080 <_stack_end+0xffee8080>
    2308:	00251e13          	slli	t3,a0,0x2
    230c:	00f31023          	sh	a5,0(t1)
    2310:	00031123          	sh	zero,2(t1)
    2314:	01040693          	addi	a3,s0,16
    2318:	01c30e33          	add	t3,t1,t3
    231c:	00430613          	addi	a2,t1,4
    2320:	00840713          	addi	a4,s0,8
    2324:	1266f263          	bgeu	a3,t1,2448 <core_list_init+0x17c>
    2328:	00830593          	addi	a1,t1,8
    232c:	11c5fe63          	bgeu	a1,t3,2448 <core_list_init+0x17c>
    2330:	ffff87b7          	lui	a5,0xffff8
    2334:	00e42023          	sw	a4,0(s0)
    2338:	00042423          	sw	zero,8(s0)
    233c:	00c42623          	sw	a2,12(s0)
    2340:	fff7c793          	not	a5,a5
    2344:	fff00713          	li	a4,-1
    2348:	00f31323          	sh	a5,6(t1)
    234c:	00e31223          	sh	a4,4(t1)
    2350:	ffff8eb7          	lui	t4,0xffff8
    2354:	fffece93          	not	t4,t4
    2358:	00000713          	li	a4,0
    235c:	04050c63          	beqz	a0,23b4 <core_list_init+0xe8>
    2360:	009747b3          	xor	a5,a4,s1
    2364:	00379793          	slli	a5,a5,0x3
    2368:	00777613          	andi	a2,a4,7
    236c:	0787f793          	andi	a5,a5,120
    2370:	00c7e7b3          	or	a5,a5,a2
    2374:	00879613          	slli	a2,a5,0x8
    2378:	00868813          	addi	a6,a3,8
    237c:	00170713          	addi	a4,a4,1
    2380:	00458893          	addi	a7,a1,4
    2384:	00c787b3          	add	a5,a5,a2
    2388:	02687463          	bgeu	a6,t1,23b0 <core_list_init+0xe4>
    238c:	03c8f263          	bgeu	a7,t3,23b0 <core_list_init+0xe4>
    2390:	00042603          	lw	a2,0(s0)
    2394:	00c6a023          	sw	a2,0(a3)
    2398:	00d42023          	sw	a3,0(s0)
    239c:	00b6a223          	sw	a1,4(a3)
    23a0:	00f59023          	sh	a5,0(a1)
    23a4:	01d59123          	sh	t4,2(a1)
    23a8:	00080693          	mv	a3,a6
    23ac:	00088593          	mv	a1,a7
    23b0:	fae518e3          	bne	a0,a4,2360 <core_list_init+0x94>
    23b4:	00042883          	lw	a7,0(s0)
    23b8:	0008a683          	lw	a3,0(a7)
    23bc:	06068463          	beqz	a3,2424 <core_list_init+0x158>
    23c0:	00500593          	li	a1,5
    23c4:	01112623          	sw	a7,12(sp)
    23c8:	00d12423          	sw	a3,8(sp)
    23cc:	375020ef          	jal	4f40 <__hidden___udivsi3>
    23d0:	00004337          	lui	t1,0x4
    23d4:	00812683          	lw	a3,8(sp)
    23d8:	00c12883          	lw	a7,12(sp)
    23dc:	fff30313          	addi	t1,t1,-1 # 3fff <__divdf3+0x1fb>
    23e0:	20000593          	li	a1,512
    23e4:	00100713          	li	a4,1
    23e8:	0080006f          	j	23f0 <core_list_init+0x124>
    23ec:	00080693          	mv	a3,a6
    23f0:	00e4c633          	xor	a2,s1,a4
    23f4:	7005f793          	andi	a5,a1,1792
    23f8:	00c7e7b3          	or	a5,a5,a2
    23fc:	0067f7b3          	and	a5,a5,t1
    2400:	0048a603          	lw	a2,4(a7)
    2404:	00a77463          	bgeu	a4,a0,240c <core_list_init+0x140>
    2408:	00070793          	mv	a5,a4
    240c:	0006a803          	lw	a6,0(a3)
    2410:	00f61123          	sh	a5,2(a2)
    2414:	00170713          	addi	a4,a4,1
    2418:	10058593          	addi	a1,a1,256
    241c:	00068893          	mv	a7,a3
    2420:	fc0816e3          	bnez	a6,23ec <core_list_init+0x120>
    2424:	00040513          	mv	a0,s0
    2428:	01812403          	lw	s0,24(sp)
    242c:	01c12083          	lw	ra,28(sp)
    2430:	01412483          	lw	s1,20(sp)
    2434:	000025b7          	lui	a1,0x2
    2438:	b2058593          	addi	a1,a1,-1248 # 1b20 <cmp_idx>
    243c:	00000613          	li	a2,0
    2440:	02010113          	addi	sp,sp,32
    2444:	9d9ff06f          	j	1e1c <core_list_mergesort>
    2448:	00060593          	mv	a1,a2
    244c:	00070693          	mv	a3,a4
    2450:	f01ff06f          	j	2350 <core_list_init+0x84>

00002454 <barebones_clock>:
    2454:	c0002573          	rdcycle	a0
    2458:	00008067          	ret

0000245c <start_time>:
    245c:	c0002773          	rdcycle	a4
    2460:	001017b7          	lui	a5,0x101
    2464:	b6e7a623          	sw	a4,-1172(a5) # 100b6c <start_time_val>
    2468:	00008067          	ret

0000246c <stop_time>:
    246c:	c0002773          	rdcycle	a4
    2470:	001017b7          	lui	a5,0x101
    2474:	b6e7a423          	sw	a4,-1176(a5) # 100b68 <stop_time_val>
    2478:	00008067          	ret

0000247c <get_time>:
    247c:	00101737          	lui	a4,0x101
    2480:	001017b7          	lui	a5,0x101
    2484:	b6872503          	lw	a0,-1176(a4) # 100b68 <stop_time_val>
    2488:	b6c7a783          	lw	a5,-1172(a5) # 100b6c <start_time_val>
    248c:	40f50533          	sub	a0,a0,a5
    2490:	00008067          	ret

00002494 <time_in_secs>:
    2494:	05f5e5b7          	lui	a1,0x5f5e
    2498:	ff010113          	addi	sp,sp,-16
    249c:	10058593          	addi	a1,a1,256 # 5f5e100 <_stack_end+0x5e4e100>
    24a0:	00112623          	sw	ra,12(sp)
    24a4:	29d020ef          	jal	4f40 <__hidden___udivsi3>
    24a8:	00c12083          	lw	ra,12(sp)
    24ac:	01010113          	addi	sp,sp,16
    24b0:	00008067          	ret

000024b4 <portable_init>:
    24b4:	00100793          	li	a5,1
    24b8:	00f50023          	sb	a5,0(a0)
    24bc:	00008067          	ret

000024c0 <portable_fini>:
    24c0:	00050023          	sb	zero,0(a0)
    24c4:	00008067          	ret

000024c8 <cvt>:
    24c8:	fa010113          	addi	sp,sp,-96
    24cc:	04812c23          	sw	s0,88(sp)
    24d0:	04912a23          	sw	s1,84(sp)
    24d4:	05212823          	sw	s2,80(sp)
    24d8:	03912a23          	sw	s9,52(sp)
    24dc:	03a12823          	sw	s10,48(sp)
    24e0:	03b12623          	sw	s11,44(sp)
    24e4:	04112e23          	sw	ra,92(sp)
    24e8:	05312623          	sw	s3,76(sp)
    24ec:	05412423          	sw	s4,72(sp)
    24f0:	05512223          	sw	s5,68(sp)
    24f4:	03812c23          	sw	s8,56(sp)
    24f8:	04e00893          	li	a7,78
    24fc:	00058413          	mv	s0,a1
    2500:	00050493          	mv	s1,a0
    2504:	00068d13          	mv	s10,a3
    2508:	00070913          	mv	s2,a4
    250c:	00078c93          	mv	s9,a5
    2510:	00080d93          	mv	s11,a6
    2514:	22c8d263          	bge	a7,a2,2738 <cvt+0x270>
    2518:	01112623          	sw	a7,12(sp)
    251c:	00048513          	mv	a0,s1
    2520:	00040593          	mv	a1,s0
    2524:	00000613          	li	a2,0
    2528:	00000693          	li	a3,0
    252c:	1f8020ef          	jal	4724 <__ledf2>
    2530:	00000793          	li	a5,0
    2534:	00055863          	bgez	a0,2544 <cvt+0x7c>
    2538:	800007b7          	lui	a5,0x80000
    253c:	00f44433          	xor	s0,s0,a5
    2540:	00100793          	li	a5,1
    2544:	00f92023          	sw	a5,0(s2)
    2548:	00048513          	mv	a0,s1
    254c:	00040593          	mv	a1,s0
    2550:	01010613          	addi	a2,sp,16
    2554:	1c9030ef          	jal	5f1c <modf>
    2558:	01012903          	lw	s2,16(sp)
    255c:	01412983          	lw	s3,20(sp)
    2560:	00058493          	mv	s1,a1
    2564:	00050413          	mv	s0,a0
    2568:	00000613          	li	a2,0
    256c:	00000693          	li	a3,0
    2570:	00090513          	mv	a0,s2
    2574:	00098593          	mv	a1,s3
    2578:	050020ef          	jal	45c8 <__eqdf2>
    257c:	1c050863          	beqz	a0,274c <cvt+0x284>
    2580:	001017b7          	lui	a5,0x101
    2584:	aec7a803          	lw	a6,-1300(a5) # 100aec <__clz_tab+0x630>
    2588:	00101a37          	lui	s4,0x101
    258c:	ae87a783          	lw	a5,-1304(a5)
    2590:	ae4a2a83          	lw	s5,-1308(s4) # 100ae4 <__clz_tab+0x628>
    2594:	ae0a2a03          	lw	s4,-1312(s4)
    2598:	050c8c13          	addi	s8,s9,80
    259c:	05612023          	sw	s6,64(sp)
    25a0:	00f12023          	sw	a5,0(sp)
    25a4:	01012223          	sw	a6,4(sp)
    25a8:	000c0b13          	mv	s6,s8
    25ac:	000a8693          	mv	a3,s5
    25b0:	00090513          	mv	a0,s2
    25b4:	00098593          	mv	a1,s3
    25b8:	000a0613          	mv	a2,s4
    25bc:	049010ef          	jal	3e04 <__divdf3>
    25c0:	01010613          	addi	a2,sp,16
    25c4:	159030ef          	jal	5f1c <modf>
    25c8:	00012603          	lw	a2,0(sp)
    25cc:	00412683          	lw	a3,4(sp)
    25d0:	00a12c23          	sw	a0,24(sp)
    25d4:	00b12e23          	sw	a1,28(sp)
    25d8:	0e0010ef          	jal	36b8 <__adddf3>
    25dc:	000a0613          	mv	a2,s4
    25e0:	000a8693          	mv	a3,s5
    25e4:	218020ef          	jal	47fc <__muldf3>
    25e8:	0b1020ef          	jal	4e98 <__fixdfsi>
    25ec:	01012903          	lw	s2,16(sp)
    25f0:	01412983          	lw	s3,20(sp)
    25f4:	03050513          	addi	a0,a0,48
    25f8:	feab0fa3          	sb	a0,-1(s6)
    25fc:	00000613          	li	a2,0
    2600:	00000693          	li	a3,0
    2604:	00090513          	mv	a0,s2
    2608:	00098593          	mv	a1,s3
    260c:	fffb0b13          	addi	s6,s6,-1
    2610:	7b9010ef          	jal	45c8 <__eqdf2>
    2614:	f8051ce3          	bnez	a0,25ac <cvt+0xe4>
    2618:	416c8833          	sub	a6,s9,s6
    261c:	05080913          	addi	s2,a6,80 # ffff8050 <_stack_end+0xffee8050>
    2620:	000c8713          	mv	a4,s9
    2624:	298b7c63          	bgeu	s6,s8,28bc <cvt+0x3f4>
    2628:	000b4683          	lbu	a3,0(s6)
    262c:	001b0b13          	addi	s6,s6,1
    2630:	00170713          	addi	a4,a4,1
    2634:	fed70fa3          	sb	a3,-1(a4)
    2638:	ff6c18e3          	bne	s8,s6,2628 <cvt+0x160>
    263c:	00c12783          	lw	a5,12(sp)
    2640:	04012b03          	lw	s6,64(sp)
    2644:	012c8a33          	add	s4,s9,s2
    2648:	00fc8ab3          	add	s5,s9,a5
    264c:	1c0d8863          	beqz	s11,281c <cvt+0x354>
    2650:	012d2023          	sw	s2,0(s10)
    2654:	1d9aea63          	bltu	s5,s9,2828 <cvt+0x360>
    2658:	050c8c13          	addi	s8,s9,80
    265c:	054aec63          	bltu	s5,s4,26b4 <cvt+0x1ec>
    2660:	001017b7          	lui	a5,0x101
    2664:	ae07a903          	lw	s2,-1312(a5) # 100ae0 <__clz_tab+0x624>
    2668:	ae47a983          	lw	s3,-1308(a5)
    266c:	0340006f          	j	26a0 <cvt+0x1d8>
    2670:	18c020ef          	jal	47fc <__muldf3>
    2674:	01810613          	addi	a2,sp,24
    2678:	0a5030ef          	jal	5f1c <modf>
    267c:	00050413          	mv	s0,a0
    2680:	00058493          	mv	s1,a1
    2684:	01812503          	lw	a0,24(sp)
    2688:	01c12583          	lw	a1,28(sp)
    268c:	001a0a13          	addi	s4,s4,1
    2690:	009020ef          	jal	4e98 <__fixdfsi>
    2694:	03050513          	addi	a0,a0,48
    2698:	feaa0fa3          	sb	a0,-1(s4)
    269c:	014aec63          	bltu	s5,s4,26b4 <cvt+0x1ec>
    26a0:	00040513          	mv	a0,s0
    26a4:	00048593          	mv	a1,s1
    26a8:	00090613          	mv	a2,s2
    26ac:	00098693          	mv	a3,s3
    26b0:	fd8a60e3          	bltu	s4,s8,2670 <cvt+0x1a8>
    26b4:	1b8afa63          	bgeu	s5,s8,2868 <cvt+0x3a0>
    26b8:	000ac783          	lbu	a5,0(s5)
    26bc:	03900693          	li	a3,57
    26c0:	00578793          	addi	a5,a5,5
    26c4:	0ff7f793          	zext.b	a5,a5
    26c8:	00fa8023          	sb	a5,0(s5)
    26cc:	02f6f863          	bgeu	a3,a5,26fc <cvt+0x234>
    26d0:	000a8793          	mv	a5,s5
    26d4:	03000613          	li	a2,48
    26d8:	03100593          	li	a1,49
    26dc:	00c78023          	sb	a2,0(a5)
    26e0:	14fcf863          	bgeu	s9,a5,2830 <cvt+0x368>
    26e4:	fff7c703          	lbu	a4,-1(a5)
    26e8:	fff78793          	addi	a5,a5,-1
    26ec:	00170713          	addi	a4,a4,1
    26f0:	0ff77713          	zext.b	a4,a4
    26f4:	00e78023          	sb	a4,0(a5)
    26f8:	fee6e2e3          	bltu	a3,a4,26dc <cvt+0x214>
    26fc:	000a8023          	sb	zero,0(s5)
    2700:	05c12083          	lw	ra,92(sp)
    2704:	05812403          	lw	s0,88(sp)
    2708:	05412483          	lw	s1,84(sp)
    270c:	05012903          	lw	s2,80(sp)
    2710:	04c12983          	lw	s3,76(sp)
    2714:	04812a03          	lw	s4,72(sp)
    2718:	04412a83          	lw	s5,68(sp)
    271c:	03812c03          	lw	s8,56(sp)
    2720:	03012d03          	lw	s10,48(sp)
    2724:	02c12d83          	lw	s11,44(sp)
    2728:	000c8513          	mv	a0,s9
    272c:	03412c83          	lw	s9,52(sp)
    2730:	06010113          	addi	sp,sp,96
    2734:	00008067          	ret
    2738:	fff64793          	not	a5,a2
    273c:	41f7d793          	srai	a5,a5,0x1f
    2740:	00f677b3          	and	a5,a2,a5
    2744:	00f12623          	sw	a5,12(sp)
    2748:	dd5ff06f          	j	251c <cvt+0x54>
    274c:	00040513          	mv	a0,s0
    2750:	00048593          	mv	a1,s1
    2754:	00000613          	li	a2,0
    2758:	00000693          	li	a3,0
    275c:	6f1010ef          	jal	464c <__gedf2>
    2760:	10a05863          	blez	a0,2870 <cvt+0x3a8>
    2764:	00101a37          	lui	s4,0x101
    2768:	ae0a2603          	lw	a2,-1312(s4) # 100ae0 <__clz_tab+0x624>
    276c:	ae4a2683          	lw	a3,-1308(s4)
    2770:	00040513          	mv	a0,s0
    2774:	00048593          	mv	a1,s1
    2778:	05612023          	sw	s6,64(sp)
    277c:	03712e23          	sw	s7,60(sp)
    2780:	07c020ef          	jal	47fc <__muldf3>
    2784:	001017b7          	lui	a5,0x101
    2788:	af47a803          	lw	a6,-1292(a5) # 100af4 <__clz_tab+0x638>
    278c:	af07a783          	lw	a5,-1296(a5)
    2790:	00050b93          	mv	s7,a0
    2794:	01012223          	sw	a6,4(sp)
    2798:	00f12023          	sw	a5,0(sp)
    279c:	00012603          	lw	a2,0(sp)
    27a0:	00412683          	lw	a3,4(sp)
    27a4:	00058b13          	mv	s6,a1
    27a8:	00a12c23          	sw	a0,24(sp)
    27ac:	00b12e23          	sw	a1,28(sp)
    27b0:	775010ef          	jal	4724 <__ledf2>
    27b4:	00000913          	li	s2,0
    27b8:	12055263          	bgez	a0,28dc <cvt+0x414>
    27bc:	ae4a2a83          	lw	s5,-1308(s4)
    27c0:	ae0a2a03          	lw	s4,-1312(s4)
    27c4:	000b8513          	mv	a0,s7
    27c8:	000b0593          	mv	a1,s6
    27cc:	000a0613          	mv	a2,s4
    27d0:	000a8693          	mv	a3,s5
    27d4:	028020ef          	jal	47fc <__muldf3>
    27d8:	00012603          	lw	a2,0(sp)
    27dc:	00412683          	lw	a3,4(sp)
    27e0:	000b8413          	mv	s0,s7
    27e4:	000b0493          	mv	s1,s6
    27e8:	fff90913          	addi	s2,s2,-1
    27ec:	00050b93          	mv	s7,a0
    27f0:	00058b13          	mv	s6,a1
    27f4:	731010ef          	jal	4724 <__ledf2>
    27f8:	fc0546e3          	bltz	a0,27c4 <cvt+0x2fc>
    27fc:	00c12783          	lw	a5,12(sp)
    2800:	01712c23          	sw	s7,24(sp)
    2804:	01612e23          	sw	s6,28(sp)
    2808:	00fc8ab3          	add	s5,s9,a5
    280c:	080d9263          	bnez	s11,2890 <cvt+0x3c8>
    2810:	04012b03          	lw	s6,64(sp)
    2814:	03c12b83          	lw	s7,60(sp)
    2818:	000c8a13          	mv	s4,s9
    281c:	012a8ab3          	add	s5,s5,s2
    2820:	012d2023          	sw	s2,0(s10)
    2824:	e39afae3          	bgeu	s5,s9,2658 <cvt+0x190>
    2828:	000c8023          	sb	zero,0(s9)
    282c:	ed5ff06f          	j	2700 <cvt+0x238>
    2830:	00b78023          	sb	a1,0(a5)
    2834:	000d2703          	lw	a4,0(s10)
    2838:	00170713          	addi	a4,a4,1
    283c:	00ed2023          	sw	a4,0(s10)
    2840:	000d8863          	beqz	s11,2850 <cvt+0x388>
    2844:	0007c703          	lbu	a4,0(a5)
    2848:	e8e6eae3          	bltu	a3,a4,26dc <cvt+0x214>
    284c:	eb1ff06f          	j	26fc <cvt+0x234>
    2850:	015cf463          	bgeu	s9,s5,2858 <cvt+0x390>
    2854:	00ca8023          	sb	a2,0(s5)
    2858:	0007c703          	lbu	a4,0(a5)
    285c:	001a8a93          	addi	s5,s5,1
    2860:	e6e6eee3          	bltu	a3,a4,26dc <cvt+0x214>
    2864:	e99ff06f          	j	26fc <cvt+0x234>
    2868:	040c87a3          	sb	zero,79(s9)
    286c:	e95ff06f          	j	2700 <cvt+0x238>
    2870:	00c12783          	lw	a5,12(sp)
    2874:	00fc8ab3          	add	s5,s9,a5
    2878:	020d8a63          	beqz	s11,28ac <cvt+0x3e4>
    287c:	000d2023          	sw	zero,0(s10)
    2880:	fb9ae4e3          	bltu	s5,s9,2828 <cvt+0x360>
    2884:	050c8c13          	addi	s8,s9,80
    2888:	000c8a13          	mv	s4,s9
    288c:	dd5ff06f          	j	2660 <cvt+0x198>
    2890:	012d2023          	sw	s2,0(s10)
    2894:	059aee63          	bltu	s5,s9,28f0 <cvt+0x428>
    2898:	04012b03          	lw	s6,64(sp)
    289c:	03c12b83          	lw	s7,60(sp)
    28a0:	050c8c13          	addi	s8,s9,80
    28a4:	000c8a13          	mv	s4,s9
    28a8:	db9ff06f          	j	2660 <cvt+0x198>
    28ac:	00000913          	li	s2,0
    28b0:	000c8a13          	mv	s4,s9
    28b4:	012a8ab3          	add	s5,s5,s2
    28b8:	f69ff06f          	j	2820 <cvt+0x358>
    28bc:	00c12783          	lw	a5,12(sp)
    28c0:	00fc8ab3          	add	s5,s9,a5
    28c4:	020d8e63          	beqz	s11,2900 <cvt+0x438>
    28c8:	012d2023          	sw	s2,0(s10)
    28cc:	059ae263          	bltu	s5,s9,2910 <cvt+0x448>
    28d0:	04012b03          	lw	s6,64(sp)
    28d4:	000c8a13          	mv	s4,s9
    28d8:	d89ff06f          	j	2660 <cvt+0x198>
    28dc:	00c12783          	lw	a5,12(sp)
    28e0:	00fc8ab3          	add	s5,s9,a5
    28e4:	f20d86e3          	beqz	s11,2810 <cvt+0x348>
    28e8:	000d2023          	sw	zero,0(s10)
    28ec:	fb9af6e3          	bgeu	s5,s9,2898 <cvt+0x3d0>
    28f0:	04012b03          	lw	s6,64(sp)
    28f4:	03c12b83          	lw	s7,60(sp)
    28f8:	000c8023          	sb	zero,0(s9)
    28fc:	e05ff06f          	j	2700 <cvt+0x238>
    2900:	04012b03          	lw	s6,64(sp)
    2904:	000c8a13          	mv	s4,s9
    2908:	012a8ab3          	add	s5,s5,s2
    290c:	f15ff06f          	j	2820 <cvt+0x358>
    2910:	04012b03          	lw	s6,64(sp)
    2914:	000c8023          	sb	zero,0(s9)
    2918:	de9ff06f          	j	2700 <cvt+0x238>

0000291c <ecvt>:
    291c:	001017b7          	lui	a5,0x101
    2920:	b1878793          	addi	a5,a5,-1256 # 100b18 <CVTBUF>
    2924:	00100813          	li	a6,1
    2928:	ba1ff06f          	j	24c8 <cvt>

0000292c <ecvtbuf>:
    292c:	00100813          	li	a6,1
    2930:	b99ff06f          	j	24c8 <cvt>

00002934 <fcvt>:
    2934:	001017b7          	lui	a5,0x101
    2938:	b1878793          	addi	a5,a5,-1256 # 100b18 <CVTBUF>
    293c:	00000813          	li	a6,0
    2940:	b89ff06f          	j	24c8 <cvt>

00002944 <fcvtbuf>:
    2944:	00000813          	li	a6,0
    2948:	b81ff06f          	j	24c8 <cvt>

0000294c <number>:
    294c:	f6010113          	addi	sp,sp,-160
    2950:	08812c23          	sw	s0,152(sp)
    2954:	09212823          	sw	s2,144(sp)
    2958:	09312623          	sw	s3,140(sp)
    295c:	07812c23          	sw	s8,120(sp)
    2960:	08112e23          	sw	ra,156(sp)
    2964:	08912a23          	sw	s1,148(sp)
    2968:	09512223          	sw	s5,132(sp)
    296c:	09612023          	sw	s6,128(sp)
    2970:	07712e23          	sw	s7,124(sp)
    2974:	07912a23          	sw	s9,116(sp)
    2978:	07b12623          	sw	s11,108(sp)
    297c:	0407f813          	andi	a6,a5,64
    2980:	00050413          	mv	s0,a0
    2984:	00068993          	mv	s3,a3
    2988:	00058513          	mv	a0,a1
    298c:	00060913          	mv	s2,a2
    2990:	00070c13          	mv	s8,a4
    2994:	0e081a63          	bnez	a6,2a88 <number+0x13c>
    2998:	0107f713          	andi	a4,a5,16
    299c:	00101b37          	lui	s6,0x101
    29a0:	00e12623          	sw	a4,12(sp)
    29a4:	a88b0b13          	addi	s6,s6,-1400 # 100a88 <__clz_tab+0x5cc>
    29a8:	0e071a63          	bnez	a4,2a9c <number+0x150>
    29ac:	0017f713          	andi	a4,a5,1
    29b0:	fff70a93          	addi	s5,a4,-1
    29b4:	00e12423          	sw	a4,8(sp)
    29b8:	ff0afa93          	andi	s5,s5,-16
    29bc:	0027f713          	andi	a4,a5,2
    29c0:	030a8a93          	addi	s5,s5,48
    29c4:	0207fc93          	andi	s9,a5,32
    29c8:	0e070863          	beqz	a4,2ab8 <number+0x16c>
    29cc:	28054a63          	bltz	a0,2c60 <number+0x314>
    29d0:	0047f713          	andi	a4,a5,4
    29d4:	26071063          	bnez	a4,2c34 <number+0x2e8>
    29d8:	0087f793          	andi	a5,a5,8
    29dc:	00012223          	sw	zero,4(sp)
    29e0:	00078863          	beqz	a5,29f0 <number+0xa4>
    29e4:	02000793          	li	a5,32
    29e8:	fff98993          	addi	s3,s3,-1
    29ec:	00f12223          	sw	a5,4(sp)
    29f0:	000c8e63          	beqz	s9,2a0c <number+0xc0>
    29f4:	01000793          	li	a5,16
    29f8:	28f90e63          	beq	s2,a5,2c94 <number+0x348>
    29fc:	ff890793          	addi	a5,s2,-8
    2a00:	0017b793          	seqz	a5,a5
    2a04:	40f989b3          	sub	s3,s3,a5
    2a08:	02000c93          	li	s9,32
    2a0c:	1a051e63          	bnez	a0,2bc8 <number+0x27c>
    2a10:	03000793          	li	a5,48
    2a14:	00f10e23          	sb	a5,28(sp)
    2a18:	00000b93          	li	s7,0
    2a1c:	00100d93          	li	s11,1
    2a20:	01c10493          	addi	s1,sp,28
    2a24:	000d8513          	mv	a0,s11
    2a28:	018dd463          	bge	s11,s8,2a30 <number+0xe4>
    2a2c:	000c0513          	mv	a0,s8
    2a30:	00812783          	lw	a5,8(sp)
    2a34:	40a989b3          	sub	s3,s3,a0
    2a38:	08079663          	bnez	a5,2ac4 <number+0x178>
    2a3c:	01340633          	add	a2,s0,s3
    2a40:	00040793          	mv	a5,s0
    2a44:	02000693          	li	a3,32
    2a48:	07305c63          	blez	s3,2ac0 <number+0x174>
    2a4c:	00178793          	addi	a5,a5,1
    2a50:	fed78fa3          	sb	a3,-1(a5)
    2a54:	fec79ce3          	bne	a5,a2,2a4c <number+0x100>
    2a58:	00412703          	lw	a4,4(sp)
    2a5c:	00078413          	mv	s0,a5
    2a60:	1a071c63          	bnez	a4,2c18 <number+0x2cc>
    2a64:	000c8a63          	beqz	s9,2a78 <number+0x12c>
    2a68:	00800693          	li	a3,8
    2a6c:	24d90e63          	beq	s2,a3,2cc8 <number+0x37c>
    2a70:	01000693          	li	a3,16
    2a74:	1cd90863          	beq	s2,a3,2c44 <number+0x2f8>
    2a78:	00c12783          	lw	a5,12(sp)
    2a7c:	00f039b3          	snez	s3,a5
    2a80:	ffe98993          	addi	s3,s3,-2
    2a84:	08c0006f          	j	2b10 <number+0x1c4>
    2a88:	0107f713          	andi	a4,a5,16
    2a8c:	00101b37          	lui	s6,0x101
    2a90:	00e12623          	sw	a4,12(sp)
    2a94:	ab0b0b13          	addi	s6,s6,-1360 # 100ab0 <__clz_tab+0x5f4>
    2a98:	f0070ae3          	beqz	a4,29ac <number+0x60>
    2a9c:	ffe7f793          	andi	a5,a5,-2
    2aa0:	01000713          	li	a4,16
    2aa4:	00e12423          	sw	a4,8(sp)
    2aa8:	0027f713          	andi	a4,a5,2
    2aac:	02000a93          	li	s5,32
    2ab0:	0207fc93          	andi	s9,a5,32
    2ab4:	f0071ce3          	bnez	a4,29cc <number+0x80>
    2ab8:	00012223          	sw	zero,4(sp)
    2abc:	f35ff06f          	j	29f0 <number+0xa4>
    2ac0:	fff98993          	addi	s3,s3,-1
    2ac4:	00412783          	lw	a5,4(sp)
    2ac8:	00078663          	beqz	a5,2ad4 <number+0x188>
    2acc:	00f40023          	sb	a5,0(s0)
    2ad0:	00140413          	addi	s0,s0,1
    2ad4:	000c8a63          	beqz	s9,2ae8 <number+0x19c>
    2ad8:	00800793          	li	a5,8
    2adc:	1cf90263          	beq	s2,a5,2ca0 <number+0x354>
    2ae0:	01000793          	li	a5,16
    2ae4:	16f90263          	beq	s2,a5,2c48 <number+0x2fc>
    2ae8:	00c12783          	lw	a5,12(sp)
    2aec:	02079263          	bnez	a5,2b10 <number+0x1c4>
    2af0:	013406b3          	add	a3,s0,s3
    2af4:	00040793          	mv	a5,s0
    2af8:	21305a63          	blez	s3,2d0c <number+0x3c0>
    2afc:	00178793          	addi	a5,a5,1
    2b00:	ff578fa3          	sb	s5,-1(a5)
    2b04:	fed79ce3          	bne	a5,a3,2afc <number+0x1b0>
    2b08:	00078413          	mv	s0,a5
    2b0c:	fff00993          	li	s3,-1
    2b10:	00040793          	mv	a5,s0
    2b14:	00a405b3          	add	a1,s0,a0
    2b18:	03000613          	li	a2,48
    2b1c:	038dd663          	bge	s11,s8,2b48 <number+0x1fc>
    2b20:	00178793          	addi	a5,a5,1
    2b24:	40f586b3          	sub	a3,a1,a5
    2b28:	fec78fa3          	sb	a2,-1(a5)
    2b2c:	feddcae3          	blt	s11,a3,2b20 <number+0x1d4>
    2b30:	00000793          	li	a5,0
    2b34:	018dd663          	bge	s11,s8,2b40 <number+0x1f4>
    2b38:	41b507b3          	sub	a5,a0,s11
    2b3c:	fff78793          	addi	a5,a5,-1
    2b40:	00178793          	addi	a5,a5,1
    2b44:	00f40433          	add	s0,s0,a5
    2b48:	017487b3          	add	a5,s1,s7
    2b4c:	00040713          	mv	a4,s0
    2b50:	fff48493          	addi	s1,s1,-1
    2b54:	0007c683          	lbu	a3,0(a5)
    2b58:	fff78793          	addi	a5,a5,-1
    2b5c:	00170713          	addi	a4,a4,1
    2b60:	fed70fa3          	sb	a3,-1(a4)
    2b64:	fef498e3          	bne	s1,a5,2b54 <number+0x208>
    2b68:	01740433          	add	s0,s0,s7
    2b6c:	00140613          	addi	a2,s0,1
    2b70:	00060513          	mv	a0,a2
    2b74:	03305063          	blez	s3,2b94 <number+0x248>
    2b78:	00198713          	addi	a4,s3,1
    2b7c:	00870733          	add	a4,a4,s0
    2b80:	02000693          	li	a3,32
    2b84:	00d50023          	sb	a3,0(a0)
    2b88:	00150513          	addi	a0,a0,1
    2b8c:	fea71ce3          	bne	a4,a0,2b84 <number+0x238>
    2b90:	00c98533          	add	a0,s3,a2
    2b94:	09c12083          	lw	ra,156(sp)
    2b98:	09812403          	lw	s0,152(sp)
    2b9c:	09412483          	lw	s1,148(sp)
    2ba0:	09012903          	lw	s2,144(sp)
    2ba4:	08c12983          	lw	s3,140(sp)
    2ba8:	08412a83          	lw	s5,132(sp)
    2bac:	08012b03          	lw	s6,128(sp)
    2bb0:	07c12b83          	lw	s7,124(sp)
    2bb4:	07812c03          	lw	s8,120(sp)
    2bb8:	07412c83          	lw	s9,116(sp)
    2bbc:	06c12d83          	lw	s11,108(sp)
    2bc0:	0a010113          	addi	sp,sp,160
    2bc4:	00008067          	ret
    2bc8:	09412423          	sw	s4,136(sp)
    2bcc:	07a12823          	sw	s10,112(sp)
    2bd0:	00000d93          	li	s11,0
    2bd4:	01c10493          	addi	s1,sp,28
    2bd8:	00090593          	mv	a1,s2
    2bdc:	00050a13          	mv	s4,a0
    2be0:	3a8020ef          	jal	4f88 <__umodsi3>
    2be4:	00ab0533          	add	a0,s6,a0
    2be8:	00054683          	lbu	a3,0(a0)
    2bec:	000d8b93          	mv	s7,s11
    2bf0:	001d8d93          	addi	s11,s11,1
    2bf4:	01b48d33          	add	s10,s1,s11
    2bf8:	000a0513          	mv	a0,s4
    2bfc:	00090593          	mv	a1,s2
    2c00:	fedd0fa3          	sb	a3,-1(s10)
    2c04:	33c020ef          	jal	4f40 <__hidden___udivsi3>
    2c08:	fd2a78e3          	bgeu	s4,s2,2bd8 <number+0x28c>
    2c0c:	08812a03          	lw	s4,136(sp)
    2c10:	07012d03          	lw	s10,112(sp)
    2c14:	e11ff06f          	j	2a24 <number+0xd8>
    2c18:	00e78023          	sb	a4,0(a5)
    2c1c:	00178413          	addi	s0,a5,1
    2c20:	080c9863          	bnez	s9,2cb0 <number+0x364>
    2c24:	00c12783          	lw	a5,12(sp)
    2c28:	0a079a63          	bnez	a5,2cdc <number+0x390>
    2c2c:	ffe00993          	li	s3,-2
    2c30:	ee1ff06f          	j	2b10 <number+0x1c4>
    2c34:	02b00793          	li	a5,43
    2c38:	fff98993          	addi	s3,s3,-1
    2c3c:	00f12223          	sw	a5,4(sp)
    2c40:	db1ff06f          	j	29f0 <number+0xa4>
    2c44:	fff00993          	li	s3,-1
    2c48:	03000693          	li	a3,48
    2c4c:	07800793          	li	a5,120
    2c50:	00d40023          	sb	a3,0(s0)
    2c54:	00f400a3          	sb	a5,1(s0)
    2c58:	00240413          	addi	s0,s0,2
    2c5c:	e8dff06f          	j	2ae8 <number+0x19c>
    2c60:	09412423          	sw	s4,136(sp)
    2c64:	07a12823          	sw	s10,112(sp)
    2c68:	40a00533          	neg	a0,a0
    2c6c:	040c8663          	beqz	s9,2cb8 <number+0x36c>
    2c70:	01000793          	li	a5,16
    2c74:	08f90263          	beq	s2,a5,2cf8 <number+0x3ac>
    2c78:	00800793          	li	a5,8
    2c7c:	06f90463          	beq	s2,a5,2ce4 <number+0x398>
    2c80:	02d00793          	li	a5,45
    2c84:	fff98993          	addi	s3,s3,-1
    2c88:	00f12223          	sw	a5,4(sp)
    2c8c:	02000c93          	li	s9,32
    2c90:	f41ff06f          	j	2bd0 <number+0x284>
    2c94:	ffe98993          	addi	s3,s3,-2
    2c98:	02000c93          	li	s9,32
    2c9c:	d71ff06f          	j	2a0c <number+0xc0>
    2ca0:	03000793          	li	a5,48
    2ca4:	00f40023          	sb	a5,0(s0)
    2ca8:	00140413          	addi	s0,s0,1
    2cac:	e3dff06f          	j	2ae8 <number+0x19c>
    2cb0:	fff00993          	li	s3,-1
    2cb4:	e25ff06f          	j	2ad8 <number+0x18c>
    2cb8:	02d00793          	li	a5,45
    2cbc:	fff98993          	addi	s3,s3,-1
    2cc0:	00f12223          	sw	a5,4(sp)
    2cc4:	f0dff06f          	j	2bd0 <number+0x284>
    2cc8:	03000793          	li	a5,48
    2ccc:	00f40023          	sb	a5,0(s0)
    2cd0:	00c12783          	lw	a5,12(sp)
    2cd4:	00140413          	addi	s0,s0,1
    2cd8:	f4078ae3          	beqz	a5,2c2c <number+0x2e0>
    2cdc:	fff00993          	li	s3,-1
    2ce0:	e31ff06f          	j	2b10 <number+0x1c4>
    2ce4:	02d00793          	li	a5,45
    2ce8:	ffe98993          	addi	s3,s3,-2
    2cec:	00f12223          	sw	a5,4(sp)
    2cf0:	02000c93          	li	s9,32
    2cf4:	eddff06f          	j	2bd0 <number+0x284>
    2cf8:	02d00793          	li	a5,45
    2cfc:	ffd98993          	addi	s3,s3,-3
    2d00:	00f12223          	sw	a5,4(sp)
    2d04:	02000c93          	li	s9,32
    2d08:	ec9ff06f          	j	2bd0 <number+0x284>
    2d0c:	fff98993          	addi	s3,s3,-1
    2d10:	e01ff06f          	j	2b10 <number+0x1c4>

00002d14 <uart_send_char>:
    2d14:	01000737          	lui	a4,0x1000
    2d18:	00870713          	addi	a4,a4,8 # 1000008 <_stack_end+0xef0008>
    2d1c:	00072783          	lw	a5,0(a4)
    2d20:	0087f793          	andi	a5,a5,8
    2d24:	fe079ce3          	bnez	a5,2d1c <uart_send_char+0x8>
    2d28:	010007b7          	lui	a5,0x1000
    2d2c:	00a7a223          	sw	a0,4(a5) # 1000004 <_stack_end+0xef0004>
    2d30:	00008067          	ret

00002d34 <printf>:
    2d34:	b6010113          	addi	sp,sp,-1184
    2d38:	47212823          	sw	s2,1136(sp)
    2d3c:	46112e23          	sw	ra,1148(sp)
    2d40:	46912a23          	sw	s1,1140(sp)
    2d44:	48b12223          	sw	a1,1156(sp)
    2d48:	48c12423          	sw	a2,1160(sp)
    2d4c:	48d12623          	sw	a3,1164(sp)
    2d50:	48e12823          	sw	a4,1168(sp)
    2d54:	48f12a23          	sw	a5,1172(sp)
    2d58:	49012c23          	sw	a6,1176(sp)
    2d5c:	49112e23          	sw	a7,1180(sp)
    2d60:	00054783          	lbu	a5,0(a0)
    2d64:	48410913          	addi	s2,sp,1156
    2d68:	03212a23          	sw	s2,52(sp)
    2d6c:	080786e3          	beqz	a5,35f8 <printf+0x8c4>
    2d70:	47312623          	sw	s3,1132(sp)
    2d74:	05010493          	addi	s1,sp,80
    2d78:	001009b7          	lui	s3,0x100
    2d7c:	46812c23          	sw	s0,1144(sp)
    2d80:	47412423          	sw	s4,1128(sp)
    2d84:	47512223          	sw	s5,1124(sp)
    2d88:	47612023          	sw	s6,1120(sp)
    2d8c:	45712e23          	sw	s7,1116(sp)
    2d90:	00050313          	mv	t1,a0
    2d94:	00048813          	mv	a6,s1
    2d98:	27c98993          	addi	s3,s3,636 # 10027c <state_known_crc+0x224>
    2d9c:	02500a13          	li	s4,37
    2da0:	01000413          	li	s0,16
    2da4:	00900b13          	li	s6,9
    2da8:	02e00a93          	li	s5,46
    2dac:	07478863          	beq	a5,s4,2e1c <printf+0xe8>
    2db0:	00f80023          	sb	a5,0(a6)
    2db4:	00134783          	lbu	a5,1(t1)
    2db8:	00180813          	addi	a6,a6,1
    2dbc:	00130313          	addi	t1,t1,1
    2dc0:	fe0796e3          	bnez	a5,2dac <printf+0x78>
    2dc4:	47812403          	lw	s0,1144(sp)
    2dc8:	46c12983          	lw	s3,1132(sp)
    2dcc:	46812a03          	lw	s4,1128(sp)
    2dd0:	46412a83          	lw	s5,1124(sp)
    2dd4:	46012b03          	lw	s6,1120(sp)
    2dd8:	45c12b83          	lw	s7,1116(sp)
    2ddc:	00080023          	sb	zero,0(a6)
    2de0:	05014603          	lbu	a2,80(sp)
    2de4:	020604e3          	beqz	a2,360c <printf+0x8d8>
    2de8:	01000737          	lui	a4,0x1000
    2dec:	010005b7          	lui	a1,0x1000
    2df0:	00870713          	addi	a4,a4,8 # 1000008 <_stack_end+0xef0008>
    2df4:	00458593          	addi	a1,a1,4 # 1000004 <_stack_end+0xef0004>
    2df8:	00048693          	mv	a3,s1
    2dfc:	00072783          	lw	a5,0(a4)
    2e00:	0087f793          	andi	a5,a5,8
    2e04:	fe079ce3          	bnez	a5,2dfc <printf+0xc8>
    2e08:	00c5a023          	sw	a2,0(a1)
    2e0c:	0016c603          	lbu	a2,1(a3)
    2e10:	10060c63          	beqz	a2,2f28 <printf+0x1f4>
    2e14:	00168693          	addi	a3,a3,1
    2e18:	fe5ff06f          	j	2dfc <printf+0xc8>
    2e1c:	00000793          	li	a5,0
    2e20:	00134603          	lbu	a2,1(t1)
    2e24:	00130893          	addi	a7,t1,1
    2e28:	fe060713          	addi	a4,a2,-32
    2e2c:	0ff77713          	zext.b	a4,a4
    2e30:	00e46a63          	bltu	s0,a4,2e44 <printf+0x110>
    2e34:	00271713          	slli	a4,a4,0x2
    2e38:	01370733          	add	a4,a4,s3
    2e3c:	00072703          	lw	a4,0(a4)
    2e40:	00070067          	jr	a4
    2e44:	fd060713          	addi	a4,a2,-48
    2e48:	0ff77713          	zext.b	a4,a4
    2e4c:	12eb7263          	bgeu	s6,a4,2f70 <printf+0x23c>
    2e50:	02a00713          	li	a4,42
    2e54:	fff00693          	li	a3,-1
    2e58:	14e60663          	beq	a2,a4,2fa4 <printf+0x270>
    2e5c:	fff00713          	li	a4,-1
    2e60:	0f560263          	beq	a2,s5,2f44 <printf+0x210>
    2e64:	0df67593          	andi	a1,a2,223
    2e68:	04c00513          	li	a0,76
    2e6c:	08a59a63          	bne	a1,a0,2f00 <printf+0x1cc>
    2e70:	00060313          	mv	t1,a2
    2e74:	0018c603          	lbu	a2,1(a7)
    2e78:	03700513          	li	a0,55
    2e7c:	00188b93          	addi	s7,a7,1
    2e80:	fbf60593          	addi	a1,a2,-65
    2e84:	0ff5f593          	zext.b	a1,a1
    2e88:	04b56c63          	bltu	a0,a1,2ee0 <printf+0x1ac>
    2e8c:	00100537          	lui	a0,0x100
    2e90:	00259593          	slli	a1,a1,0x2
    2e94:	2c050513          	addi	a0,a0,704 # 1002c0 <state_known_crc+0x268>
    2e98:	00a585b3          	add	a1,a1,a0
    2e9c:	0005a583          	lw	a1,0(a1)
    2ea0:	00058067          	jr	a1
    2ea4:	0017e793          	ori	a5,a5,1
    2ea8:	00088313          	mv	t1,a7
    2eac:	f75ff06f          	j	2e20 <printf+0xec>
    2eb0:	0107e793          	ori	a5,a5,16
    2eb4:	00088313          	mv	t1,a7
    2eb8:	f69ff06f          	j	2e20 <printf+0xec>
    2ebc:	0047e793          	ori	a5,a5,4
    2ec0:	00088313          	mv	t1,a7
    2ec4:	f5dff06f          	j	2e20 <printf+0xec>
    2ec8:	0207e793          	ori	a5,a5,32
    2ecc:	00088313          	mv	t1,a7
    2ed0:	f51ff06f          	j	2e20 <printf+0xec>
    2ed4:	0087e793          	ori	a5,a5,8
    2ed8:	00088313          	mv	t1,a7
    2edc:	f45ff06f          	j	2e20 <printf+0xec>
    2ee0:	000b8893          	mv	a7,s7
    2ee4:	02500793          	li	a5,37
    2ee8:	2af60663          	beq	a2,a5,3194 <printf+0x460>
    2eec:	00f80023          	sb	a5,0(a6)
    2ef0:	0008c783          	lbu	a5,0(a7)
    2ef4:	00180813          	addi	a6,a6,1
    2ef8:	ec0786e3          	beqz	a5,2dc4 <printf+0x90>
    2efc:	29c0006f          	j	3198 <printf+0x464>
    2f00:	fbf60593          	addi	a1,a2,-65
    2f04:	0ff5f593          	zext.b	a1,a1
    2f08:	03700513          	li	a0,55
    2f0c:	fcb56ce3          	bltu	a0,a1,2ee4 <printf+0x1b0>
    2f10:	00100537          	lui	a0,0x100
    2f14:	00259593          	slli	a1,a1,0x2
    2f18:	3a050513          	addi	a0,a0,928 # 1003a0 <state_known_crc+0x348>
    2f1c:	00a585b3          	add	a1,a1,a0
    2f20:	0005a583          	lw	a1,0(a1)
    2f24:	00058067          	jr	a1
    2f28:	47c12083          	lw	ra,1148(sp)
    2f2c:	409686b3          	sub	a3,a3,s1
    2f30:	47012903          	lw	s2,1136(sp)
    2f34:	47412483          	lw	s1,1140(sp)
    2f38:	00168513          	addi	a0,a3,1
    2f3c:	4a010113          	addi	sp,sp,1184
    2f40:	00008067          	ret
    2f44:	0018c603          	lbu	a2,1(a7)
    2f48:	00900313          	li	t1,9
    2f4c:	00188593          	addi	a1,a7,1
    2f50:	fd060713          	addi	a4,a2,-48
    2f54:	0ff77713          	zext.b	a4,a4
    2f58:	1ce37e63          	bgeu	t1,a4,3134 <printf+0x400>
    2f5c:	02a00713          	li	a4,42
    2f60:	20e60a63          	beq	a2,a4,3174 <printf+0x440>
    2f64:	00058893          	mv	a7,a1
    2f68:	00000713          	li	a4,0
    2f6c:	ef9ff06f          	j	2e64 <printf+0x130>
    2f70:	00000693          	li	a3,0
    2f74:	00900593          	li	a1,9
    2f78:	00269713          	slli	a4,a3,0x2
    2f7c:	00d70733          	add	a4,a4,a3
    2f80:	00188893          	addi	a7,a7,1
    2f84:	00171713          	slli	a4,a4,0x1
    2f88:	00c70733          	add	a4,a4,a2
    2f8c:	0008c603          	lbu	a2,0(a7)
    2f90:	fd070693          	addi	a3,a4,-48
    2f94:	fd060713          	addi	a4,a2,-48
    2f98:	0ff77713          	zext.b	a4,a4
    2f9c:	fce5fee3          	bgeu	a1,a4,2f78 <printf+0x244>
    2fa0:	ebdff06f          	j	2e5c <printf+0x128>
    2fa4:	00092683          	lw	a3,0(s2)
    2fa8:	00234603          	lbu	a2,2(t1)
    2fac:	00230893          	addi	a7,t1,2
    2fb0:	0006c663          	bltz	a3,2fbc <printf+0x288>
    2fb4:	00490913          	addi	s2,s2,4
    2fb8:	ea5ff06f          	j	2e5c <printf+0x128>
    2fbc:	40d006b3          	neg	a3,a3
    2fc0:	0107e793          	ori	a5,a5,16
    2fc4:	00490913          	addi	s2,s2,4
    2fc8:	e95ff06f          	j	2e5c <printf+0x128>
    2fcc:	0407e793          	ori	a5,a5,64
    2fd0:	01000613          	li	a2,16
    2fd4:	00092583          	lw	a1,0(s2)
    2fd8:	00490913          	addi	s2,s2,4
    2fdc:	00080513          	mv	a0,a6
    2fe0:	96dff0ef          	jal	294c <number>
    2fe4:	001bc783          	lbu	a5,1(s7)
    2fe8:	00050813          	mv	a6,a0
    2fec:	001b8313          	addi	t1,s7,1
    2ff0:	da079ee3          	bnez	a5,2dac <printf+0x78>
    2ff4:	dd1ff06f          	j	2dc4 <printf+0x90>
    2ff8:	00088b93          	mv	s7,a7
    2ffc:	00a00613          	li	a2,10
    3000:	fd5ff06f          	j	2fd4 <printf+0x2a0>
    3004:	000b8893          	mv	a7,s7
    3008:	0107f793          	andi	a5,a5,16
    300c:	00490593          	addi	a1,s2,4
    3010:	00188313          	addi	t1,a7,1
    3014:	1a078c63          	beqz	a5,31cc <printf+0x498>
    3018:	00092783          	lw	a5,0(s2)
    301c:	00180613          	addi	a2,a6,1
    3020:	00100513          	li	a0,1
    3024:	00f80023          	sb	a5,0(a6)
    3028:	02000713          	li	a4,32
    302c:	00d80833          	add	a6,a6,a3
    3030:	00060793          	mv	a5,a2
    3034:	66d55e63          	bge	a0,a3,36b0 <printf+0x97c>
    3038:	00178793          	addi	a5,a5,1
    303c:	fee78fa3          	sb	a4,-1(a5)
    3040:	ff079ce3          	bne	a5,a6,3038 <printf+0x304>
    3044:	fff68693          	addi	a3,a3,-1
    3048:	00d60833          	add	a6,a2,a3
    304c:	0018c783          	lbu	a5,1(a7)
    3050:	00058913          	mv	s2,a1
    3054:	d4079ce3          	bnez	a5,2dac <printf+0x78>
    3058:	d6dff06f          	j	2dc4 <printf+0x90>
    305c:	000b8893          	mv	a7,s7
    3060:	00092603          	lw	a2,0(s2)
    3064:	00490913          	addi	s2,s2,4
    3068:	14060a63          	beqz	a2,31bc <printf+0x488>
    306c:	00064583          	lbu	a1,0(a2)
    3070:	0107f793          	andi	a5,a5,16
    3074:	60058a63          	beqz	a1,3688 <printf+0x954>
    3078:	00e60533          	add	a0,a2,a4
    307c:	00060713          	mv	a4,a2
    3080:	00a70a63          	beq	a4,a0,3094 <printf+0x360>
    3084:	00174583          	lbu	a1,1(a4)
    3088:	00170713          	addi	a4,a4,1
    308c:	fe059ae3          	bnez	a1,3080 <printf+0x34c>
    3090:	00070513          	mv	a0,a4
    3094:	40c50533          	sub	a0,a0,a2
    3098:	16078863          	beqz	a5,3208 <printf+0x4d4>
    309c:	02a05263          	blez	a0,30c0 <printf+0x38c>
    30a0:	00a605b3          	add	a1,a2,a0
    30a4:	00080793          	mv	a5,a6
    30a8:	00064703          	lbu	a4,0(a2)
    30ac:	00160613          	addi	a2,a2,1
    30b0:	00178793          	addi	a5,a5,1
    30b4:	fee78fa3          	sb	a4,-1(a5)
    30b8:	feb618e3          	bne	a2,a1,30a8 <printf+0x374>
    30bc:	00a80833          	add	a6,a6,a0
    30c0:	40a68733          	sub	a4,a3,a0
    30c4:	00e80733          	add	a4,a6,a4
    30c8:	00188313          	addi	t1,a7,1
    30cc:	00080793          	mv	a5,a6
    30d0:	02000613          	li	a2,32
    30d4:	00d55c63          	bge	a0,a3,30ec <printf+0x3b8>
    30d8:	00178793          	addi	a5,a5,1
    30dc:	fec78fa3          	sb	a2,-1(a5)
    30e0:	fee79ce3          	bne	a5,a4,30d8 <printf+0x3a4>
    30e4:	00d806b3          	add	a3,a6,a3
    30e8:	40a68833          	sub	a6,a3,a0
    30ec:	0018c783          	lbu	a5,1(a7)
    30f0:	ca079ee3          	bnez	a5,2dac <printf+0x78>
    30f4:	cd1ff06f          	j	2dc4 <printf+0x90>
    30f8:	000b8893          	mv	a7,s7
    30fc:	fff00613          	li	a2,-1
    3100:	0ac68863          	beq	a3,a2,31b0 <printf+0x47c>
    3104:	00092583          	lw	a1,0(s2)
    3108:	00080513          	mv	a0,a6
    310c:	01000613          	li	a2,16
    3110:	01112623          	sw	a7,12(sp)
    3114:	839ff0ef          	jal	294c <number>
    3118:	00c12883          	lw	a7,12(sp)
    311c:	00490913          	addi	s2,s2,4
    3120:	00050813          	mv	a6,a0
    3124:	0018c783          	lbu	a5,1(a7)
    3128:	00188313          	addi	t1,a7,1
    312c:	c80790e3          	bnez	a5,2dac <printf+0x78>
    3130:	c95ff06f          	j	2dc4 <printf+0x90>
    3134:	00000513          	li	a0,0
    3138:	00251713          	slli	a4,a0,0x2
    313c:	00a70733          	add	a4,a4,a0
    3140:	00158593          	addi	a1,a1,1
    3144:	00171713          	slli	a4,a4,0x1
    3148:	00c70733          	add	a4,a4,a2
    314c:	0005c603          	lbu	a2,0(a1)
    3150:	fd070513          	addi	a0,a4,-48
    3154:	fd060713          	addi	a4,a2,-48
    3158:	0ff77713          	zext.b	a4,a4
    315c:	fce37ee3          	bgeu	t1,a4,3138 <printf+0x404>
    3160:	fff54713          	not	a4,a0
    3164:	41f75713          	srai	a4,a4,0x1f
    3168:	00058893          	mv	a7,a1
    316c:	00e57733          	and	a4,a0,a4
    3170:	cf5ff06f          	j	2e64 <printf+0x130>
    3174:	00092703          	lw	a4,0(s2)
    3178:	0028c603          	lbu	a2,2(a7)
    317c:	00490913          	addi	s2,s2,4
    3180:	fff74593          	not	a1,a4
    3184:	41f5d593          	srai	a1,a1,0x1f
    3188:	00b77733          	and	a4,a4,a1
    318c:	00288893          	addi	a7,a7,2
    3190:	cd5ff06f          	j	2e64 <printf+0x130>
    3194:	0008c783          	lbu	a5,0(a7)
    3198:	00f80023          	sb	a5,0(a6)
    319c:	0018c783          	lbu	a5,1(a7)
    31a0:	00180813          	addi	a6,a6,1
    31a4:	00188313          	addi	t1,a7,1
    31a8:	c00792e3          	bnez	a5,2dac <printf+0x78>
    31ac:	c19ff06f          	j	2dc4 <printf+0x90>
    31b0:	0017e793          	ori	a5,a5,1
    31b4:	00800693          	li	a3,8
    31b8:	f4dff06f          	j	3104 <printf+0x3d0>
    31bc:	00101637          	lui	a2,0x101
    31c0:	0107f793          	andi	a5,a5,16
    31c4:	ad860613          	addi	a2,a2,-1320 # 100ad8 <__clz_tab+0x61c>
    31c8:	eb1ff06f          	j	3078 <printf+0x344>
    31cc:	00100793          	li	a5,1
    31d0:	48d7de63          	bge	a5,a3,366c <printf+0x938>
    31d4:	fff68713          	addi	a4,a3,-1
    31d8:	00e80733          	add	a4,a6,a4
    31dc:	00080793          	mv	a5,a6
    31e0:	02000613          	li	a2,32
    31e4:	00178793          	addi	a5,a5,1
    31e8:	fec78fa3          	sb	a2,-1(a5)
    31ec:	fee79ce3          	bne	a5,a4,31e4 <printf+0x4b0>
    31f0:	00092783          	lw	a5,0(s2)
    31f4:	fff80813          	addi	a6,a6,-1
    31f8:	00d80833          	add	a6,a6,a3
    31fc:	00f80023          	sb	a5,0(a6)
    3200:	00180813          	addi	a6,a6,1
    3204:	e49ff06f          	j	304c <printf+0x318>
    3208:	44d55e63          	bge	a0,a3,3664 <printf+0x930>
    320c:	40a68733          	sub	a4,a3,a0
    3210:	00e80733          	add	a4,a6,a4
    3214:	00080793          	mv	a5,a6
    3218:	02000593          	li	a1,32
    321c:	00178793          	addi	a5,a5,1
    3220:	feb78fa3          	sb	a1,-1(a5)
    3224:	fee79ce3          	bne	a5,a4,321c <printf+0x4e8>
    3228:	00d806b3          	add	a3,a6,a3
    322c:	40a68833          	sub	a6,a3,a0
    3230:	fff50693          	addi	a3,a0,-1
    3234:	e69ff06f          	j	309c <printf+0x368>
    3238:	06c00613          	li	a2,108
    323c:	0027e793          	ori	a5,a5,2
    3240:	dac30ee3          	beq	t1,a2,2ffc <printf+0x2c8>
    3244:	00092583          	lw	a1,0(s2)
    3248:	00a00613          	li	a2,10
    324c:	00490913          	addi	s2,s2,4
    3250:	d8dff06f          	j	2fdc <printf+0x2a8>
    3254:	06c00713          	li	a4,108
    3258:	1ce30e63          	beq	t1,a4,3434 <printf+0x700>
    325c:	45912a23          	sw	s9,1108(sp)
    3260:	00092e83          	lw	t4,0(s2)
    3264:	00490c93          	addi	s9,s2,4
    3268:	000ec883          	lbu	a7,0(t4) # ffff8000 <_stack_end+0xffee8000>
    326c:	2e088e63          	beqz	a7,3568 <printf+0x834>
    3270:	00000913          	li	s2,0
    3274:	00000313          	li	t1,0
    3278:	00100713          	li	a4,1
    327c:	06300613          	li	a2,99
    3280:	2d165a63          	bge	a2,a7,3554 <printf+0x820>
    3284:	02e12623          	sw	a4,44(sp)
    3288:	00f12e23          	sw	a5,28(sp)
    328c:	03010713          	addi	a4,sp,48
    3290:	42030793          	addi	a5,t1,1056
    3294:	00e78f33          	add	t5,a5,a4
    3298:	00088513          	mv	a0,a7
    329c:	06400593          	li	a1,100
    32a0:	02d12423          	sw	a3,40(sp)
    32a4:	03012223          	sw	a6,36(sp)
    32a8:	03d12023          	sw	t4,32(sp)
    32ac:	01112c23          	sw	a7,24(sp)
    32b0:	45812c23          	sw	s8,1112(sp)
    32b4:	00612a23          	sw	t1,20(sp)
    32b8:	01e12823          	sw	t5,16(sp)
    32bc:	47d010ef          	jal	4f38 <__divsi3>
    32c0:	00101637          	lui	a2,0x101
    32c4:	a8860613          	addi	a2,a2,-1400 # 100a88 <__clz_tab+0x5cc>
    32c8:	00a605b3          	add	a1,a2,a0
    32cc:	0005cf83          	lbu	t6,0(a1)
    32d0:	01012f03          	lw	t5,16(sp)
    32d4:	01812503          	lw	a0,24(sp)
    32d8:	06400593          	li	a1,100
    32dc:	bfff0423          	sb	t6,-1048(t5)
    32e0:	00c12623          	sw	a2,12(sp)
    32e4:	4d9010ef          	jal	4fbc <__modsi3>
    32e8:	02c12703          	lw	a4,44(sp)
    32ec:	01412303          	lw	t1,20(sp)
    32f0:	00a00593          	li	a1,10
    32f4:	42070793          	addi	a5,a4,1056
    32f8:	03010713          	addi	a4,sp,48
    32fc:	00e78733          	add	a4,a5,a4
    3300:	00230313          	addi	t1,t1,2
    3304:	00050c13          	mv	s8,a0
    3308:	00612a23          	sw	t1,20(sp)
    330c:	00e12823          	sw	a4,16(sp)
    3310:	429010ef          	jal	4f38 <__divsi3>
    3314:	00c12603          	lw	a2,12(sp)
    3318:	01012703          	lw	a4,16(sp)
    331c:	00a605b3          	add	a1,a2,a0
    3320:	0005c883          	lbu	a7,0(a1)
    3324:	000c0513          	mv	a0,s8
    3328:	00a00593          	li	a1,10
    332c:	bf170423          	sb	a7,-1048(a4)
    3330:	48d010ef          	jal	4fbc <__modsi3>
    3334:	00c12603          	lw	a2,12(sp)
    3338:	01412303          	lw	t1,20(sp)
    333c:	01c12783          	lw	a5,28(sp)
    3340:	02012e83          	lw	t4,32(sp)
    3344:	02412803          	lw	a6,36(sp)
    3348:	02812683          	lw	a3,40(sp)
    334c:	45812c03          	lw	s8,1112(sp)
    3350:	00050893          	mv	a7,a0
    3354:	01160633          	add	a2,a2,a7
    3358:	00064583          	lbu	a1,0(a2)
    335c:	00230633          	add	a2,t1,sp
    3360:	00190913          	addi	s2,s2,1
    3364:	02b60c23          	sb	a1,56(a2)
    3368:	00400613          	li	a2,4
    336c:	00130713          	addi	a4,t1,1
    3370:	02c90e63          	beq	s2,a2,33ac <printf+0x678>
    3374:	012e8633          	add	a2,t4,s2
    3378:	00064883          	lbu	a7,0(a2)
    337c:	02e00593          	li	a1,46
    3380:	00270633          	add	a2,a4,sp
    3384:	02b60c23          	sb	a1,56(a2)
    3388:	00170313          	addi	t1,a4,1
    338c:	00270713          	addi	a4,a4,2
    3390:	ee0896e3          	bnez	a7,327c <printf+0x548>
    3394:	03000613          	li	a2,48
    3398:	00230333          	add	t1,t1,sp
    339c:	02c30c23          	sb	a2,56(t1)
    33a0:	00190913          	addi	s2,s2,1
    33a4:	00400613          	li	a2,4
    33a8:	fcc916e3          	bne	s2,a2,3374 <printf+0x640>
    33ac:	0107f793          	andi	a5,a5,16
    33b0:	02079863          	bnez	a5,33e0 <printf+0x6ac>
    33b4:	2ed75663          	bge	a4,a3,36a0 <printf+0x96c>
    33b8:	40e68633          	sub	a2,a3,a4
    33bc:	00c80633          	add	a2,a6,a2
    33c0:	00080793          	mv	a5,a6
    33c4:	02000593          	li	a1,32
    33c8:	00178793          	addi	a5,a5,1
    33cc:	feb78fa3          	sb	a1,-1(a5)
    33d0:	fec79ce3          	bne	a5,a2,33c8 <printf+0x694>
    33d4:	00d806b3          	add	a3,a6,a3
    33d8:	40e68833          	sub	a6,a3,a4
    33dc:	fff70693          	addi	a3,a4,-1
    33e0:	02e05063          	blez	a4,3400 <printf+0x6cc>
    33e4:	03810793          	addi	a5,sp,56
    33e8:	00e805b3          	add	a1,a6,a4
    33ec:	0007c603          	lbu	a2,0(a5)
    33f0:	00180813          	addi	a6,a6,1
    33f4:	00178793          	addi	a5,a5,1
    33f8:	fec80fa3          	sb	a2,-1(a6)
    33fc:	feb818e3          	bne	a6,a1,33ec <printf+0x6b8>
    3400:	00d75e63          	bge	a4,a3,341c <printf+0x6e8>
    3404:	40e687b3          	sub	a5,a3,a4
    3408:	00f807b3          	add	a5,a6,a5
    340c:	02000713          	li	a4,32
    3410:	00180813          	addi	a6,a6,1
    3414:	fee80fa3          	sb	a4,-1(a6)
    3418:	fef81ce3          	bne	a6,a5,3410 <printf+0x6dc>
    341c:	001bc783          	lbu	a5,1(s7)
    3420:	000c8913          	mv	s2,s9
    3424:	001b8313          	addi	t1,s7,1
    3428:	45412c83          	lw	s9,1108(sp)
    342c:	980790e3          	bnez	a5,2dac <printf+0x78>
    3430:	995ff06f          	j	2dc4 <printf+0x90>
    3434:	00101637          	lui	a2,0x101
    3438:	00092e83          	lw	t4,0(s2)
    343c:	a8860613          	addi	a2,a2,-1400 # 100a88 <__clz_tab+0x5cc>
    3440:	00490913          	addi	s2,s2,4
    3444:	00000313          	li	t1,0
    3448:	00000513          	li	a0,0
    344c:	00600f13          	li	t5,6
    3450:	03a00f93          	li	t6,58
    3454:	0100006f          	j	3464 <printf+0x730>
    3458:	00570733          	add	a4,a4,t0
    345c:	01f70423          	sb	t6,8(a4)
    3460:	00350513          	addi	a0,a0,3
    3464:	006e8733          	add	a4,t4,t1
    3468:	00074703          	lbu	a4,0(a4)
    346c:	03010293          	addi	t0,sp,48
    3470:	00130313          	addi	t1,t1,1
    3474:	00475593          	srli	a1,a4,0x4
    3478:	00b605b3          	add	a1,a2,a1
    347c:	0005c583          	lbu	a1,0(a1)
    3480:	00f77713          	andi	a4,a4,15
    3484:	00e60733          	add	a4,a2,a4
    3488:	00074e03          	lbu	t3,0(a4)
    348c:	00550733          	add	a4,a0,t0
    3490:	00b70423          	sb	a1,8(a4)
    3494:	00150593          	addi	a1,a0,1
    3498:	00558733          	add	a4,a1,t0
    349c:	01c70423          	sb	t3,8(a4)
    34a0:	00250713          	addi	a4,a0,2
    34a4:	fbe31ae3          	bne	t1,t5,3458 <printf+0x724>
    34a8:	0107f793          	andi	a5,a5,16
    34ac:	02079863          	bnez	a5,34dc <printf+0x7a8>
    34b0:	40e68633          	sub	a2,a3,a4
    34b4:	00c80633          	add	a2,a6,a2
    34b8:	00080793          	mv	a5,a6
    34bc:	02000513          	li	a0,32
    34c0:	1ed75463          	bge	a4,a3,36a8 <printf+0x974>
    34c4:	00178793          	addi	a5,a5,1
    34c8:	fea78fa3          	sb	a0,-1(a5)
    34cc:	fec79ce3          	bne	a5,a2,34c4 <printf+0x790>
    34d0:	00d806b3          	add	a3,a6,a3
    34d4:	40e68833          	sub	a6,a3,a4
    34d8:	00058693          	mv	a3,a1
    34dc:	03810793          	addi	a5,sp,56
    34e0:	00e805b3          	add	a1,a6,a4
    34e4:	0007c603          	lbu	a2,0(a5)
    34e8:	00180813          	addi	a6,a6,1
    34ec:	00178793          	addi	a5,a5,1
    34f0:	fec80fa3          	sb	a2,-1(a6)
    34f4:	feb818e3          	bne	a6,a1,34e4 <printf+0x7b0>
    34f8:	02d75063          	bge	a4,a3,3518 <printf+0x7e4>
    34fc:	40e68733          	sub	a4,a3,a4
    3500:	00e586b3          	add	a3,a1,a4
    3504:	02000793          	li	a5,32
    3508:	00180813          	addi	a6,a6,1
    350c:	fef80fa3          	sb	a5,-1(a6)
    3510:	fed81ce3          	bne	a6,a3,3508 <printf+0x7d4>
    3514:	00e58833          	add	a6,a1,a4
    3518:	0028c783          	lbu	a5,2(a7)
    351c:	00288313          	addi	t1,a7,2
    3520:	880796e3          	bnez	a5,2dac <printf+0x78>
    3524:	8a1ff06f          	j	2dc4 <printf+0x90>
    3528:	06c00713          	li	a4,108
    352c:	0407e793          	ori	a5,a5,64
    3530:	d2e316e3          	bne	t1,a4,325c <printf+0x528>
    3534:	00101637          	lui	a2,0x101
    3538:	00092e83          	lw	t4,0(s2)
    353c:	ab060613          	addi	a2,a2,-1360 # 100ab0 <__clz_tab+0x5f4>
    3540:	00490913          	addi	s2,s2,4
    3544:	f01ff06f          	j	3444 <printf+0x710>
    3548:	00088b93          	mv	s7,a7
    354c:	00800613          	li	a2,8
    3550:	a85ff06f          	j	2fd4 <printf+0x2a0>
    3554:	00900613          	li	a2,9
    3558:	03164263          	blt	a2,a7,357c <printf+0x848>
    355c:	00101637          	lui	a2,0x101
    3560:	a8860613          	addi	a2,a2,-1400 # 100a88 <__clz_tab+0x5cc>
    3564:	df1ff06f          	j	3354 <printf+0x620>
    3568:	03000713          	li	a4,48
    356c:	02e10c23          	sb	a4,56(sp)
    3570:	00100713          	li	a4,1
    3574:	00070913          	mv	s2,a4
    3578:	dfdff06f          	j	3374 <printf+0x640>
    357c:	02e12423          	sw	a4,40(sp)
    3580:	00f12c23          	sw	a5,24(sp)
    3584:	03010713          	addi	a4,sp,48
    3588:	42030793          	addi	a5,t1,1056
    358c:	00e78333          	add	t1,a5,a4
    3590:	00088513          	mv	a0,a7
    3594:	00a00593          	li	a1,10
    3598:	02d12223          	sw	a3,36(sp)
    359c:	03012023          	sw	a6,32(sp)
    35a0:	01d12e23          	sw	t4,28(sp)
    35a4:	01112a23          	sw	a7,20(sp)
    35a8:	00612823          	sw	t1,16(sp)
    35ac:	18d010ef          	jal	4f38 <__divsi3>
    35b0:	00101637          	lui	a2,0x101
    35b4:	a8860613          	addi	a2,a2,-1400 # 100a88 <__clz_tab+0x5cc>
    35b8:	00a605b3          	add	a1,a2,a0
    35bc:	0005cf03          	lbu	t5,0(a1)
    35c0:	01012303          	lw	t1,16(sp)
    35c4:	01412503          	lw	a0,20(sp)
    35c8:	00a00593          	li	a1,10
    35cc:	bfe30423          	sb	t5,-1048(t1)
    35d0:	00c12623          	sw	a2,12(sp)
    35d4:	1e9010ef          	jal	4fbc <__modsi3>
    35d8:	02812303          	lw	t1,40(sp)
    35dc:	02412683          	lw	a3,36(sp)
    35e0:	02012803          	lw	a6,32(sp)
    35e4:	01c12e83          	lw	t4,28(sp)
    35e8:	01812783          	lw	a5,24(sp)
    35ec:	00c12603          	lw	a2,12(sp)
    35f0:	00050893          	mv	a7,a0
    35f4:	d61ff06f          	j	3354 <printf+0x620>
    35f8:	05010493          	addi	s1,sp,80
    35fc:	00048813          	mv	a6,s1
    3600:	00080023          	sb	zero,0(a6)
    3604:	05014603          	lbu	a2,80(sp)
    3608:	fe061063          	bnez	a2,2de8 <printf+0xb4>
    360c:	47c12083          	lw	ra,1148(sp)
    3610:	47412483          	lw	s1,1140(sp)
    3614:	47012903          	lw	s2,1136(sp)
    3618:	00000513          	li	a0,0
    361c:	4a010113          	addi	sp,sp,1184
    3620:	00008067          	ret
    3624:	0027e793          	ori	a5,a5,2
    3628:	00088b93          	mv	s7,a7
    362c:	c19ff06f          	j	3244 <printf+0x510>
    3630:	45912a23          	sw	s9,1108(sp)
    3634:	00088b93          	mv	s7,a7
    3638:	c29ff06f          	j	3260 <printf+0x52c>
    363c:	00088b93          	mv	s7,a7
    3640:	991ff06f          	j	2fd0 <printf+0x29c>
    3644:	45912a23          	sw	s9,1108(sp)
    3648:	0407e793          	ori	a5,a5,64
    364c:	00088b93          	mv	s7,a7
    3650:	c11ff06f          	j	3260 <printf+0x52c>
    3654:	0407e793          	ori	a5,a5,64
    3658:	00088b93          	mv	s7,a7
    365c:	01000613          	li	a2,16
    3660:	975ff06f          	j	2fd4 <printf+0x2a0>
    3664:	fff68693          	addi	a3,a3,-1
    3668:	a35ff06f          	j	309c <printf+0x368>
    366c:	00092783          	lw	a5,0(s2)
    3670:	00180813          	addi	a6,a6,1
    3674:	00058913          	mv	s2,a1
    3678:	fef80fa3          	sb	a5,-1(a6)
    367c:	0018c783          	lbu	a5,1(a7)
    3680:	f2079663          	bnez	a5,2dac <printf+0x78>
    3684:	f40ff06f          	j	2dc4 <printf+0x90>
    3688:	00000513          	li	a0,0
    368c:	a2079ae3          	bnez	a5,30c0 <printf+0x38c>
    3690:	00188313          	addi	t1,a7,1
    3694:	b6d04ce3          	bgtz	a3,320c <printf+0x4d8>
    3698:	0018c783          	lbu	a5,1(a7)
    369c:	a55ff06f          	j	30f0 <printf+0x3bc>
    36a0:	fff68693          	addi	a3,a3,-1
    36a4:	d3dff06f          	j	33e0 <printf+0x6ac>
    36a8:	fff68693          	addi	a3,a3,-1
    36ac:	e31ff06f          	j	34dc <printf+0x7a8>
    36b0:	00060813          	mv	a6,a2
    36b4:	999ff06f          	j	304c <printf+0x318>

000036b8 <__adddf3>:
    36b8:	00100737          	lui	a4,0x100
    36bc:	fe010113          	addi	sp,sp,-32
    36c0:	fff70713          	addi	a4,a4,-1 # fffff <__fpclassifyd+0xf9f7b>
    36c4:	00b777b3          	and	a5,a4,a1
    36c8:	0146d893          	srli	a7,a3,0x14
    36cc:	00d77733          	and	a4,a4,a3
    36d0:	00812c23          	sw	s0,24(sp)
    36d4:	0145d413          	srli	s0,a1,0x14
    36d8:	00371713          	slli	a4,a4,0x3
    36dc:	01d65813          	srli	a6,a2,0x1d
    36e0:	01212823          	sw	s2,16(sp)
    36e4:	7ff47413          	andi	s0,s0,2047
    36e8:	01f5d913          	srli	s2,a1,0x1f
    36ec:	00379793          	slli	a5,a5,0x3
    36f0:	01d55593          	srli	a1,a0,0x1d
    36f4:	7ff8f893          	andi	a7,a7,2047
    36f8:	00112e23          	sw	ra,28(sp)
    36fc:	00912a23          	sw	s1,20(sp)
    3700:	01312623          	sw	s3,12(sp)
    3704:	01f6d693          	srli	a3,a3,0x1f
    3708:	00f5e7b3          	or	a5,a1,a5
    370c:	00e86833          	or	a6,a6,a4
    3710:	00351513          	slli	a0,a0,0x3
    3714:	00361613          	slli	a2,a2,0x3
    3718:	41140733          	sub	a4,s0,a7
    371c:	7ff00593          	li	a1,2047
    3720:	30d91463          	bne	s2,a3,3a28 <__adddf3+0x370>
    3724:	10e05263          	blez	a4,3828 <__adddf3+0x170>
    3728:	02089c63          	bnez	a7,3760 <__adddf3+0xa8>
    372c:	00c86733          	or	a4,a6,a2
    3730:	02070463          	beqz	a4,3758 <__adddf3+0xa0>
    3734:	fff40713          	addi	a4,s0,-1
    3738:	00071e63          	bnez	a4,3754 <__adddf3+0x9c>
    373c:	00c50633          	add	a2,a0,a2
    3740:	010787b3          	add	a5,a5,a6
    3744:	00a63533          	sltu	a0,a2,a0
    3748:	00a787b3          	add	a5,a5,a0
    374c:	00100413          	li	s0,1
    3750:	0600006f          	j	37b0 <__adddf3+0xf8>
    3754:	00b41c63          	bne	s0,a1,376c <__adddf3+0xb4>
    3758:	00050613          	mv	a2,a0
    375c:	1d80006f          	j	3934 <__adddf3+0x27c>
    3760:	feb40ce3          	beq	s0,a1,3758 <__adddf3+0xa0>
    3764:	008006b7          	lui	a3,0x800
    3768:	00d86833          	or	a6,a6,a3
    376c:	03800693          	li	a3,56
    3770:	0ae6c663          	blt	a3,a4,381c <__adddf3+0x164>
    3774:	01f00693          	li	a3,31
    3778:	02000893          	li	a7,32
    377c:	06e6c863          	blt	a3,a4,37ec <__adddf3+0x134>
    3780:	40e888b3          	sub	a7,a7,a4
    3784:	011816b3          	sll	a3,a6,a7
    3788:	00e655b3          	srl	a1,a2,a4
    378c:	011618b3          	sll	a7,a2,a7
    3790:	00b6e6b3          	or	a3,a3,a1
    3794:	011038b3          	snez	a7,a7
    3798:	0116e6b3          	or	a3,a3,a7
    379c:	00e85733          	srl	a4,a6,a4
    37a0:	00a68633          	add	a2,a3,a0
    37a4:	00f70733          	add	a4,a4,a5
    37a8:	00d636b3          	sltu	a3,a2,a3
    37ac:	00d707b3          	add	a5,a4,a3
    37b0:	00879713          	slli	a4,a5,0x8
    37b4:	22075663          	bgez	a4,39e0 <__adddf3+0x328>
    37b8:	00140413          	addi	s0,s0,1
    37bc:	7ff00713          	li	a4,2047
    37c0:	60e40863          	beq	s0,a4,3dd0 <__adddf3+0x718>
    37c4:	ff800737          	lui	a4,0xff800
    37c8:	fff70713          	addi	a4,a4,-1 # ff7fffff <_stack_end+0xff6effff>
    37cc:	00e7f7b3          	and	a5,a5,a4
    37d0:	00165713          	srli	a4,a2,0x1
    37d4:	00167613          	andi	a2,a2,1
    37d8:	00c76733          	or	a4,a4,a2
    37dc:	01f79613          	slli	a2,a5,0x1f
    37e0:	00e66633          	or	a2,a2,a4
    37e4:	0017d793          	srli	a5,a5,0x1
    37e8:	1f80006f          	j	39e0 <__adddf3+0x328>
    37ec:	fe070693          	addi	a3,a4,-32
    37f0:	00d856b3          	srl	a3,a6,a3
    37f4:	00000593          	li	a1,0
    37f8:	01170863          	beq	a4,a7,3808 <__adddf3+0x150>
    37fc:	04000593          	li	a1,64
    3800:	40e585b3          	sub	a1,a1,a4
    3804:	00b815b3          	sll	a1,a6,a1
    3808:	00c5e5b3          	or	a1,a1,a2
    380c:	00b035b3          	snez	a1,a1
    3810:	00b6e6b3          	or	a3,a3,a1
    3814:	00000713          	li	a4,0
    3818:	f89ff06f          	j	37a0 <__adddf3+0xe8>
    381c:	00c866b3          	or	a3,a6,a2
    3820:	00d036b3          	snez	a3,a3
    3824:	ff1ff06f          	j	3814 <__adddf3+0x15c>
    3828:	0c070263          	beqz	a4,38ec <__adddf3+0x234>
    382c:	40888733          	sub	a4,a7,s0
    3830:	02041263          	bnez	s0,3854 <__adddf3+0x19c>
    3834:	00a7e6b3          	or	a3,a5,a0
    3838:	00068863          	beqz	a3,3848 <__adddf3+0x190>
    383c:	fff70693          	addi	a3,a4,-1
    3840:	ee068ee3          	beqz	a3,373c <__adddf3+0x84>
    3844:	02b71063          	bne	a4,a1,3864 <__adddf3+0x1ac>
    3848:	00080793          	mv	a5,a6
    384c:	00070413          	mv	s0,a4
    3850:	0e40006f          	j	3934 <__adddf3+0x27c>
    3854:	58b88663          	beq	a7,a1,3de0 <__adddf3+0x728>
    3858:	008006b7          	lui	a3,0x800
    385c:	00d7e7b3          	or	a5,a5,a3
    3860:	00070693          	mv	a3,a4
    3864:	03800713          	li	a4,56
    3868:	06d74c63          	blt	a4,a3,38e0 <__adddf3+0x228>
    386c:	01f00713          	li	a4,31
    3870:	02000313          	li	t1,32
    3874:	02d74e63          	blt	a4,a3,38b0 <__adddf3+0x1f8>
    3878:	40d30333          	sub	t1,t1,a3
    387c:	00679733          	sll	a4,a5,t1
    3880:	00d555b3          	srl	a1,a0,a3
    3884:	00651333          	sll	t1,a0,t1
    3888:	00b76733          	or	a4,a4,a1
    388c:	00603333          	snez	t1,t1
    3890:	00676733          	or	a4,a4,t1
    3894:	00d7d6b3          	srl	a3,a5,a3
    3898:	00c70633          	add	a2,a4,a2
    389c:	010686b3          	add	a3,a3,a6
    38a0:	00e63733          	sltu	a4,a2,a4
    38a4:	00e687b3          	add	a5,a3,a4
    38a8:	00088413          	mv	s0,a7
    38ac:	f05ff06f          	j	37b0 <__adddf3+0xf8>
    38b0:	fe068713          	addi	a4,a3,-32 # 7fffe0 <_stack_end+0x6effe0>
    38b4:	00e7d733          	srl	a4,a5,a4
    38b8:	00000593          	li	a1,0
    38bc:	00668863          	beq	a3,t1,38cc <__adddf3+0x214>
    38c0:	04000593          	li	a1,64
    38c4:	40d585b3          	sub	a1,a1,a3
    38c8:	00b795b3          	sll	a1,a5,a1
    38cc:	00a5e5b3          	or	a1,a1,a0
    38d0:	00b035b3          	snez	a1,a1
    38d4:	00b76733          	or	a4,a4,a1
    38d8:	00000693          	li	a3,0
    38dc:	fbdff06f          	j	3898 <__adddf3+0x1e0>
    38e0:	00a7e733          	or	a4,a5,a0
    38e4:	00e03733          	snez	a4,a4
    38e8:	ff1ff06f          	j	38d8 <__adddf3+0x220>
    38ec:	00140713          	addi	a4,s0,1
    38f0:	7fe77693          	andi	a3,a4,2046
    38f4:	0c069263          	bnez	a3,39b8 <__adddf3+0x300>
    38f8:	00a7e733          	or	a4,a5,a0
    38fc:	0a041463          	bnez	s0,39a4 <__adddf3+0x2ec>
    3900:	4a070863          	beqz	a4,3db0 <__adddf3+0x6f8>
    3904:	00c86733          	or	a4,a6,a2
    3908:	4a070863          	beqz	a4,3db8 <__adddf3+0x700>
    390c:	00c50633          	add	a2,a0,a2
    3910:	010787b3          	add	a5,a5,a6
    3914:	00a63533          	sltu	a0,a2,a0
    3918:	00a787b3          	add	a5,a5,a0
    391c:	00879713          	slli	a4,a5,0x8
    3920:	32075a63          	bgez	a4,3c54 <__adddf3+0x59c>
    3924:	ff800737          	lui	a4,0xff800
    3928:	fff70713          	addi	a4,a4,-1 # ff7fffff <_stack_end+0xff6effff>
    392c:	00e7f7b3          	and	a5,a5,a4
    3930:	00100413          	li	s0,1
    3934:	01d79713          	slli	a4,a5,0x1d
    3938:	00365613          	srli	a2,a2,0x3
    393c:	7ff00693          	li	a3,2047
    3940:	00c76733          	or	a4,a4,a2
    3944:	0037d793          	srli	a5,a5,0x3
    3948:	00d41e63          	bne	s0,a3,3964 <__adddf3+0x2ac>
    394c:	00f76733          	or	a4,a4,a5
    3950:	00000793          	li	a5,0
    3954:	00070863          	beqz	a4,3964 <__adddf3+0x2ac>
    3958:	000807b7          	lui	a5,0x80
    395c:	00000713          	li	a4,0
    3960:	00000913          	li	s2,0
    3964:	7ff47413          	andi	s0,s0,2047
    3968:	00c79793          	slli	a5,a5,0xc
    396c:	00c7d793          	srli	a5,a5,0xc
    3970:	01441413          	slli	s0,s0,0x14
    3974:	01f91593          	slli	a1,s2,0x1f
    3978:	00f46433          	or	s0,s0,a5
    397c:	01c12083          	lw	ra,28(sp)
    3980:	00b467b3          	or	a5,s0,a1
    3984:	01812403          	lw	s0,24(sp)
    3988:	01412483          	lw	s1,20(sp)
    398c:	01012903          	lw	s2,16(sp)
    3990:	00c12983          	lw	s3,12(sp)
    3994:	00070513          	mv	a0,a4
    3998:	00078593          	mv	a1,a5
    399c:	02010113          	addi	sp,sp,32
    39a0:	00008067          	ret
    39a4:	40070e63          	beqz	a4,3dc0 <__adddf3+0x708>
    39a8:	00c86833          	or	a6,a6,a2
    39ac:	2c081c63          	bnez	a6,3c84 <__adddf3+0x5cc>
    39b0:	00050613          	mv	a2,a0
    39b4:	4100006f          	j	3dc4 <__adddf3+0x70c>
    39b8:	40b70a63          	beq	a4,a1,3dcc <__adddf3+0x714>
    39bc:	00c50633          	add	a2,a0,a2
    39c0:	00a63533          	sltu	a0,a2,a0
    39c4:	010787b3          	add	a5,a5,a6
    39c8:	00a787b3          	add	a5,a5,a0
    39cc:	01f79693          	slli	a3,a5,0x1f
    39d0:	00165613          	srli	a2,a2,0x1
    39d4:	00c6e633          	or	a2,a3,a2
    39d8:	0017d793          	srli	a5,a5,0x1
    39dc:	00070413          	mv	s0,a4
    39e0:	00767713          	andi	a4,a2,7
    39e4:	02070063          	beqz	a4,3a04 <__adddf3+0x34c>
    39e8:	00f67713          	andi	a4,a2,15
    39ec:	00400693          	li	a3,4
    39f0:	00d70a63          	beq	a4,a3,3a04 <__adddf3+0x34c>
    39f4:	00d60733          	add	a4,a2,a3
    39f8:	00c736b3          	sltu	a3,a4,a2
    39fc:	00d787b3          	add	a5,a5,a3
    3a00:	00070613          	mv	a2,a4
    3a04:	00879713          	slli	a4,a5,0x8
    3a08:	f20756e3          	bgez	a4,3934 <__adddf3+0x27c>
    3a0c:	00140413          	addi	s0,s0,1
    3a10:	7ff00713          	li	a4,2047
    3a14:	3ae40e63          	beq	s0,a4,3dd0 <__adddf3+0x718>
    3a18:	ff800737          	lui	a4,0xff800
    3a1c:	fff70713          	addi	a4,a4,-1 # ff7fffff <_stack_end+0xff6effff>
    3a20:	00e7f7b3          	and	a5,a5,a4
    3a24:	f11ff06f          	j	3934 <__adddf3+0x27c>
    3a28:	0ee05063          	blez	a4,3b08 <__adddf3+0x450>
    3a2c:	08089863          	bnez	a7,3abc <__adddf3+0x404>
    3a30:	00c86733          	or	a4,a6,a2
    3a34:	d20702e3          	beqz	a4,3758 <__adddf3+0xa0>
    3a38:	fff40713          	addi	a4,s0,-1
    3a3c:	00071e63          	bnez	a4,3a58 <__adddf3+0x3a0>
    3a40:	40c50633          	sub	a2,a0,a2
    3a44:	410787b3          	sub	a5,a5,a6
    3a48:	00c53533          	sltu	a0,a0,a2
    3a4c:	40a787b3          	sub	a5,a5,a0
    3a50:	00100413          	li	s0,1
    3a54:	04c0006f          	j	3aa0 <__adddf3+0x3e8>
    3a58:	d0b400e3          	beq	s0,a1,3758 <__adddf3+0xa0>
    3a5c:	03800693          	li	a3,56
    3a60:	08e6ce63          	blt	a3,a4,3afc <__adddf3+0x444>
    3a64:	01f00693          	li	a3,31
    3a68:	02000893          	li	a7,32
    3a6c:	06e6c063          	blt	a3,a4,3acc <__adddf3+0x414>
    3a70:	40e888b3          	sub	a7,a7,a4
    3a74:	011816b3          	sll	a3,a6,a7
    3a78:	00e655b3          	srl	a1,a2,a4
    3a7c:	011618b3          	sll	a7,a2,a7
    3a80:	00b6e6b3          	or	a3,a3,a1
    3a84:	011038b3          	snez	a7,a7
    3a88:	0116e6b3          	or	a3,a3,a7
    3a8c:	00e85733          	srl	a4,a6,a4
    3a90:	40d50633          	sub	a2,a0,a3
    3a94:	40e78733          	sub	a4,a5,a4
    3a98:	00c53533          	sltu	a0,a0,a2
    3a9c:	40a707b3          	sub	a5,a4,a0
    3aa0:	00879713          	slli	a4,a5,0x8
    3aa4:	f2075ee3          	bgez	a4,39e0 <__adddf3+0x328>
    3aa8:	008004b7          	lui	s1,0x800
    3aac:	fff48493          	addi	s1,s1,-1 # 7fffff <_stack_end+0x6effff>
    3ab0:	0097f4b3          	and	s1,a5,s1
    3ab4:	00060993          	mv	s3,a2
    3ab8:	2140006f          	j	3ccc <__adddf3+0x614>
    3abc:	c8b40ee3          	beq	s0,a1,3758 <__adddf3+0xa0>
    3ac0:	008006b7          	lui	a3,0x800
    3ac4:	00d86833          	or	a6,a6,a3
    3ac8:	f95ff06f          	j	3a5c <__adddf3+0x3a4>
    3acc:	fe070693          	addi	a3,a4,-32
    3ad0:	00d856b3          	srl	a3,a6,a3
    3ad4:	00000593          	li	a1,0
    3ad8:	01170863          	beq	a4,a7,3ae8 <__adddf3+0x430>
    3adc:	04000593          	li	a1,64
    3ae0:	40e585b3          	sub	a1,a1,a4
    3ae4:	00b815b3          	sll	a1,a6,a1
    3ae8:	00c5e5b3          	or	a1,a1,a2
    3aec:	00b035b3          	snez	a1,a1
    3af0:	00b6e6b3          	or	a3,a3,a1
    3af4:	00000713          	li	a4,0
    3af8:	f99ff06f          	j	3a90 <__adddf3+0x3d8>
    3afc:	00c866b3          	or	a3,a6,a2
    3b00:	00d036b3          	snez	a3,a3
    3b04:	ff1ff06f          	j	3af4 <__adddf3+0x43c>
    3b08:	0e070663          	beqz	a4,3bf4 <__adddf3+0x53c>
    3b0c:	40888333          	sub	t1,a7,s0
    3b10:	04041263          	bnez	s0,3b54 <__adddf3+0x49c>
    3b14:	00a7e733          	or	a4,a5,a0
    3b18:	02070663          	beqz	a4,3b44 <__adddf3+0x48c>
    3b1c:	fff30713          	addi	a4,t1,-1
    3b20:	02071063          	bnez	a4,3b40 <__adddf3+0x488>
    3b24:	40a60533          	sub	a0,a2,a0
    3b28:	00a63733          	sltu	a4,a2,a0
    3b2c:	40f807b3          	sub	a5,a6,a5
    3b30:	00050613          	mv	a2,a0
    3b34:	40e787b3          	sub	a5,a5,a4
    3b38:	00068913          	mv	s2,a3
    3b3c:	f15ff06f          	j	3a50 <__adddf3+0x398>
    3b40:	02b31263          	bne	t1,a1,3b64 <__adddf3+0x4ac>
    3b44:	00068913          	mv	s2,a3
    3b48:	00080793          	mv	a5,a6
    3b4c:	00030413          	mv	s0,t1
    3b50:	de5ff06f          	j	3934 <__adddf3+0x27c>
    3b54:	28b88463          	beq	a7,a1,3ddc <__adddf3+0x724>
    3b58:	00800737          	lui	a4,0x800
    3b5c:	00e7e7b3          	or	a5,a5,a4
    3b60:	00030713          	mv	a4,t1
    3b64:	03800593          	li	a1,56
    3b68:	08e5c063          	blt	a1,a4,3be8 <__adddf3+0x530>
    3b6c:	01f00593          	li	a1,31
    3b70:	02000e13          	li	t3,32
    3b74:	04e5c263          	blt	a1,a4,3bb8 <__adddf3+0x500>
    3b78:	40ee0e33          	sub	t3,t3,a4
    3b7c:	01c795b3          	sll	a1,a5,t3
    3b80:	00e55333          	srl	t1,a0,a4
    3b84:	01c51e33          	sll	t3,a0,t3
    3b88:	0065e5b3          	or	a1,a1,t1
    3b8c:	01c03e33          	snez	t3,t3
    3b90:	01c5e5b3          	or	a1,a1,t3
    3b94:	00e7d733          	srl	a4,a5,a4
    3b98:	40b605b3          	sub	a1,a2,a1
    3b9c:	00b637b3          	sltu	a5,a2,a1
    3ba0:	40e80733          	sub	a4,a6,a4
    3ba4:	00058613          	mv	a2,a1
    3ba8:	40f707b3          	sub	a5,a4,a5
    3bac:	00088413          	mv	s0,a7
    3bb0:	00068913          	mv	s2,a3
    3bb4:	eedff06f          	j	3aa0 <__adddf3+0x3e8>
    3bb8:	fe070593          	addi	a1,a4,-32 # 7fffe0 <_stack_end+0x6effe0>
    3bbc:	00b7d5b3          	srl	a1,a5,a1
    3bc0:	00000313          	li	t1,0
    3bc4:	01c70863          	beq	a4,t3,3bd4 <__adddf3+0x51c>
    3bc8:	04000313          	li	t1,64
    3bcc:	40e30333          	sub	t1,t1,a4
    3bd0:	00679333          	sll	t1,a5,t1
    3bd4:	00a36333          	or	t1,t1,a0
    3bd8:	00603333          	snez	t1,t1
    3bdc:	0065e5b3          	or	a1,a1,t1
    3be0:	00000713          	li	a4,0
    3be4:	fb5ff06f          	j	3b98 <__adddf3+0x4e0>
    3be8:	00a7e5b3          	or	a1,a5,a0
    3bec:	00b035b3          	snez	a1,a1
    3bf0:	ff1ff06f          	j	3be0 <__adddf3+0x528>
    3bf4:	00140713          	addi	a4,s0,1
    3bf8:	7fe77713          	andi	a4,a4,2046
    3bfc:	0a071063          	bnez	a4,3c9c <__adddf3+0x5e4>
    3c00:	00a7e8b3          	or	a7,a5,a0
    3c04:	00c86733          	or	a4,a6,a2
    3c08:	06041863          	bnez	s0,3c78 <__adddf3+0x5c0>
    3c0c:	00089a63          	bnez	a7,3c20 <__adddf3+0x568>
    3c10:	00080793          	mv	a5,a6
    3c14:	02071e63          	bnez	a4,3c50 <__adddf3+0x598>
    3c18:	00000913          	li	s2,0
    3c1c:	1b40006f          	j	3dd0 <__adddf3+0x718>
    3c20:	18070c63          	beqz	a4,3db8 <__adddf3+0x700>
    3c24:	40c505b3          	sub	a1,a0,a2
    3c28:	00b538b3          	sltu	a7,a0,a1
    3c2c:	41078733          	sub	a4,a5,a6
    3c30:	41170733          	sub	a4,a4,a7
    3c34:	00871893          	slli	a7,a4,0x8
    3c38:	0208d663          	bgez	a7,3c64 <__adddf3+0x5ac>
    3c3c:	40a60533          	sub	a0,a2,a0
    3c40:	00a63733          	sltu	a4,a2,a0
    3c44:	40f807b3          	sub	a5,a6,a5
    3c48:	00050613          	mv	a2,a0
    3c4c:	40e787b3          	sub	a5,a5,a4
    3c50:	00068913          	mv	s2,a3
    3c54:	00f66733          	or	a4,a2,a5
    3c58:	1a070063          	beqz	a4,3df8 <__adddf3+0x740>
    3c5c:	00000413          	li	s0,0
    3c60:	d81ff06f          	j	39e0 <__adddf3+0x328>
    3c64:	00e5e633          	or	a2,a1,a4
    3c68:	18060263          	beqz	a2,3dec <__adddf3+0x734>
    3c6c:	00070793          	mv	a5,a4
    3c70:	00058613          	mv	a2,a1
    3c74:	fe1ff06f          	j	3c54 <__adddf3+0x59c>
    3c78:	00089e63          	bnez	a7,3c94 <__adddf3+0x5dc>
    3c7c:	00068913          	mv	s2,a3
    3c80:	14071063          	bnez	a4,3dc0 <__adddf3+0x708>
    3c84:	00000913          	li	s2,0
    3c88:	004007b7          	lui	a5,0x400
    3c8c:	00000613          	li	a2,0
    3c90:	1340006f          	j	3dc4 <__adddf3+0x70c>
    3c94:	d0070ee3          	beqz	a4,39b0 <__adddf3+0x2f8>
    3c98:	fedff06f          	j	3c84 <__adddf3+0x5cc>
    3c9c:	40c50733          	sub	a4,a0,a2
    3ca0:	00e535b3          	sltu	a1,a0,a4
    3ca4:	410784b3          	sub	s1,a5,a6
    3ca8:	40b484b3          	sub	s1,s1,a1
    3cac:	00849593          	slli	a1,s1,0x8
    3cb0:	00070993          	mv	s3,a4
    3cb4:	0605de63          	bgez	a1,3d30 <__adddf3+0x678>
    3cb8:	40a609b3          	sub	s3,a2,a0
    3cbc:	40f804b3          	sub	s1,a6,a5
    3cc0:	01363633          	sltu	a2,a2,s3
    3cc4:	40c484b3          	sub	s1,s1,a2
    3cc8:	00068913          	mv	s2,a3
    3ccc:	06048e63          	beqz	s1,3d48 <__adddf3+0x690>
    3cd0:	00048513          	mv	a0,s1
    3cd4:	318010ef          	jal	4fec <__clzsi2>
    3cd8:	ff850713          	addi	a4,a0,-8
    3cdc:	02000793          	li	a5,32
    3ce0:	40e787b3          	sub	a5,a5,a4
    3ce4:	00e494b3          	sll	s1,s1,a4
    3ce8:	00f9d7b3          	srl	a5,s3,a5
    3cec:	0097e7b3          	or	a5,a5,s1
    3cf0:	00e99633          	sll	a2,s3,a4
    3cf4:	0a874463          	blt	a4,s0,3d9c <__adddf3+0x6e4>
    3cf8:	40870733          	sub	a4,a4,s0
    3cfc:	00170513          	addi	a0,a4,1
    3d00:	01f00693          	li	a3,31
    3d04:	02000593          	li	a1,32
    3d08:	06a6c263          	blt	a3,a0,3d6c <__adddf3+0x6b4>
    3d0c:	40a585b3          	sub	a1,a1,a0
    3d10:	00b79733          	sll	a4,a5,a1
    3d14:	00a656b3          	srl	a3,a2,a0
    3d18:	00b615b3          	sll	a1,a2,a1
    3d1c:	00d76733          	or	a4,a4,a3
    3d20:	00b035b3          	snez	a1,a1
    3d24:	00b76633          	or	a2,a4,a1
    3d28:	00a7d7b3          	srl	a5,a5,a0
    3d2c:	f29ff06f          	j	3c54 <__adddf3+0x59c>
    3d30:	00976633          	or	a2,a4,s1
    3d34:	f8061ce3          	bnez	a2,3ccc <__adddf3+0x614>
    3d38:	00000913          	li	s2,0
    3d3c:	00000793          	li	a5,0
    3d40:	00000413          	li	s0,0
    3d44:	bf1ff06f          	j	3934 <__adddf3+0x27c>
    3d48:	00098513          	mv	a0,s3
    3d4c:	2a0010ef          	jal	4fec <__clzsi2>
    3d50:	01850713          	addi	a4,a0,24
    3d54:	01f00793          	li	a5,31
    3d58:	f8e7d2e3          	bge	a5,a4,3cdc <__adddf3+0x624>
    3d5c:	ff850793          	addi	a5,a0,-8
    3d60:	00f997b3          	sll	a5,s3,a5
    3d64:	00000613          	li	a2,0
    3d68:	f8dff06f          	j	3cf4 <__adddf3+0x63c>
    3d6c:	fe170713          	addi	a4,a4,-31
    3d70:	00e7d733          	srl	a4,a5,a4
    3d74:	00000693          	li	a3,0
    3d78:	00b50863          	beq	a0,a1,3d88 <__adddf3+0x6d0>
    3d7c:	04000693          	li	a3,64
    3d80:	40a686b3          	sub	a3,a3,a0
    3d84:	00d796b3          	sll	a3,a5,a3
    3d88:	00d666b3          	or	a3,a2,a3
    3d8c:	00d036b3          	snez	a3,a3
    3d90:	00d76633          	or	a2,a4,a3
    3d94:	00000793          	li	a5,0
    3d98:	ebdff06f          	j	3c54 <__adddf3+0x59c>
    3d9c:	40e40433          	sub	s0,s0,a4
    3da0:	ff800737          	lui	a4,0xff800
    3da4:	fff70713          	addi	a4,a4,-1 # ff7fffff <_stack_end+0xff6effff>
    3da8:	00e7f7b3          	and	a5,a5,a4
    3dac:	c35ff06f          	j	39e0 <__adddf3+0x328>
    3db0:	00080793          	mv	a5,a6
    3db4:	ea1ff06f          	j	3c54 <__adddf3+0x59c>
    3db8:	00050613          	mv	a2,a0
    3dbc:	e99ff06f          	j	3c54 <__adddf3+0x59c>
    3dc0:	00080793          	mv	a5,a6
    3dc4:	00058413          	mv	s0,a1
    3dc8:	b6dff06f          	j	3934 <__adddf3+0x27c>
    3dcc:	00070413          	mv	s0,a4
    3dd0:	00000793          	li	a5,0
    3dd4:	00000613          	li	a2,0
    3dd8:	b5dff06f          	j	3934 <__adddf3+0x27c>
    3ddc:	00068913          	mv	s2,a3
    3de0:	00080793          	mv	a5,a6
    3de4:	00088413          	mv	s0,a7
    3de8:	b4dff06f          	j	3934 <__adddf3+0x27c>
    3dec:	00000913          	li	s2,0
    3df0:	00000793          	li	a5,0
    3df4:	b41ff06f          	j	3934 <__adddf3+0x27c>
    3df8:	00000793          	li	a5,0
    3dfc:	00000613          	li	a2,0
    3e00:	f41ff06f          	j	3d40 <__adddf3+0x688>

00003e04 <__divdf3>:
    3e04:	fb010113          	addi	sp,sp,-80
    3e08:	03512a23          	sw	s5,52(sp)
    3e0c:	0145da93          	srli	s5,a1,0x14
    3e10:	04812423          	sw	s0,72(sp)
    3e14:	05212023          	sw	s2,64(sp)
    3e18:	03312e23          	sw	s3,60(sp)
    3e1c:	03412c23          	sw	s4,56(sp)
    3e20:	03712623          	sw	s7,44(sp)
    3e24:	00c59413          	slli	s0,a1,0xc
    3e28:	04112623          	sw	ra,76(sp)
    3e2c:	04912223          	sw	s1,68(sp)
    3e30:	03612823          	sw	s6,48(sp)
    3e34:	03812423          	sw	s8,40(sp)
    3e38:	03912223          	sw	s9,36(sp)
    3e3c:	03a12023          	sw	s10,32(sp)
    3e40:	01b12e23          	sw	s11,28(sp)
    3e44:	7ffafa93          	andi	s5,s5,2047
    3e48:	00050913          	mv	s2,a0
    3e4c:	00060b93          	mv	s7,a2
    3e50:	00068a13          	mv	s4,a3
    3e54:	00c45413          	srli	s0,s0,0xc
    3e58:	01f5d993          	srli	s3,a1,0x1f
    3e5c:	0a0a8063          	beqz	s5,3efc <__divdf3+0xf8>
    3e60:	7ff00793          	li	a5,2047
    3e64:	10fa8063          	beq	s5,a5,3f64 <__divdf3+0x160>
    3e68:	01d55c93          	srli	s9,a0,0x1d
    3e6c:	00341413          	slli	s0,s0,0x3
    3e70:	008cecb3          	or	s9,s9,s0
    3e74:	008007b7          	lui	a5,0x800
    3e78:	00fcecb3          	or	s9,s9,a5
    3e7c:	00351493          	slli	s1,a0,0x3
    3e80:	c01a8a93          	addi	s5,s5,-1023
    3e84:	00000b13          	li	s6,0
    3e88:	014a5793          	srli	a5,s4,0x14
    3e8c:	00ca1413          	slli	s0,s4,0xc
    3e90:	7ff7f793          	andi	a5,a5,2047
    3e94:	00c45413          	srli	s0,s0,0xc
    3e98:	01fa5a13          	srli	s4,s4,0x1f
    3e9c:	0e078e63          	beqz	a5,3f98 <__divdf3+0x194>
    3ea0:	7ff00713          	li	a4,2047
    3ea4:	16e78263          	beq	a5,a4,4008 <__divdf3+0x204>
    3ea8:	00341413          	slli	s0,s0,0x3
    3eac:	01dbd713          	srli	a4,s7,0x1d
    3eb0:	00876733          	or	a4,a4,s0
    3eb4:	00800437          	lui	s0,0x800
    3eb8:	00876433          	or	s0,a4,s0
    3ebc:	003b9593          	slli	a1,s7,0x3
    3ec0:	c0178793          	addi	a5,a5,-1023 # 7ffc01 <_stack_end+0x6efc01>
    3ec4:	00000713          	li	a4,0
    3ec8:	40fa8ab3          	sub	s5,s5,a5
    3ecc:	002b1793          	slli	a5,s6,0x2
    3ed0:	00e7e7b3          	or	a5,a5,a4
    3ed4:	fff78793          	addi	a5,a5,-1
    3ed8:	00e00693          	li	a3,14
    3edc:	0149c933          	xor	s2,s3,s4
    3ee0:	14f6ec63          	bltu	a3,a5,4038 <__divdf3+0x234>
    3ee4:	001006b7          	lui	a3,0x100
    3ee8:	00279793          	slli	a5,a5,0x2
    3eec:	48068693          	addi	a3,a3,1152 # 100480 <state_known_crc+0x428>
    3ef0:	00d787b3          	add	a5,a5,a3
    3ef4:	0007a783          	lw	a5,0(a5)
    3ef8:	00078067          	jr	a5
    3efc:	00a46cb3          	or	s9,s0,a0
    3f00:	060c8c63          	beqz	s9,3f78 <__divdf3+0x174>
    3f04:	04040063          	beqz	s0,3f44 <__divdf3+0x140>
    3f08:	00040513          	mv	a0,s0
    3f0c:	0e0010ef          	jal	4fec <__clzsi2>
    3f10:	00050793          	mv	a5,a0
    3f14:	ff550713          	addi	a4,a0,-11
    3f18:	01d00c93          	li	s9,29
    3f1c:	ff878693          	addi	a3,a5,-8
    3f20:	40ec8cb3          	sub	s9,s9,a4
    3f24:	00d41433          	sll	s0,s0,a3
    3f28:	01995cb3          	srl	s9,s2,s9
    3f2c:	008cecb3          	or	s9,s9,s0
    3f30:	00d91433          	sll	s0,s2,a3
    3f34:	c0d00a93          	li	s5,-1011
    3f38:	40fa8ab3          	sub	s5,s5,a5
    3f3c:	00040493          	mv	s1,s0
    3f40:	f45ff06f          	j	3e84 <__divdf3+0x80>
    3f44:	0a8010ef          	jal	4fec <__clzsi2>
    3f48:	01550713          	addi	a4,a0,21
    3f4c:	01c00693          	li	a3,28
    3f50:	02050793          	addi	a5,a0,32
    3f54:	fce6d2e3          	bge	a3,a4,3f18 <__divdf3+0x114>
    3f58:	ff850513          	addi	a0,a0,-8
    3f5c:	00a91cb3          	sll	s9,s2,a0
    3f60:	fd5ff06f          	j	3f34 <__divdf3+0x130>
    3f64:	00a46cb3          	or	s9,s0,a0
    3f68:	020c9063          	bnez	s9,3f88 <__divdf3+0x184>
    3f6c:	00000493          	li	s1,0
    3f70:	00200b13          	li	s6,2
    3f74:	f15ff06f          	j	3e88 <__divdf3+0x84>
    3f78:	00000493          	li	s1,0
    3f7c:	00000a93          	li	s5,0
    3f80:	00100b13          	li	s6,1
    3f84:	f05ff06f          	j	3e88 <__divdf3+0x84>
    3f88:	00050493          	mv	s1,a0
    3f8c:	00040c93          	mv	s9,s0
    3f90:	00300b13          	li	s6,3
    3f94:	ef5ff06f          	j	3e88 <__divdf3+0x84>
    3f98:	017465b3          	or	a1,s0,s7
    3f9c:	08058063          	beqz	a1,401c <__divdf3+0x218>
    3fa0:	04040263          	beqz	s0,3fe4 <__divdf3+0x1e0>
    3fa4:	00040513          	mv	a0,s0
    3fa8:	044010ef          	jal	4fec <__clzsi2>
    3fac:	00050693          	mv	a3,a0
    3fb0:	ff550793          	addi	a5,a0,-11
    3fb4:	01d00713          	li	a4,29
    3fb8:	ff868613          	addi	a2,a3,-8
    3fbc:	40f70733          	sub	a4,a4,a5
    3fc0:	00c41433          	sll	s0,s0,a2
    3fc4:	00ebd733          	srl	a4,s7,a4
    3fc8:	00876733          	or	a4,a4,s0
    3fcc:	00cb9433          	sll	s0,s7,a2
    3fd0:	c0d00793          	li	a5,-1011
    3fd4:	00040593          	mv	a1,s0
    3fd8:	40d787b3          	sub	a5,a5,a3
    3fdc:	00070413          	mv	s0,a4
    3fe0:	ee5ff06f          	j	3ec4 <__divdf3+0xc0>
    3fe4:	000b8513          	mv	a0,s7
    3fe8:	004010ef          	jal	4fec <__clzsi2>
    3fec:	01550793          	addi	a5,a0,21
    3ff0:	01c00713          	li	a4,28
    3ff4:	02050693          	addi	a3,a0,32
    3ff8:	faf75ee3          	bge	a4,a5,3fb4 <__divdf3+0x1b0>
    3ffc:	ff850713          	addi	a4,a0,-8
    4000:	00eb9733          	sll	a4,s7,a4
    4004:	fcdff06f          	j	3fd0 <__divdf3+0x1cc>
    4008:	017465b3          	or	a1,s0,s7
    400c:	02059063          	bnez	a1,402c <__divdf3+0x228>
    4010:	00000413          	li	s0,0
    4014:	00200713          	li	a4,2
    4018:	eb1ff06f          	j	3ec8 <__divdf3+0xc4>
    401c:	00000413          	li	s0,0
    4020:	00000793          	li	a5,0
    4024:	00100713          	li	a4,1
    4028:	ea1ff06f          	j	3ec8 <__divdf3+0xc4>
    402c:	000b8593          	mv	a1,s7
    4030:	00300713          	li	a4,3
    4034:	e95ff06f          	j	3ec8 <__divdf3+0xc4>
    4038:	01946663          	bltu	s0,s9,4044 <__divdf3+0x240>
    403c:	408c9a63          	bne	s9,s0,4450 <__divdf3+0x64c>
    4040:	40b4e863          	bltu	s1,a1,4450 <__divdf3+0x64c>
    4044:	01fc9713          	slli	a4,s9,0x1f
    4048:	0014d793          	srli	a5,s1,0x1
    404c:	01f49c13          	slli	s8,s1,0x1f
    4050:	001cdc93          	srli	s9,s9,0x1
    4054:	00f764b3          	or	s1,a4,a5
    4058:	00841793          	slli	a5,s0,0x8
    405c:	0185db13          	srli	s6,a1,0x18
    4060:	00fb6b33          	or	s6,s6,a5
    4064:	0107dd13          	srli	s10,a5,0x10
    4068:	010b1793          	slli	a5,s6,0x10
    406c:	0107d793          	srli	a5,a5,0x10
    4070:	00859b93          	slli	s7,a1,0x8
    4074:	000c8513          	mv	a0,s9
    4078:	000d0593          	mv	a1,s10
    407c:	00f12623          	sw	a5,12(sp)
    4080:	6c1000ef          	jal	4f40 <__hidden___udivsi3>
    4084:	00050593          	mv	a1,a0
    4088:	00050a13          	mv	s4,a0
    408c:	010b1513          	slli	a0,s6,0x10
    4090:	01055513          	srli	a0,a0,0x10
    4094:	681000ef          	jal	4f14 <__mulsi3>
    4098:	00050993          	mv	s3,a0
    409c:	000d0593          	mv	a1,s10
    40a0:	000c8513          	mv	a0,s9
    40a4:	6e5000ef          	jal	4f88 <__umodsi3>
    40a8:	01051513          	slli	a0,a0,0x10
    40ac:	0104d793          	srli	a5,s1,0x10
    40b0:	00a7e7b3          	or	a5,a5,a0
    40b4:	0137fa63          	bgeu	a5,s3,40c8 <__divdf3+0x2c4>
    40b8:	00fb07b3          	add	a5,s6,a5
    40bc:	0167e463          	bltu	a5,s6,40c4 <__divdf3+0x2c0>
    40c0:	3937ee63          	bltu	a5,s3,445c <__divdf3+0x658>
    40c4:	fffa0a13          	addi	s4,s4,-1
    40c8:	413789b3          	sub	s3,a5,s3
    40cc:	000d0593          	mv	a1,s10
    40d0:	00098513          	mv	a0,s3
    40d4:	66d000ef          	jal	4f40 <__hidden___udivsi3>
    40d8:	00050593          	mv	a1,a0
    40dc:	00050413          	mv	s0,a0
    40e0:	010b1513          	slli	a0,s6,0x10
    40e4:	01055513          	srli	a0,a0,0x10
    40e8:	62d000ef          	jal	4f14 <__mulsi3>
    40ec:	00050c93          	mv	s9,a0
    40f0:	000d0593          	mv	a1,s10
    40f4:	00098513          	mv	a0,s3
    40f8:	691000ef          	jal	4f88 <__umodsi3>
    40fc:	01049993          	slli	s3,s1,0x10
    4100:	01051513          	slli	a0,a0,0x10
    4104:	0109d993          	srli	s3,s3,0x10
    4108:	00a9e9b3          	or	s3,s3,a0
    410c:	0199fa63          	bgeu	s3,s9,4120 <__divdf3+0x31c>
    4110:	013b09b3          	add	s3,s6,s3
    4114:	0199f463          	bgeu	s3,s9,411c <__divdf3+0x318>
    4118:	3569f863          	bgeu	s3,s6,4468 <__divdf3+0x664>
    411c:	fff40413          	addi	s0,s0,-1 # 7fffff <_stack_end+0x6effff>
    4120:	010a1513          	slli	a0,s4,0x10
    4124:	00856733          	or	a4,a0,s0
    4128:	010b9693          	slli	a3,s7,0x10
    412c:	0106d693          	srli	a3,a3,0x10
    4130:	01071513          	slli	a0,a4,0x10
    4134:	419989b3          	sub	s3,s3,s9
    4138:	010bdd93          	srli	s11,s7,0x10
    413c:	01055513          	srli	a0,a0,0x10
    4140:	00d12623          	sw	a3,12(sp)
    4144:	00068593          	mv	a1,a3
    4148:	5cd000ef          	jal	4f14 <__mulsi3>
    414c:	00050813          	mv	a6,a0
    4150:	01071513          	slli	a0,a4,0x10
    4154:	01055513          	srli	a0,a0,0x10
    4158:	000d8593          	mv	a1,s11
    415c:	5b9000ef          	jal	4f14 <__mulsi3>
    4160:	010b9593          	slli	a1,s7,0x10
    4164:	00050793          	mv	a5,a0
    4168:	0105d593          	srli	a1,a1,0x10
    416c:	01075513          	srli	a0,a4,0x10
    4170:	5a5000ef          	jal	4f14 <__mulsi3>
    4174:	00050893          	mv	a7,a0
    4178:	000d8593          	mv	a1,s11
    417c:	01075513          	srli	a0,a4,0x10
    4180:	595000ef          	jal	4f14 <__mulsi3>
    4184:	01085a13          	srli	s4,a6,0x10
    4188:	011787b3          	add	a5,a5,a7
    418c:	00fa0a33          	add	s4,s4,a5
    4190:	011a7663          	bgeu	s4,a7,419c <__divdf3+0x398>
    4194:	000107b7          	lui	a5,0x10
    4198:	00f50533          	add	a0,a0,a5
    419c:	010a5793          	srli	a5,s4,0x10
    41a0:	01081813          	slli	a6,a6,0x10
    41a4:	010a1a13          	slli	s4,s4,0x10
    41a8:	01085813          	srli	a6,a6,0x10
    41ac:	00a78533          	add	a0,a5,a0
    41b0:	010a0a33          	add	s4,s4,a6
    41b4:	00a9e663          	bltu	s3,a0,41c0 <__divdf3+0x3bc>
    41b8:	2aa99e63          	bne	s3,a0,4474 <__divdf3+0x670>
    41bc:	2b4c7c63          	bgeu	s8,s4,4474 <__divdf3+0x670>
    41c0:	017c07b3          	add	a5,s8,s7
    41c4:	0187b6b3          	sltu	a3,a5,s8
    41c8:	01668633          	add	a2,a3,s6
    41cc:	00c989b3          	add	s3,s3,a2
    41d0:	fff70413          	addi	s0,a4,-1
    41d4:	00078c13          	mv	s8,a5
    41d8:	013b6663          	bltu	s6,s3,41e4 <__divdf3+0x3e0>
    41dc:	02069463          	bnez	a3,4204 <__divdf3+0x400>
    41e0:	033b1263          	bne	s6,s3,4204 <__divdf3+0x400>
    41e4:	00a9e663          	bltu	s3,a0,41f0 <__divdf3+0x3ec>
    41e8:	01351e63          	bne	a0,s3,4204 <__divdf3+0x400>
    41ec:	0147fc63          	bgeu	a5,s4,4204 <__divdf3+0x400>
    41f0:	00fb8c33          	add	s8,s7,a5
    41f4:	017c37b3          	sltu	a5,s8,s7
    41f8:	016787b3          	add	a5,a5,s6
    41fc:	ffe70413          	addi	s0,a4,-2
    4200:	00f989b3          	add	s3,s3,a5
    4204:	414c0a33          	sub	s4,s8,s4
    4208:	40a989b3          	sub	s3,s3,a0
    420c:	014c37b3          	sltu	a5,s8,s4
    4210:	40f989b3          	sub	s3,s3,a5
    4214:	fff00593          	li	a1,-1
    4218:	193b0263          	beq	s6,s3,439c <__divdf3+0x598>
    421c:	000d0593          	mv	a1,s10
    4220:	00098513          	mv	a0,s3
    4224:	51d000ef          	jal	4f40 <__hidden___udivsi3>
    4228:	00050593          	mv	a1,a0
    422c:	00050493          	mv	s1,a0
    4230:	010b1513          	slli	a0,s6,0x10
    4234:	01055513          	srli	a0,a0,0x10
    4238:	4dd000ef          	jal	4f14 <__mulsi3>
    423c:	00050c13          	mv	s8,a0
    4240:	000d0593          	mv	a1,s10
    4244:	00098513          	mv	a0,s3
    4248:	541000ef          	jal	4f88 <__umodsi3>
    424c:	01051513          	slli	a0,a0,0x10
    4250:	010a5713          	srli	a4,s4,0x10
    4254:	00a76733          	or	a4,a4,a0
    4258:	01877a63          	bgeu	a4,s8,426c <__divdf3+0x468>
    425c:	00eb0733          	add	a4,s6,a4
    4260:	01676463          	bltu	a4,s6,4268 <__divdf3+0x464>
    4264:	21876c63          	bltu	a4,s8,447c <__divdf3+0x678>
    4268:	fff48493          	addi	s1,s1,-1
    426c:	418709b3          	sub	s3,a4,s8
    4270:	000d0593          	mv	a1,s10
    4274:	00098513          	mv	a0,s3
    4278:	4c9000ef          	jal	4f40 <__hidden___udivsi3>
    427c:	00050593          	mv	a1,a0
    4280:	00050c13          	mv	s8,a0
    4284:	010b1513          	slli	a0,s6,0x10
    4288:	01055513          	srli	a0,a0,0x10
    428c:	489000ef          	jal	4f14 <__mulsi3>
    4290:	00050c93          	mv	s9,a0
    4294:	000d0593          	mv	a1,s10
    4298:	00098513          	mv	a0,s3
    429c:	4ed000ef          	jal	4f88 <__umodsi3>
    42a0:	010a1793          	slli	a5,s4,0x10
    42a4:	01051513          	slli	a0,a0,0x10
    42a8:	0107d793          	srli	a5,a5,0x10
    42ac:	00a7e7b3          	or	a5,a5,a0
    42b0:	0197fa63          	bgeu	a5,s9,42c4 <__divdf3+0x4c0>
    42b4:	00fb07b3          	add	a5,s6,a5
    42b8:	0197f463          	bgeu	a5,s9,42c0 <__divdf3+0x4bc>
    42bc:	1d67f663          	bgeu	a5,s6,4488 <__divdf3+0x684>
    42c0:	fffc0c13          	addi	s8,s8,-1
    42c4:	01049713          	slli	a4,s1,0x10
    42c8:	01876733          	or	a4,a4,s8
    42cc:	01071513          	slli	a0,a4,0x10
    42d0:	010b9593          	slli	a1,s7,0x10
    42d4:	419787b3          	sub	a5,a5,s9
    42d8:	01055513          	srli	a0,a0,0x10
    42dc:	0105d593          	srli	a1,a1,0x10
    42e0:	435000ef          	jal	4f14 <__mulsi3>
    42e4:	00050813          	mv	a6,a0
    42e8:	01071513          	slli	a0,a4,0x10
    42ec:	01055513          	srli	a0,a0,0x10
    42f0:	000d8593          	mv	a1,s11
    42f4:	421000ef          	jal	4f14 <__mulsi3>
    42f8:	010b9593          	slli	a1,s7,0x10
    42fc:	00050893          	mv	a7,a0
    4300:	0105d593          	srli	a1,a1,0x10
    4304:	01075513          	srli	a0,a4,0x10
    4308:	40d000ef          	jal	4f14 <__mulsi3>
    430c:	00050313          	mv	t1,a0
    4310:	000d8593          	mv	a1,s11
    4314:	01075513          	srli	a0,a4,0x10
    4318:	3fd000ef          	jal	4f14 <__mulsi3>
    431c:	01085693          	srli	a3,a6,0x10
    4320:	006888b3          	add	a7,a7,t1
    4324:	011686b3          	add	a3,a3,a7
    4328:	0066f663          	bgeu	a3,t1,4334 <__divdf3+0x530>
    432c:	00010637          	lui	a2,0x10
    4330:	00c50533          	add	a0,a0,a2
    4334:	0106d613          	srli	a2,a3,0x10
    4338:	01081813          	slli	a6,a6,0x10
    433c:	01069693          	slli	a3,a3,0x10
    4340:	01085813          	srli	a6,a6,0x10
    4344:	00a60533          	add	a0,a2,a0
    4348:	010686b3          	add	a3,a3,a6
    434c:	00a7e663          	bltu	a5,a0,4358 <__divdf3+0x554>
    4350:	04a79463          	bne	a5,a0,4398 <__divdf3+0x594>
    4354:	14068063          	beqz	a3,4494 <__divdf3+0x690>
    4358:	00fb0633          	add	a2,s6,a5
    435c:	fff70593          	addi	a1,a4,-1
    4360:	00060793          	mv	a5,a2
    4364:	03666463          	bltu	a2,s6,438c <__divdf3+0x588>
    4368:	00a66663          	bltu	a2,a0,4374 <__divdf3+0x570>
    436c:	02a61463          	bne	a2,a0,4394 <__divdf3+0x590>
    4370:	00dbfe63          	bgeu	s7,a3,438c <__divdf3+0x588>
    4374:	ffe70593          	addi	a1,a4,-2
    4378:	001b9713          	slli	a4,s7,0x1
    437c:	017737b3          	sltu	a5,a4,s7
    4380:	016787b3          	add	a5,a5,s6
    4384:	00f607b3          	add	a5,a2,a5
    4388:	00070b93          	mv	s7,a4
    438c:	00db9463          	bne	s7,a3,4394 <__divdf3+0x590>
    4390:	00a78663          	beq	a5,a0,439c <__divdf3+0x598>
    4394:	00058713          	mv	a4,a1
    4398:	00176593          	ori	a1,a4,1
    439c:	3ffa8793          	addi	a5,s5,1023
    43a0:	12f05e63          	blez	a5,44dc <__divdf3+0x6d8>
    43a4:	0075f713          	andi	a4,a1,7
    43a8:	02070063          	beqz	a4,43c8 <__divdf3+0x5c4>
    43ac:	00f5f713          	andi	a4,a1,15
    43b0:	00400693          	li	a3,4
    43b4:	00d70a63          	beq	a4,a3,43c8 <__divdf3+0x5c4>
    43b8:	00d58733          	add	a4,a1,a3
    43bc:	00b736b3          	sltu	a3,a4,a1
    43c0:	00d40433          	add	s0,s0,a3
    43c4:	00070593          	mv	a1,a4
    43c8:	00741713          	slli	a4,s0,0x7
    43cc:	00075a63          	bgez	a4,43e0 <__divdf3+0x5dc>
    43d0:	ff0007b7          	lui	a5,0xff000
    43d4:	fff78793          	addi	a5,a5,-1 # feffffff <_stack_end+0xfeeeffff>
    43d8:	00f47433          	and	s0,s0,a5
    43dc:	400a8793          	addi	a5,s5,1024
    43e0:	7fe00713          	li	a4,2046
    43e4:	1cf74263          	blt	a4,a5,45a8 <__divdf3+0x7a4>
    43e8:	01d41713          	slli	a4,s0,0x1d
    43ec:	0035d593          	srli	a1,a1,0x3
    43f0:	00b76733          	or	a4,a4,a1
    43f4:	00345413          	srli	s0,s0,0x3
    43f8:	00c41413          	slli	s0,s0,0xc
    43fc:	00c45413          	srli	s0,s0,0xc
    4400:	01479793          	slli	a5,a5,0x14
    4404:	04c12083          	lw	ra,76(sp)
    4408:	0087e7b3          	or	a5,a5,s0
    440c:	04812403          	lw	s0,72(sp)
    4410:	01f91913          	slli	s2,s2,0x1f
    4414:	04412483          	lw	s1,68(sp)
    4418:	03c12983          	lw	s3,60(sp)
    441c:	03812a03          	lw	s4,56(sp)
    4420:	03412a83          	lw	s5,52(sp)
    4424:	03012b03          	lw	s6,48(sp)
    4428:	02c12b83          	lw	s7,44(sp)
    442c:	02812c03          	lw	s8,40(sp)
    4430:	02412c83          	lw	s9,36(sp)
    4434:	02012d03          	lw	s10,32(sp)
    4438:	01c12d83          	lw	s11,28(sp)
    443c:	0127e5b3          	or	a1,a5,s2
    4440:	00070513          	mv	a0,a4
    4444:	04012903          	lw	s2,64(sp)
    4448:	05010113          	addi	sp,sp,80
    444c:	00008067          	ret
    4450:	fffa8a93          	addi	s5,s5,-1
    4454:	00000c13          	li	s8,0
    4458:	c01ff06f          	j	4058 <__divdf3+0x254>
    445c:	ffea0a13          	addi	s4,s4,-2
    4460:	016787b3          	add	a5,a5,s6
    4464:	c65ff06f          	j	40c8 <__divdf3+0x2c4>
    4468:	ffe40413          	addi	s0,s0,-2
    446c:	016989b3          	add	s3,s3,s6
    4470:	cb1ff06f          	j	4120 <__divdf3+0x31c>
    4474:	00070413          	mv	s0,a4
    4478:	d8dff06f          	j	4204 <__divdf3+0x400>
    447c:	ffe48493          	addi	s1,s1,-2
    4480:	01670733          	add	a4,a4,s6
    4484:	de9ff06f          	j	426c <__divdf3+0x468>
    4488:	ffec0c13          	addi	s8,s8,-2
    448c:	016787b3          	add	a5,a5,s6
    4490:	e35ff06f          	j	42c4 <__divdf3+0x4c0>
    4494:	00000b93          	li	s7,0
    4498:	00070593          	mv	a1,a4
    449c:	ef1ff06f          	j	438c <__divdf3+0x588>
    44a0:	000a0913          	mv	s2,s4
    44a4:	00070b13          	mv	s6,a4
    44a8:	00200793          	li	a5,2
    44ac:	0efb0e63          	beq	s6,a5,45a8 <__divdf3+0x7a4>
    44b0:	00300793          	li	a5,3
    44b4:	0efb0063          	beq	s6,a5,4594 <__divdf3+0x790>
    44b8:	00100793          	li	a5,1
    44bc:	eefb10e3          	bne	s6,a5,439c <__divdf3+0x598>
    44c0:	00000413          	li	s0,0
    44c4:	00000713          	li	a4,0
    44c8:	08c0006f          	j	4554 <__divdf3+0x750>
    44cc:	00098913          	mv	s2,s3
    44d0:	000c8413          	mv	s0,s9
    44d4:	00048593          	mv	a1,s1
    44d8:	fd1ff06f          	j	44a8 <__divdf3+0x6a4>
    44dc:	08078063          	beqz	a5,455c <__divdf3+0x758>
    44e0:	fc900713          	li	a4,-55
    44e4:	fce7cee3          	blt	a5,a4,44c0 <__divdf3+0x6bc>
    44e8:	fe200713          	li	a4,-30
    44ec:	06e7cc63          	blt	a5,a4,4564 <__divdf3+0x760>
    44f0:	00100713          	li	a4,1
    44f4:	40f70733          	sub	a4,a4,a5
    44f8:	41ea8a93          	addi	s5,s5,1054
    44fc:	00e5d7b3          	srl	a5,a1,a4
    4500:	015595b3          	sll	a1,a1,s5
    4504:	00b035b3          	snez	a1,a1
    4508:	01541ab3          	sll	s5,s0,s5
    450c:	0155e5b3          	or	a1,a1,s5
    4510:	00b7e7b3          	or	a5,a5,a1
    4514:	00e45433          	srl	s0,s0,a4
    4518:	0077f713          	andi	a4,a5,7
    451c:	02070063          	beqz	a4,453c <__divdf3+0x738>
    4520:	00f7f713          	andi	a4,a5,15
    4524:	00400693          	li	a3,4
    4528:	00d70a63          	beq	a4,a3,453c <__divdf3+0x738>
    452c:	00d78733          	add	a4,a5,a3
    4530:	00f736b3          	sltu	a3,a4,a5
    4534:	00d40433          	add	s0,s0,a3
    4538:	00070793          	mv	a5,a4
    453c:	00841713          	slli	a4,s0,0x8
    4540:	06074c63          	bltz	a4,45b8 <__divdf3+0x7b4>
    4544:	01d41713          	slli	a4,s0,0x1d
    4548:	0037d793          	srli	a5,a5,0x3
    454c:	00f76733          	or	a4,a4,a5
    4550:	00345413          	srli	s0,s0,0x3
    4554:	00000793          	li	a5,0
    4558:	ea1ff06f          	j	43f8 <__divdf3+0x5f4>
    455c:	00100713          	li	a4,1
    4560:	f99ff06f          	j	44f8 <__divdf3+0x6f4>
    4564:	fe100613          	li	a2,-31
    4568:	40f60733          	sub	a4,a2,a5
    456c:	00e45733          	srl	a4,s0,a4
    4570:	00000693          	li	a3,0
    4574:	00c78663          	beq	a5,a2,4580 <__divdf3+0x77c>
    4578:	43ea8a93          	addi	s5,s5,1086
    457c:	015416b3          	sll	a3,s0,s5
    4580:	00b6e6b3          	or	a3,a3,a1
    4584:	00d036b3          	snez	a3,a3
    4588:	00d767b3          	or	a5,a4,a3
    458c:	00000413          	li	s0,0
    4590:	f89ff06f          	j	4518 <__divdf3+0x714>
    4594:	00080437          	lui	s0,0x80
    4598:	00000713          	li	a4,0
    459c:	7ff00793          	li	a5,2047
    45a0:	00000913          	li	s2,0
    45a4:	e55ff06f          	j	43f8 <__divdf3+0x5f4>
    45a8:	00000413          	li	s0,0
    45ac:	00000713          	li	a4,0
    45b0:	7ff00793          	li	a5,2047
    45b4:	e45ff06f          	j	43f8 <__divdf3+0x5f4>
    45b8:	00000413          	li	s0,0
    45bc:	00000713          	li	a4,0
    45c0:	00100793          	li	a5,1
    45c4:	e35ff06f          	j	43f8 <__divdf3+0x5f4>

000045c8 <__eqdf2>:
    45c8:	001007b7          	lui	a5,0x100
    45cc:	0145d813          	srli	a6,a1,0x14
    45d0:	fff78793          	addi	a5,a5,-1 # fffff <__fpclassifyd+0xf9f7b>
    45d4:	0146d313          	srli	t1,a3,0x14
    45d8:	7ff87813          	andi	a6,a6,2047
    45dc:	7ff00e93          	li	t4,2047
    45e0:	00b7f733          	and	a4,a5,a1
    45e4:	00050893          	mv	a7,a0
    45e8:	01f5df93          	srli	t6,a1,0x1f
    45ec:	00d7f7b3          	and	a5,a5,a3
    45f0:	7ff37313          	andi	t1,t1,2047
    45f4:	01f6df13          	srli	t5,a3,0x1f
    45f8:	01d81863          	bne	a6,t4,4608 <__eqdf2+0x40>
    45fc:	00a76e33          	or	t3,a4,a0
    4600:	00100513          	li	a0,1
    4604:	040e1263          	bnez	t3,4648 <__eqdf2+0x80>
    4608:	01d31863          	bne	t1,t4,4618 <__eqdf2+0x50>
    460c:	00c7e7b3          	or	a5,a5,a2
    4610:	00100513          	li	a0,1
    4614:	02079a63          	bnez	a5,4648 <__eqdf2+0x80>
    4618:	00b6c6b3          	xor	a3,a3,a1
    461c:	00169693          	slli	a3,a3,0x1
    4620:	02069263          	bnez	a3,4644 <__eqdf2+0x7c>
    4624:	03161063          	bne	a2,a7,4644 <__eqdf2+0x7c>
    4628:	00000513          	li	a0,0
    462c:	01ef8e63          	beq	t6,t5,4648 <__eqdf2+0x80>
    4630:	00100513          	li	a0,1
    4634:	00081a63          	bnez	a6,4648 <__eqdf2+0x80>
    4638:	01176733          	or	a4,a4,a7
    463c:	00e03533          	snez	a0,a4
    4640:	00008067          	ret
    4644:	00100513          	li	a0,1
    4648:	00008067          	ret

0000464c <__gedf2>:
    464c:	0145d893          	srli	a7,a1,0x14
    4650:	00100737          	lui	a4,0x100
    4654:	fff70713          	addi	a4,a4,-1 # fffff <__fpclassifyd+0xf9f7b>
    4658:	0146d813          	srli	a6,a3,0x14
    465c:	7ff8f893          	andi	a7,a7,2047
    4660:	7ff00793          	li	a5,2047
    4664:	00b77333          	and	t1,a4,a1
    4668:	7ff87813          	andi	a6,a6,2047
    466c:	00d77733          	and	a4,a4,a3
    4670:	01f5d593          	srli	a1,a1,0x1f
    4674:	01f6d693          	srli	a3,a3,0x1f
    4678:	02f88063          	beq	a7,a5,4698 <__gedf2+0x4c>
    467c:	7ff00e13          	li	t3,2047
    4680:	00080793          	mv	a5,a6
    4684:	03c81463          	bne	a6,t3,46ac <__gedf2+0x60>
    4688:	00c76e33          	or	t3,a4,a2
    468c:	020e0063          	beqz	t3,46ac <__gedf2+0x60>
    4690:	ffe00793          	li	a5,-2
    4694:	0100006f          	j	46a4 <__gedf2+0x58>
    4698:	00a36e33          	or	t3,t1,a0
    469c:	ffe00793          	li	a5,-2
    46a0:	fc0e0ee3          	beqz	t3,467c <__gedf2+0x30>
    46a4:	00078513          	mv	a0,a5
    46a8:	00008067          	ret
    46ac:	00000e13          	li	t3,0
    46b0:	00089663          	bnez	a7,46bc <__gedf2+0x70>
    46b4:	00a36e33          	or	t3,t1,a0
    46b8:	001e3e13          	seqz	t3,t3
    46bc:	04081863          	bnez	a6,470c <__gedf2+0xc0>
    46c0:	00c76eb3          	or	t4,a4,a2
    46c4:	000e0a63          	beqz	t3,46d8 <__gedf2+0x8c>
    46c8:	fc0e8ee3          	beqz	t4,46a4 <__gedf2+0x58>
    46cc:	00169793          	slli	a5,a3,0x1
    46d0:	fff78793          	addi	a5,a5,-1
    46d4:	fd1ff06f          	j	46a4 <__gedf2+0x58>
    46d8:	020e9c63          	bnez	t4,4710 <__gedf2+0xc4>
    46dc:	40b005b3          	neg	a1,a1
    46e0:	0015e793          	ori	a5,a1,1
    46e4:	fc1ff06f          	j	46a4 <__gedf2+0x58>
    46e8:	ff08c2e3          	blt	a7,a6,46cc <__gedf2+0x80>
    46ec:	fe6768e3          	bltu	a4,t1,46dc <__gedf2+0x90>
    46f0:	00a67463          	bgeu	a2,a0,46f8 <__gedf2+0xac>
    46f4:	fee304e3          	beq	t1,a4,46dc <__gedf2+0x90>
    46f8:	00c56663          	bltu	a0,a2,4704 <__gedf2+0xb8>
    46fc:	00000793          	li	a5,0
    4700:	fae372e3          	bgeu	t1,a4,46a4 <__gedf2+0x58>
    4704:	00159793          	slli	a5,a1,0x1
    4708:	fc9ff06f          	j	46d0 <__gedf2+0x84>
    470c:	fc0e10e3          	bnez	t3,46cc <__gedf2+0x80>
    4710:	fcb696e3          	bne	a3,a1,46dc <__gedf2+0x90>
    4714:	fd185ae3          	bge	a6,a7,46e8 <__gedf2+0x9c>
    4718:	40d006b3          	neg	a3,a3
    471c:	0016e793          	ori	a5,a3,1
    4720:	f85ff06f          	j	46a4 <__gedf2+0x58>

00004724 <__ledf2>:
    4724:	0145d893          	srli	a7,a1,0x14
    4728:	00100737          	lui	a4,0x100
    472c:	fff70713          	addi	a4,a4,-1 # fffff <__fpclassifyd+0xf9f7b>
    4730:	0146d813          	srli	a6,a3,0x14
    4734:	7ff8f893          	andi	a7,a7,2047
    4738:	7ff00793          	li	a5,2047
    473c:	00b77333          	and	t1,a4,a1
    4740:	7ff87813          	andi	a6,a6,2047
    4744:	00d77733          	and	a4,a4,a3
    4748:	01f5d593          	srli	a1,a1,0x1f
    474c:	01f6d693          	srli	a3,a3,0x1f
    4750:	02f88063          	beq	a7,a5,4770 <__ledf2+0x4c>
    4754:	7ff00e13          	li	t3,2047
    4758:	00080793          	mv	a5,a6
    475c:	03c81463          	bne	a6,t3,4784 <__ledf2+0x60>
    4760:	00c76e33          	or	t3,a4,a2
    4764:	020e0063          	beqz	t3,4784 <__ledf2+0x60>
    4768:	00200793          	li	a5,2
    476c:	0100006f          	j	477c <__ledf2+0x58>
    4770:	00a36e33          	or	t3,t1,a0
    4774:	00200793          	li	a5,2
    4778:	fc0e0ee3          	beqz	t3,4754 <__ledf2+0x30>
    477c:	00078513          	mv	a0,a5
    4780:	00008067          	ret
    4784:	00000e13          	li	t3,0
    4788:	00089663          	bnez	a7,4794 <__ledf2+0x70>
    478c:	00a36e33          	or	t3,t1,a0
    4790:	001e3e13          	seqz	t3,t3
    4794:	04081863          	bnez	a6,47e4 <__ledf2+0xc0>
    4798:	00c76eb3          	or	t4,a4,a2
    479c:	000e0a63          	beqz	t3,47b0 <__ledf2+0x8c>
    47a0:	fc0e8ee3          	beqz	t4,477c <__ledf2+0x58>
    47a4:	00169793          	slli	a5,a3,0x1
    47a8:	fff78793          	addi	a5,a5,-1
    47ac:	fd1ff06f          	j	477c <__ledf2+0x58>
    47b0:	020e9c63          	bnez	t4,47e8 <__ledf2+0xc4>
    47b4:	40b005b3          	neg	a1,a1
    47b8:	0015e793          	ori	a5,a1,1
    47bc:	fc1ff06f          	j	477c <__ledf2+0x58>
    47c0:	ff08c2e3          	blt	a7,a6,47a4 <__ledf2+0x80>
    47c4:	fe6768e3          	bltu	a4,t1,47b4 <__ledf2+0x90>
    47c8:	00a67463          	bgeu	a2,a0,47d0 <__ledf2+0xac>
    47cc:	fee304e3          	beq	t1,a4,47b4 <__ledf2+0x90>
    47d0:	00c56663          	bltu	a0,a2,47dc <__ledf2+0xb8>
    47d4:	00000793          	li	a5,0
    47d8:	fae372e3          	bgeu	t1,a4,477c <__ledf2+0x58>
    47dc:	00159793          	slli	a5,a1,0x1
    47e0:	fc9ff06f          	j	47a8 <__ledf2+0x84>
    47e4:	fc0e10e3          	bnez	t3,47a4 <__ledf2+0x80>
    47e8:	fcb696e3          	bne	a3,a1,47b4 <__ledf2+0x90>
    47ec:	fd185ae3          	bge	a6,a7,47c0 <__ledf2+0x9c>
    47f0:	40d006b3          	neg	a3,a3
    47f4:	0016e793          	ori	a5,a3,1
    47f8:	f85ff06f          	j	477c <__ledf2+0x58>

000047fc <__muldf3>:
    47fc:	fd010113          	addi	sp,sp,-48
    4800:	01312e23          	sw	s3,28(sp)
    4804:	0145d993          	srli	s3,a1,0x14
    4808:	02812423          	sw	s0,40(sp)
    480c:	02912223          	sw	s1,36(sp)
    4810:	01412c23          	sw	s4,24(sp)
    4814:	01512a23          	sw	s5,20(sp)
    4818:	01712623          	sw	s7,12(sp)
    481c:	00c59493          	slli	s1,a1,0xc
    4820:	02112623          	sw	ra,44(sp)
    4824:	03212023          	sw	s2,32(sp)
    4828:	01612823          	sw	s6,16(sp)
    482c:	7ff9f993          	andi	s3,s3,2047
    4830:	00050413          	mv	s0,a0
    4834:	00060b93          	mv	s7,a2
    4838:	00068a13          	mv	s4,a3
    483c:	00c4d493          	srli	s1,s1,0xc
    4840:	01f5da93          	srli	s5,a1,0x1f
    4844:	0c098263          	beqz	s3,4908 <__muldf3+0x10c>
    4848:	7ff00793          	li	a5,2047
    484c:	12f98463          	beq	s3,a5,4974 <__muldf3+0x178>
    4850:	00349493          	slli	s1,s1,0x3
    4854:	01d55793          	srli	a5,a0,0x1d
    4858:	0097e7b3          	or	a5,a5,s1
    485c:	008004b7          	lui	s1,0x800
    4860:	0097e4b3          	or	s1,a5,s1
    4864:	00351913          	slli	s2,a0,0x3
    4868:	c0198993          	addi	s3,s3,-1023
    486c:	00000b13          	li	s6,0
    4870:	014a5793          	srli	a5,s4,0x14
    4874:	00ca1413          	slli	s0,s4,0xc
    4878:	7ff7f793          	andi	a5,a5,2047
    487c:	00c45413          	srli	s0,s0,0xc
    4880:	01fa5a13          	srli	s4,s4,0x1f
    4884:	12078063          	beqz	a5,49a4 <__muldf3+0x1a8>
    4888:	7ff00713          	li	a4,2047
    488c:	18e78463          	beq	a5,a4,4a14 <__muldf3+0x218>
    4890:	00341413          	slli	s0,s0,0x3
    4894:	01dbd713          	srli	a4,s7,0x1d
    4898:	00876733          	or	a4,a4,s0
    489c:	00800437          	lui	s0,0x800
    48a0:	00876433          	or	s0,a4,s0
    48a4:	003b9593          	slli	a1,s7,0x3
    48a8:	c0178793          	addi	a5,a5,-1023
    48ac:	00000693          	li	a3,0
    48b0:	00f989b3          	add	s3,s3,a5
    48b4:	002b1793          	slli	a5,s6,0x2
    48b8:	00d7e7b3          	or	a5,a5,a3
    48bc:	00a00713          	li	a4,10
    48c0:	00198893          	addi	a7,s3,1
    48c4:	1af74263          	blt	a4,a5,4a68 <__muldf3+0x26c>
    48c8:	00200613          	li	a2,2
    48cc:	014ac833          	xor	a6,s5,s4
    48d0:	00100713          	li	a4,1
    48d4:	16f64863          	blt	a2,a5,4a44 <__muldf3+0x248>
    48d8:	fff78793          	addi	a5,a5,-1
    48dc:	1af76663          	bltu	a4,a5,4a88 <__muldf3+0x28c>
    48e0:	00068b13          	mv	s6,a3
    48e4:	00200793          	li	a5,2
    48e8:	58fb0863          	beq	s6,a5,4e78 <__muldf3+0x67c>
    48ec:	00300793          	li	a5,3
    48f0:	56fb0e63          	beq	s6,a5,4e6c <__muldf3+0x670>
    48f4:	00100793          	li	a5,1
    48f8:	40fb1063          	bne	s6,a5,4cf8 <__muldf3+0x4fc>
    48fc:	00000413          	li	s0,0
    4900:	00000713          	li	a4,0
    4904:	5180006f          	j	4e1c <__muldf3+0x620>
    4908:	00a4e933          	or	s2,s1,a0
    490c:	06090e63          	beqz	s2,4988 <__muldf3+0x18c>
    4910:	04048263          	beqz	s1,4954 <__muldf3+0x158>
    4914:	00048513          	mv	a0,s1
    4918:	6d4000ef          	jal	4fec <__clzsi2>
    491c:	00050713          	mv	a4,a0
    4920:	ff550693          	addi	a3,a0,-11
    4924:	01d00793          	li	a5,29
    4928:	ff870613          	addi	a2,a4,-8
    492c:	40d787b3          	sub	a5,a5,a3
    4930:	00c494b3          	sll	s1,s1,a2
    4934:	00f457b3          	srl	a5,s0,a5
    4938:	0097e7b3          	or	a5,a5,s1
    493c:	00c414b3          	sll	s1,s0,a2
    4940:	c0d00993          	li	s3,-1011
    4944:	00048913          	mv	s2,s1
    4948:	40e989b3          	sub	s3,s3,a4
    494c:	00078493          	mv	s1,a5
    4950:	f1dff06f          	j	486c <__muldf3+0x70>
    4954:	698000ef          	jal	4fec <__clzsi2>
    4958:	01550693          	addi	a3,a0,21
    495c:	01c00793          	li	a5,28
    4960:	02050713          	addi	a4,a0,32
    4964:	fcd7d0e3          	bge	a5,a3,4924 <__muldf3+0x128>
    4968:	ff850793          	addi	a5,a0,-8
    496c:	00f417b3          	sll	a5,s0,a5
    4970:	fd1ff06f          	j	4940 <__muldf3+0x144>
    4974:	00a4e933          	or	s2,s1,a0
    4978:	02091063          	bnez	s2,4998 <__muldf3+0x19c>
    497c:	00000493          	li	s1,0
    4980:	00200b13          	li	s6,2
    4984:	eedff06f          	j	4870 <__muldf3+0x74>
    4988:	00000493          	li	s1,0
    498c:	00000993          	li	s3,0
    4990:	00100b13          	li	s6,1
    4994:	eddff06f          	j	4870 <__muldf3+0x74>
    4998:	00050913          	mv	s2,a0
    499c:	00300b13          	li	s6,3
    49a0:	ed1ff06f          	j	4870 <__muldf3+0x74>
    49a4:	017465b3          	or	a1,s0,s7
    49a8:	08058063          	beqz	a1,4a28 <__muldf3+0x22c>
    49ac:	04040263          	beqz	s0,49f0 <__muldf3+0x1f4>
    49b0:	00040513          	mv	a0,s0
    49b4:	638000ef          	jal	4fec <__clzsi2>
    49b8:	00050693          	mv	a3,a0
    49bc:	ff550793          	addi	a5,a0,-11
    49c0:	01d00713          	li	a4,29
    49c4:	ff868613          	addi	a2,a3,-8
    49c8:	40f70733          	sub	a4,a4,a5
    49cc:	00c41433          	sll	s0,s0,a2
    49d0:	00ebd733          	srl	a4,s7,a4
    49d4:	00876733          	or	a4,a4,s0
    49d8:	00cb9433          	sll	s0,s7,a2
    49dc:	c0d00793          	li	a5,-1011
    49e0:	00040593          	mv	a1,s0
    49e4:	40d787b3          	sub	a5,a5,a3
    49e8:	00070413          	mv	s0,a4
    49ec:	ec1ff06f          	j	48ac <__muldf3+0xb0>
    49f0:	000b8513          	mv	a0,s7
    49f4:	5f8000ef          	jal	4fec <__clzsi2>
    49f8:	01550793          	addi	a5,a0,21
    49fc:	01c00713          	li	a4,28
    4a00:	02050693          	addi	a3,a0,32
    4a04:	faf75ee3          	bge	a4,a5,49c0 <__muldf3+0x1c4>
    4a08:	ff850713          	addi	a4,a0,-8
    4a0c:	00eb9733          	sll	a4,s7,a4
    4a10:	fcdff06f          	j	49dc <__muldf3+0x1e0>
    4a14:	017465b3          	or	a1,s0,s7
    4a18:	02059063          	bnez	a1,4a38 <__muldf3+0x23c>
    4a1c:	00000413          	li	s0,0
    4a20:	00200693          	li	a3,2
    4a24:	e8dff06f          	j	48b0 <__muldf3+0xb4>
    4a28:	00000413          	li	s0,0
    4a2c:	00000793          	li	a5,0
    4a30:	00100693          	li	a3,1
    4a34:	e7dff06f          	j	48b0 <__muldf3+0xb4>
    4a38:	000b8593          	mv	a1,s7
    4a3c:	00300693          	li	a3,3
    4a40:	e71ff06f          	j	48b0 <__muldf3+0xb4>
    4a44:	00f717b3          	sll	a5,a4,a5
    4a48:	5307f713          	andi	a4,a5,1328
    4a4c:	02071863          	bnez	a4,4a7c <__muldf3+0x280>
    4a50:	2407f613          	andi	a2,a5,576
    4a54:	40061463          	bnez	a2,4e5c <__muldf3+0x660>
    4a58:	0887f793          	andi	a5,a5,136
    4a5c:	02078663          	beqz	a5,4a88 <__muldf3+0x28c>
    4a60:	000a0813          	mv	a6,s4
    4a64:	e7dff06f          	j	48e0 <__muldf3+0xe4>
    4a68:	00f00713          	li	a4,15
    4a6c:	40e78063          	beq	a5,a4,4e6c <__muldf3+0x670>
    4a70:	00b00713          	li	a4,11
    4a74:	000a8813          	mv	a6,s5
    4a78:	fee784e3          	beq	a5,a4,4a60 <__muldf3+0x264>
    4a7c:	00048413          	mv	s0,s1
    4a80:	00090593          	mv	a1,s2
    4a84:	e61ff06f          	j	48e4 <__muldf3+0xe8>
    4a88:	01095793          	srli	a5,s2,0x10
    4a8c:	01059f13          	slli	t5,a1,0x10
    4a90:	01091913          	slli	s2,s2,0x10
    4a94:	01095913          	srli	s2,s2,0x10
    4a98:	010f5f13          	srli	t5,t5,0x10
    4a9c:	0105de93          	srli	t4,a1,0x10
    4aa0:	00090513          	mv	a0,s2
    4aa4:	000f0593          	mv	a1,t5
    4aa8:	46c000ef          	jal	4f14 <__mulsi3>
    4aac:	00050e13          	mv	t3,a0
    4ab0:	000e8593          	mv	a1,t4
    4ab4:	00090513          	mv	a0,s2
    4ab8:	45c000ef          	jal	4f14 <__mulsi3>
    4abc:	00050f93          	mv	t6,a0
    4ac0:	000f0593          	mv	a1,t5
    4ac4:	00078513          	mv	a0,a5
    4ac8:	44c000ef          	jal	4f14 <__mulsi3>
    4acc:	00050293          	mv	t0,a0
    4ad0:	000e8593          	mv	a1,t4
    4ad4:	00078513          	mv	a0,a5
    4ad8:	43c000ef          	jal	4f14 <__mulsi3>
    4adc:	010e5313          	srli	t1,t3,0x10
    4ae0:	005f8fb3          	add	t6,t6,t0
    4ae4:	01f30333          	add	t1,t1,t6
    4ae8:	00050713          	mv	a4,a0
    4aec:	00537663          	bgeu	t1,t0,4af8 <__muldf3+0x2fc>
    4af0:	000106b7          	lui	a3,0x10
    4af4:	00d50733          	add	a4,a0,a3
    4af8:	010e1e13          	slli	t3,t3,0x10
    4afc:	01035393          	srli	t2,t1,0x10
    4b00:	010e5e13          	srli	t3,t3,0x10
    4b04:	01031313          	slli	t1,t1,0x10
    4b08:	01c30333          	add	t1,t1,t3
    4b0c:	01045e13          	srli	t3,s0,0x10
    4b10:	01041413          	slli	s0,s0,0x10
    4b14:	01045413          	srli	s0,s0,0x10
    4b18:	00090513          	mv	a0,s2
    4b1c:	00040593          	mv	a1,s0
    4b20:	3f4000ef          	jal	4f14 <__mulsi3>
    4b24:	00050293          	mv	t0,a0
    4b28:	000e0593          	mv	a1,t3
    4b2c:	00090513          	mv	a0,s2
    4b30:	3e4000ef          	jal	4f14 <__mulsi3>
    4b34:	00050f93          	mv	t6,a0
    4b38:	00040593          	mv	a1,s0
    4b3c:	00078513          	mv	a0,a5
    4b40:	3d4000ef          	jal	4f14 <__mulsi3>
    4b44:	00050913          	mv	s2,a0
    4b48:	000e0593          	mv	a1,t3
    4b4c:	00078513          	mv	a0,a5
    4b50:	3c4000ef          	jal	4f14 <__mulsi3>
    4b54:	0102d793          	srli	a5,t0,0x10
    4b58:	012f8fb3          	add	t6,t6,s2
    4b5c:	01f787b3          	add	a5,a5,t6
    4b60:	0127f663          	bgeu	a5,s2,4b6c <__muldf3+0x370>
    4b64:	000106b7          	lui	a3,0x10
    4b68:	00d50533          	add	a0,a0,a3
    4b6c:	01029293          	slli	t0,t0,0x10
    4b70:	0107d593          	srli	a1,a5,0x10
    4b74:	0102d293          	srli	t0,t0,0x10
    4b78:	0104d913          	srli	s2,s1,0x10
    4b7c:	01079793          	slli	a5,a5,0x10
    4b80:	01049493          	slli	s1,s1,0x10
    4b84:	005787b3          	add	a5,a5,t0
    4b88:	0104d493          	srli	s1,s1,0x10
    4b8c:	00a58fb3          	add	t6,a1,a0
    4b90:	00f383b3          	add	t2,t2,a5
    4b94:	00048513          	mv	a0,s1
    4b98:	000f0593          	mv	a1,t5
    4b9c:	378000ef          	jal	4f14 <__mulsi3>
    4ba0:	00050293          	mv	t0,a0
    4ba4:	000e8593          	mv	a1,t4
    4ba8:	00048513          	mv	a0,s1
    4bac:	368000ef          	jal	4f14 <__mulsi3>
    4bb0:	00050a13          	mv	s4,a0
    4bb4:	000f0593          	mv	a1,t5
    4bb8:	00090513          	mv	a0,s2
    4bbc:	358000ef          	jal	4f14 <__mulsi3>
    4bc0:	00050f13          	mv	t5,a0
    4bc4:	000e8593          	mv	a1,t4
    4bc8:	00090513          	mv	a0,s2
    4bcc:	348000ef          	jal	4f14 <__mulsi3>
    4bd0:	0102d613          	srli	a2,t0,0x10
    4bd4:	01ea0a33          	add	s4,s4,t5
    4bd8:	01460633          	add	a2,a2,s4
    4bdc:	01e67663          	bgeu	a2,t5,4be8 <__muldf3+0x3ec>
    4be0:	000106b7          	lui	a3,0x10
    4be4:	00d50533          	add	a0,a0,a3
    4be8:	01029293          	slli	t0,t0,0x10
    4bec:	01065593          	srli	a1,a2,0x10
    4bf0:	0102d293          	srli	t0,t0,0x10
    4bf4:	01061613          	slli	a2,a2,0x10
    4bf8:	00a58eb3          	add	t4,a1,a0
    4bfc:	00560f33          	add	t5,a2,t0
    4c00:	00048513          	mv	a0,s1
    4c04:	00040593          	mv	a1,s0
    4c08:	30c000ef          	jal	4f14 <__mulsi3>
    4c0c:	00050293          	mv	t0,a0
    4c10:	000e0593          	mv	a1,t3
    4c14:	00048513          	mv	a0,s1
    4c18:	2fc000ef          	jal	4f14 <__mulsi3>
    4c1c:	00050493          	mv	s1,a0
    4c20:	00040593          	mv	a1,s0
    4c24:	00090513          	mv	a0,s2
    4c28:	2ec000ef          	jal	4f14 <__mulsi3>
    4c2c:	00050413          	mv	s0,a0
    4c30:	000e0593          	mv	a1,t3
    4c34:	00090513          	mv	a0,s2
    4c38:	2dc000ef          	jal	4f14 <__mulsi3>
    4c3c:	0102d613          	srli	a2,t0,0x10
    4c40:	008484b3          	add	s1,s1,s0
    4c44:	00960633          	add	a2,a2,s1
    4c48:	00050e13          	mv	t3,a0
    4c4c:	00867663          	bgeu	a2,s0,4c58 <__muldf3+0x45c>
    4c50:	000106b7          	lui	a3,0x10
    4c54:	00d50e33          	add	t3,a0,a3
    4c58:	01029293          	slli	t0,t0,0x10
    4c5c:	01061693          	slli	a3,a2,0x10
    4c60:	0102d293          	srli	t0,t0,0x10
    4c64:	00770733          	add	a4,a4,t2
    4c68:	005686b3          	add	a3,a3,t0
    4c6c:	01f685b3          	add	a1,a3,t6
    4c70:	00f737b3          	sltu	a5,a4,a5
    4c74:	00f587b3          	add	a5,a1,a5
    4c78:	00d5b6b3          	sltu	a3,a1,a3
    4c7c:	00b7b5b3          	sltu	a1,a5,a1
    4c80:	00b6e6b3          	or	a3,a3,a1
    4c84:	01065613          	srli	a2,a2,0x10
    4c88:	00c686b3          	add	a3,a3,a2
    4c8c:	01e70633          	add	a2,a4,t5
    4c90:	01d785b3          	add	a1,a5,t4
    4c94:	00e63733          	sltu	a4,a2,a4
    4c98:	00e58733          	add	a4,a1,a4
    4c9c:	00f5b7b3          	sltu	a5,a1,a5
    4ca0:	00b735b3          	sltu	a1,a4,a1
    4ca4:	00b7e7b3          	or	a5,a5,a1
    4ca8:	00961593          	slli	a1,a2,0x9
    4cac:	00d787b3          	add	a5,a5,a3
    4cb0:	0065e5b3          	or	a1,a1,t1
    4cb4:	01c787b3          	add	a5,a5,t3
    4cb8:	00b035b3          	snez	a1,a1
    4cbc:	01765613          	srli	a2,a2,0x17
    4cc0:	00979793          	slli	a5,a5,0x9
    4cc4:	01775413          	srli	s0,a4,0x17
    4cc8:	00c5e5b3          	or	a1,a1,a2
    4ccc:	00971713          	slli	a4,a4,0x9
    4cd0:	00e5e5b3          	or	a1,a1,a4
    4cd4:	00779713          	slli	a4,a5,0x7
    4cd8:	0087e433          	or	s0,a5,s0
    4cdc:	0c075063          	bgez	a4,4d9c <__muldf3+0x5a0>
    4ce0:	0015d793          	srli	a5,a1,0x1
    4ce4:	0015f593          	andi	a1,a1,1
    4ce8:	00b7e7b3          	or	a5,a5,a1
    4cec:	01f41593          	slli	a1,s0,0x1f
    4cf0:	00b7e5b3          	or	a1,a5,a1
    4cf4:	00145413          	srli	s0,s0,0x1
    4cf8:	3ff88793          	addi	a5,a7,1023
    4cfc:	0af05463          	blez	a5,4da4 <__muldf3+0x5a8>
    4d00:	0075f713          	andi	a4,a1,7
    4d04:	02070063          	beqz	a4,4d24 <__muldf3+0x528>
    4d08:	00f5f713          	andi	a4,a1,15
    4d0c:	00400693          	li	a3,4
    4d10:	00d70a63          	beq	a4,a3,4d24 <__muldf3+0x528>
    4d14:	00d58733          	add	a4,a1,a3
    4d18:	00b736b3          	sltu	a3,a4,a1
    4d1c:	00d40433          	add	s0,s0,a3
    4d20:	00070593          	mv	a1,a4
    4d24:	00741713          	slli	a4,s0,0x7
    4d28:	00075a63          	bgez	a4,4d3c <__muldf3+0x540>
    4d2c:	ff0007b7          	lui	a5,0xff000
    4d30:	fff78793          	addi	a5,a5,-1 # feffffff <_stack_end+0xfeeeffff>
    4d34:	00f47433          	and	s0,s0,a5
    4d38:	40088793          	addi	a5,a7,1024
    4d3c:	7fe00713          	li	a4,2046
    4d40:	12f74c63          	blt	a4,a5,4e78 <__muldf3+0x67c>
    4d44:	01d41713          	slli	a4,s0,0x1d
    4d48:	0035d593          	srli	a1,a1,0x3
    4d4c:	00b76733          	or	a4,a4,a1
    4d50:	00345413          	srli	s0,s0,0x3
    4d54:	00c41413          	slli	s0,s0,0xc
    4d58:	00c45413          	srli	s0,s0,0xc
    4d5c:	01479793          	slli	a5,a5,0x14
    4d60:	02c12083          	lw	ra,44(sp)
    4d64:	0087e7b3          	or	a5,a5,s0
    4d68:	02812403          	lw	s0,40(sp)
    4d6c:	01f81813          	slli	a6,a6,0x1f
    4d70:	02412483          	lw	s1,36(sp)
    4d74:	02012903          	lw	s2,32(sp)
    4d78:	01c12983          	lw	s3,28(sp)
    4d7c:	01812a03          	lw	s4,24(sp)
    4d80:	01412a83          	lw	s5,20(sp)
    4d84:	01012b03          	lw	s6,16(sp)
    4d88:	00c12b83          	lw	s7,12(sp)
    4d8c:	00070513          	mv	a0,a4
    4d90:	0107e5b3          	or	a1,a5,a6
    4d94:	03010113          	addi	sp,sp,48
    4d98:	00008067          	ret
    4d9c:	00098893          	mv	a7,s3
    4da0:	f59ff06f          	j	4cf8 <__muldf3+0x4fc>
    4da4:	08078063          	beqz	a5,4e24 <__muldf3+0x628>
    4da8:	fc900713          	li	a4,-55
    4dac:	b4e7c8e3          	blt	a5,a4,48fc <__muldf3+0x100>
    4db0:	fe200713          	li	a4,-30
    4db4:	06e7cc63          	blt	a5,a4,4e2c <__muldf3+0x630>
    4db8:	00100713          	li	a4,1
    4dbc:	40f70733          	sub	a4,a4,a5
    4dc0:	41e88893          	addi	a7,a7,1054
    4dc4:	011597b3          	sll	a5,a1,a7
    4dc8:	00f037b3          	snez	a5,a5
    4dcc:	011418b3          	sll	a7,s0,a7
    4dd0:	00e5d6b3          	srl	a3,a1,a4
    4dd4:	0117e7b3          	or	a5,a5,a7
    4dd8:	00d7e7b3          	or	a5,a5,a3
    4ddc:	00e45433          	srl	s0,s0,a4
    4de0:	0077f713          	andi	a4,a5,7
    4de4:	02070063          	beqz	a4,4e04 <__muldf3+0x608>
    4de8:	00f7f713          	andi	a4,a5,15
    4dec:	00400693          	li	a3,4
    4df0:	00d70a63          	beq	a4,a3,4e04 <__muldf3+0x608>
    4df4:	00d78733          	add	a4,a5,a3
    4df8:	00f736b3          	sltu	a3,a4,a5
    4dfc:	00d40433          	add	s0,s0,a3
    4e00:	00070793          	mv	a5,a4
    4e04:	00841713          	slli	a4,s0,0x8
    4e08:	08074063          	bltz	a4,4e88 <__muldf3+0x68c>
    4e0c:	01d41713          	slli	a4,s0,0x1d
    4e10:	0037d793          	srli	a5,a5,0x3
    4e14:	00f76733          	or	a4,a4,a5
    4e18:	00345413          	srli	s0,s0,0x3
    4e1c:	00000793          	li	a5,0
    4e20:	f35ff06f          	j	4d54 <__muldf3+0x558>
    4e24:	00100713          	li	a4,1
    4e28:	f99ff06f          	j	4dc0 <__muldf3+0x5c4>
    4e2c:	fe100613          	li	a2,-31
    4e30:	40f60733          	sub	a4,a2,a5
    4e34:	00e45733          	srl	a4,s0,a4
    4e38:	00000693          	li	a3,0
    4e3c:	00c78663          	beq	a5,a2,4e48 <__muldf3+0x64c>
    4e40:	43e88893          	addi	a7,a7,1086
    4e44:	011416b3          	sll	a3,s0,a7
    4e48:	00d5e5b3          	or	a1,a1,a3
    4e4c:	00b035b3          	snez	a1,a1
    4e50:	00b767b3          	or	a5,a4,a1
    4e54:	00000413          	li	s0,0
    4e58:	f89ff06f          	j	4de0 <__muldf3+0x5e4>
    4e5c:	00080437          	lui	s0,0x80
    4e60:	7ff00793          	li	a5,2047
    4e64:	00000813          	li	a6,0
    4e68:	eedff06f          	j	4d54 <__muldf3+0x558>
    4e6c:	00080437          	lui	s0,0x80
    4e70:	00000713          	li	a4,0
    4e74:	fedff06f          	j	4e60 <__muldf3+0x664>
    4e78:	00000413          	li	s0,0
    4e7c:	00000713          	li	a4,0
    4e80:	7ff00793          	li	a5,2047
    4e84:	ed1ff06f          	j	4d54 <__muldf3+0x558>
    4e88:	00000413          	li	s0,0
    4e8c:	00000713          	li	a4,0
    4e90:	00100793          	li	a5,1
    4e94:	ec1ff06f          	j	4d54 <__muldf3+0x558>

00004e98 <__fixdfsi>:
    4e98:	0145d713          	srli	a4,a1,0x14
    4e9c:	001006b7          	lui	a3,0x100
    4ea0:	fff68793          	addi	a5,a3,-1 # fffff <__fpclassifyd+0xf9f7b>
    4ea4:	7ff77713          	andi	a4,a4,2047
    4ea8:	3fe00613          	li	a2,1022
    4eac:	00b7f7b3          	and	a5,a5,a1
    4eb0:	01f5d593          	srli	a1,a1,0x1f
    4eb4:	04e65c63          	bge	a2,a4,4f0c <__fixdfsi+0x74>
    4eb8:	41d00613          	li	a2,1053
    4ebc:	00e65a63          	bge	a2,a4,4ed0 <__fixdfsi+0x38>
    4ec0:	80000537          	lui	a0,0x80000
    4ec4:	fff50513          	addi	a0,a0,-1 # 7fffffff <_stack_end+0x7feeffff>
    4ec8:	00a58533          	add	a0,a1,a0
    4ecc:	00008067          	ret
    4ed0:	00d7e7b3          	or	a5,a5,a3
    4ed4:	41300693          	li	a3,1043
    4ed8:	02e6d463          	bge	a3,a4,4f00 <__fixdfsi+0x68>
    4edc:	bed70693          	addi	a3,a4,-1043
    4ee0:	00d797b3          	sll	a5,a5,a3
    4ee4:	43300693          	li	a3,1075
    4ee8:	40e68733          	sub	a4,a3,a4
    4eec:	00e55533          	srl	a0,a0,a4
    4ef0:	00a7e533          	or	a0,a5,a0
    4ef4:	00058e63          	beqz	a1,4f10 <__fixdfsi+0x78>
    4ef8:	40a00533          	neg	a0,a0
    4efc:	00008067          	ret
    4f00:	40e686b3          	sub	a3,a3,a4
    4f04:	00d7d533          	srl	a0,a5,a3
    4f08:	fedff06f          	j	4ef4 <__fixdfsi+0x5c>
    4f0c:	00000513          	li	a0,0
    4f10:	00008067          	ret

00004f14 <__mulsi3>:
    4f14:	00050613          	mv	a2,a0
    4f18:	00000513          	li	a0,0
    4f1c:	0015f693          	andi	a3,a1,1
    4f20:	00068463          	beqz	a3,4f28 <__mulsi3+0x14>
    4f24:	00c50533          	add	a0,a0,a2
    4f28:	0015d593          	srli	a1,a1,0x1
    4f2c:	00161613          	slli	a2,a2,0x1
    4f30:	fe0596e3          	bnez	a1,4f1c <__mulsi3+0x8>
    4f34:	00008067          	ret

00004f38 <__divsi3>:
    4f38:	06054063          	bltz	a0,4f98 <__umodsi3+0x10>
    4f3c:	0605c663          	bltz	a1,4fa8 <__umodsi3+0x20>

00004f40 <__hidden___udivsi3>:
    4f40:	00058613          	mv	a2,a1
    4f44:	00050593          	mv	a1,a0
    4f48:	fff00513          	li	a0,-1
    4f4c:	02060c63          	beqz	a2,4f84 <__hidden___udivsi3+0x44>
    4f50:	00100693          	li	a3,1
    4f54:	00b67a63          	bgeu	a2,a1,4f68 <__hidden___udivsi3+0x28>
    4f58:	00c05863          	blez	a2,4f68 <__hidden___udivsi3+0x28>
    4f5c:	00161613          	slli	a2,a2,0x1
    4f60:	00169693          	slli	a3,a3,0x1
    4f64:	feb66ae3          	bltu	a2,a1,4f58 <__hidden___udivsi3+0x18>
    4f68:	00000513          	li	a0,0
    4f6c:	00c5e663          	bltu	a1,a2,4f78 <__hidden___udivsi3+0x38>
    4f70:	40c585b3          	sub	a1,a1,a2
    4f74:	00d56533          	or	a0,a0,a3
    4f78:	0016d693          	srli	a3,a3,0x1
    4f7c:	00165613          	srli	a2,a2,0x1
    4f80:	fe0696e3          	bnez	a3,4f6c <__hidden___udivsi3+0x2c>
    4f84:	00008067          	ret

00004f88 <__umodsi3>:
    4f88:	00008293          	mv	t0,ra
    4f8c:	fb5ff0ef          	jal	4f40 <__hidden___udivsi3>
    4f90:	00058513          	mv	a0,a1
    4f94:	00028067          	jr	t0
    4f98:	40a00533          	neg	a0,a0
    4f9c:	00b04863          	bgtz	a1,4fac <__umodsi3+0x24>
    4fa0:	40b005b3          	neg	a1,a1
    4fa4:	f9dff06f          	j	4f40 <__hidden___udivsi3>
    4fa8:	40b005b3          	neg	a1,a1
    4fac:	00008293          	mv	t0,ra
    4fb0:	f91ff0ef          	jal	4f40 <__hidden___udivsi3>
    4fb4:	40a00533          	neg	a0,a0
    4fb8:	00028067          	jr	t0

00004fbc <__modsi3>:
    4fbc:	00008293          	mv	t0,ra
    4fc0:	0005ca63          	bltz	a1,4fd4 <__modsi3+0x18>
    4fc4:	00054c63          	bltz	a0,4fdc <__modsi3+0x20>
    4fc8:	f79ff0ef          	jal	4f40 <__hidden___udivsi3>
    4fcc:	00058513          	mv	a0,a1
    4fd0:	00028067          	jr	t0
    4fd4:	40b005b3          	neg	a1,a1
    4fd8:	fe0558e3          	bgez	a0,4fc8 <__modsi3+0xc>
    4fdc:	40a00533          	neg	a0,a0
    4fe0:	f61ff0ef          	jal	4f40 <__hidden___udivsi3>
    4fe4:	40b00533          	neg	a0,a1
    4fe8:	00028067          	jr	t0

00004fec <__clzsi2>:
    4fec:	000107b7          	lui	a5,0x10
    4ff0:	02f57a63          	bgeu	a0,a5,5024 <__clzsi2+0x38>
    4ff4:	10053793          	sltiu	a5,a0,256
    4ff8:	0017b793          	seqz	a5,a5
    4ffc:	00379793          	slli	a5,a5,0x3
    5000:	00100737          	lui	a4,0x100
    5004:	00f55533          	srl	a0,a0,a5
    5008:	4bc70713          	addi	a4,a4,1212 # 1004bc <__clz_tab>
    500c:	00a70733          	add	a4,a4,a0
    5010:	00074503          	lbu	a0,0(a4)
    5014:	02000693          	li	a3,32
    5018:	40f686b3          	sub	a3,a3,a5
    501c:	40a68533          	sub	a0,a3,a0
    5020:	00008067          	ret
    5024:	01000737          	lui	a4,0x1000
    5028:	01800793          	li	a5,24
    502c:	fce57ae3          	bgeu	a0,a4,5000 <__clzsi2+0x14>
    5030:	01000793          	li	a5,16
    5034:	fcdff06f          	j	5000 <__clzsi2+0x14>

00005038 <__subdf3>:
    5038:	00100837          	lui	a6,0x100
    503c:	fff80813          	addi	a6,a6,-1 # fffff <__fpclassifyd+0xf9f7b>
    5040:	fe010113          	addi	sp,sp,-32
    5044:	00b877b3          	and	a5,a6,a1
    5048:	0145d713          	srli	a4,a1,0x14
    504c:	00d87833          	and	a6,a6,a3
    5050:	0146d893          	srli	a7,a3,0x14
    5054:	00912a23          	sw	s1,20(sp)
    5058:	00379793          	slli	a5,a5,0x3
    505c:	7ff77493          	andi	s1,a4,2047
    5060:	01d55713          	srli	a4,a0,0x1d
    5064:	01212823          	sw	s2,16(sp)
    5068:	00f767b3          	or	a5,a4,a5
    506c:	01f5d913          	srli	s2,a1,0x1f
    5070:	01d65713          	srli	a4,a2,0x1d
    5074:	00381813          	slli	a6,a6,0x3
    5078:	00112e23          	sw	ra,28(sp)
    507c:	00812c23          	sw	s0,24(sp)
    5080:	01312623          	sw	s3,12(sp)
    5084:	7ff8f893          	andi	a7,a7,2047
    5088:	7ff00593          	li	a1,2047
    508c:	00351513          	slli	a0,a0,0x3
    5090:	01f6d693          	srli	a3,a3,0x1f
    5094:	01076733          	or	a4,a4,a6
    5098:	00361613          	slli	a2,a2,0x3
    509c:	00b89663          	bne	a7,a1,50a8 <__subdf3+0x70>
    50a0:	00c765b3          	or	a1,a4,a2
    50a4:	00059463          	bnez	a1,50ac <__subdf3+0x74>
    50a8:	0016c693          	xori	a3,a3,1
    50ac:	41148833          	sub	a6,s1,a7
    50b0:	7ff00593          	li	a1,2047
    50b4:	31269463          	bne	a3,s2,53bc <__subdf3+0x384>
    50b8:	11005263          	blez	a6,51bc <__subdf3+0x184>
    50bc:	02089c63          	bnez	a7,50f4 <__subdf3+0xbc>
    50c0:	00c766b3          	or	a3,a4,a2
    50c4:	02068463          	beqz	a3,50ec <__subdf3+0xb4>
    50c8:	fff48813          	addi	a6,s1,-1 # 7fffff <_stack_end+0x6effff>
    50cc:	00081e63          	bnez	a6,50e8 <__subdf3+0xb0>
    50d0:	00c50633          	add	a2,a0,a2
    50d4:	00e787b3          	add	a5,a5,a4
    50d8:	00a63533          	sltu	a0,a2,a0
    50dc:	00a787b3          	add	a5,a5,a0
    50e0:	00100493          	li	s1,1
    50e4:	0600006f          	j	5144 <__subdf3+0x10c>
    50e8:	00b49c63          	bne	s1,a1,5100 <__subdf3+0xc8>
    50ec:	00050613          	mv	a2,a0
    50f0:	1d80006f          	j	52c8 <__subdf3+0x290>
    50f4:	feb48ce3          	beq	s1,a1,50ec <__subdf3+0xb4>
    50f8:	008006b7          	lui	a3,0x800
    50fc:	00d76733          	or	a4,a4,a3
    5100:	03800693          	li	a3,56
    5104:	0b06c663          	blt	a3,a6,51b0 <__subdf3+0x178>
    5108:	01f00693          	li	a3,31
    510c:	02000893          	li	a7,32
    5110:	0706c863          	blt	a3,a6,5180 <__subdf3+0x148>
    5114:	410888b3          	sub	a7,a7,a6
    5118:	011716b3          	sll	a3,a4,a7
    511c:	010655b3          	srl	a1,a2,a6
    5120:	011618b3          	sll	a7,a2,a7
    5124:	00b6e6b3          	or	a3,a3,a1
    5128:	011038b3          	snez	a7,a7
    512c:	0116e6b3          	or	a3,a3,a7
    5130:	01075833          	srl	a6,a4,a6
    5134:	00a68633          	add	a2,a3,a0
    5138:	00f80833          	add	a6,a6,a5
    513c:	00d636b3          	sltu	a3,a2,a3
    5140:	00d807b3          	add	a5,a6,a3
    5144:	00879713          	slli	a4,a5,0x8
    5148:	22075663          	bgez	a4,5374 <__subdf3+0x33c>
    514c:	00148493          	addi	s1,s1,1
    5150:	7ff00713          	li	a4,2047
    5154:	60e48863          	beq	s1,a4,5764 <__subdf3+0x72c>
    5158:	ff800737          	lui	a4,0xff800
    515c:	fff70713          	addi	a4,a4,-1 # ff7fffff <_stack_end+0xff6effff>
    5160:	00e7f7b3          	and	a5,a5,a4
    5164:	00165713          	srli	a4,a2,0x1
    5168:	00167613          	andi	a2,a2,1
    516c:	00c76733          	or	a4,a4,a2
    5170:	01f79613          	slli	a2,a5,0x1f
    5174:	00e66633          	or	a2,a2,a4
    5178:	0017d793          	srli	a5,a5,0x1
    517c:	1f80006f          	j	5374 <__subdf3+0x33c>
    5180:	fe080693          	addi	a3,a6,-32
    5184:	00d756b3          	srl	a3,a4,a3
    5188:	00000593          	li	a1,0
    518c:	01180863          	beq	a6,a7,519c <__subdf3+0x164>
    5190:	04000593          	li	a1,64
    5194:	410585b3          	sub	a1,a1,a6
    5198:	00b715b3          	sll	a1,a4,a1
    519c:	00c5e5b3          	or	a1,a1,a2
    51a0:	00b035b3          	snez	a1,a1
    51a4:	00b6e6b3          	or	a3,a3,a1
    51a8:	00000813          	li	a6,0
    51ac:	f89ff06f          	j	5134 <__subdf3+0xfc>
    51b0:	00c766b3          	or	a3,a4,a2
    51b4:	00d036b3          	snez	a3,a3
    51b8:	ff1ff06f          	j	51a8 <__subdf3+0x170>
    51bc:	0c080263          	beqz	a6,5280 <__subdf3+0x248>
    51c0:	409886b3          	sub	a3,a7,s1
    51c4:	02049263          	bnez	s1,51e8 <__subdf3+0x1b0>
    51c8:	00a7e833          	or	a6,a5,a0
    51cc:	00080863          	beqz	a6,51dc <__subdf3+0x1a4>
    51d0:	fff68813          	addi	a6,a3,-1 # 7fffff <_stack_end+0x6effff>
    51d4:	ee080ee3          	beqz	a6,50d0 <__subdf3+0x98>
    51d8:	02b69063          	bne	a3,a1,51f8 <__subdf3+0x1c0>
    51dc:	00070793          	mv	a5,a4
    51e0:	00068493          	mv	s1,a3
    51e4:	0e40006f          	j	52c8 <__subdf3+0x290>
    51e8:	58b88663          	beq	a7,a1,5774 <__subdf3+0x73c>
    51ec:	008005b7          	lui	a1,0x800
    51f0:	00b7e7b3          	or	a5,a5,a1
    51f4:	00068813          	mv	a6,a3
    51f8:	03800693          	li	a3,56
    51fc:	0706cc63          	blt	a3,a6,5274 <__subdf3+0x23c>
    5200:	01f00693          	li	a3,31
    5204:	02000313          	li	t1,32
    5208:	0306ce63          	blt	a3,a6,5244 <__subdf3+0x20c>
    520c:	41030333          	sub	t1,t1,a6
    5210:	006796b3          	sll	a3,a5,t1
    5214:	010555b3          	srl	a1,a0,a6
    5218:	00651333          	sll	t1,a0,t1
    521c:	00b6e6b3          	or	a3,a3,a1
    5220:	00603333          	snez	t1,t1
    5224:	0066e6b3          	or	a3,a3,t1
    5228:	0107d833          	srl	a6,a5,a6
    522c:	00c68633          	add	a2,a3,a2
    5230:	00e80833          	add	a6,a6,a4
    5234:	00d636b3          	sltu	a3,a2,a3
    5238:	00d807b3          	add	a5,a6,a3
    523c:	00088493          	mv	s1,a7
    5240:	f05ff06f          	j	5144 <__subdf3+0x10c>
    5244:	fe080693          	addi	a3,a6,-32
    5248:	00d7d6b3          	srl	a3,a5,a3
    524c:	00000593          	li	a1,0
    5250:	00680863          	beq	a6,t1,5260 <__subdf3+0x228>
    5254:	04000593          	li	a1,64
    5258:	410585b3          	sub	a1,a1,a6
    525c:	00b795b3          	sll	a1,a5,a1
    5260:	00a5e5b3          	or	a1,a1,a0
    5264:	00b035b3          	snez	a1,a1
    5268:	00b6e6b3          	or	a3,a3,a1
    526c:	00000813          	li	a6,0
    5270:	fbdff06f          	j	522c <__subdf3+0x1f4>
    5274:	00a7e6b3          	or	a3,a5,a0
    5278:	00d036b3          	snez	a3,a3
    527c:	ff1ff06f          	j	526c <__subdf3+0x234>
    5280:	00148693          	addi	a3,s1,1
    5284:	7fe6f813          	andi	a6,a3,2046
    5288:	0c081263          	bnez	a6,534c <__subdf3+0x314>
    528c:	00a7e6b3          	or	a3,a5,a0
    5290:	0a049463          	bnez	s1,5338 <__subdf3+0x300>
    5294:	4a068863          	beqz	a3,5744 <__subdf3+0x70c>
    5298:	00c766b3          	or	a3,a4,a2
    529c:	4a068863          	beqz	a3,574c <__subdf3+0x714>
    52a0:	00c50633          	add	a2,a0,a2
    52a4:	00e787b3          	add	a5,a5,a4
    52a8:	00a63533          	sltu	a0,a2,a0
    52ac:	00a787b3          	add	a5,a5,a0
    52b0:	00879713          	slli	a4,a5,0x8
    52b4:	32075a63          	bgez	a4,55e8 <__subdf3+0x5b0>
    52b8:	ff800737          	lui	a4,0xff800
    52bc:	fff70713          	addi	a4,a4,-1 # ff7fffff <_stack_end+0xff6effff>
    52c0:	00e7f7b3          	and	a5,a5,a4
    52c4:	00100493          	li	s1,1
    52c8:	01d79693          	slli	a3,a5,0x1d
    52cc:	00365613          	srli	a2,a2,0x3
    52d0:	7ff00713          	li	a4,2047
    52d4:	00c6e6b3          	or	a3,a3,a2
    52d8:	0037d793          	srli	a5,a5,0x3
    52dc:	00e49e63          	bne	s1,a4,52f8 <__subdf3+0x2c0>
    52e0:	00f6e6b3          	or	a3,a3,a5
    52e4:	00000793          	li	a5,0
    52e8:	00068863          	beqz	a3,52f8 <__subdf3+0x2c0>
    52ec:	000807b7          	lui	a5,0x80
    52f0:	00000693          	li	a3,0
    52f4:	00000913          	li	s2,0
    52f8:	7ff4f713          	andi	a4,s1,2047
    52fc:	00c79793          	slli	a5,a5,0xc
    5300:	01c12083          	lw	ra,28(sp)
    5304:	01812403          	lw	s0,24(sp)
    5308:	00c7d793          	srli	a5,a5,0xc
    530c:	01471713          	slli	a4,a4,0x14
    5310:	01f91593          	slli	a1,s2,0x1f
    5314:	00f76733          	or	a4,a4,a5
    5318:	00b767b3          	or	a5,a4,a1
    531c:	01412483          	lw	s1,20(sp)
    5320:	01012903          	lw	s2,16(sp)
    5324:	00c12983          	lw	s3,12(sp)
    5328:	00068513          	mv	a0,a3
    532c:	00078593          	mv	a1,a5
    5330:	02010113          	addi	sp,sp,32
    5334:	00008067          	ret
    5338:	40068e63          	beqz	a3,5754 <__subdf3+0x71c>
    533c:	00c76733          	or	a4,a4,a2
    5340:	2c071c63          	bnez	a4,5618 <__subdf3+0x5e0>
    5344:	00050613          	mv	a2,a0
    5348:	4100006f          	j	5758 <__subdf3+0x720>
    534c:	40b68a63          	beq	a3,a1,5760 <__subdf3+0x728>
    5350:	00c50633          	add	a2,a0,a2
    5354:	00e787b3          	add	a5,a5,a4
    5358:	00a63533          	sltu	a0,a2,a0
    535c:	00a787b3          	add	a5,a5,a0
    5360:	01f79713          	slli	a4,a5,0x1f
    5364:	00165613          	srli	a2,a2,0x1
    5368:	00c76633          	or	a2,a4,a2
    536c:	0017d793          	srli	a5,a5,0x1
    5370:	00068493          	mv	s1,a3
    5374:	00767713          	andi	a4,a2,7
    5378:	02070063          	beqz	a4,5398 <__subdf3+0x360>
    537c:	00f67713          	andi	a4,a2,15
    5380:	00400693          	li	a3,4
    5384:	00d70a63          	beq	a4,a3,5398 <__subdf3+0x360>
    5388:	00d60733          	add	a4,a2,a3
    538c:	00c736b3          	sltu	a3,a4,a2
    5390:	00d787b3          	add	a5,a5,a3
    5394:	00070613          	mv	a2,a4
    5398:	00879713          	slli	a4,a5,0x8
    539c:	f20756e3          	bgez	a4,52c8 <__subdf3+0x290>
    53a0:	00148493          	addi	s1,s1,1
    53a4:	7ff00713          	li	a4,2047
    53a8:	3ae48e63          	beq	s1,a4,5764 <__subdf3+0x72c>
    53ac:	ff800737          	lui	a4,0xff800
    53b0:	fff70713          	addi	a4,a4,-1 # ff7fffff <_stack_end+0xff6effff>
    53b4:	00e7f7b3          	and	a5,a5,a4
    53b8:	f11ff06f          	j	52c8 <__subdf3+0x290>
    53bc:	0f005063          	blez	a6,549c <__subdf3+0x464>
    53c0:	08089863          	bnez	a7,5450 <__subdf3+0x418>
    53c4:	00c766b3          	or	a3,a4,a2
    53c8:	d20682e3          	beqz	a3,50ec <__subdf3+0xb4>
    53cc:	fff48813          	addi	a6,s1,-1
    53d0:	00081e63          	bnez	a6,53ec <__subdf3+0x3b4>
    53d4:	40c50633          	sub	a2,a0,a2
    53d8:	40e787b3          	sub	a5,a5,a4
    53dc:	00c53533          	sltu	a0,a0,a2
    53e0:	40a787b3          	sub	a5,a5,a0
    53e4:	00100493          	li	s1,1
    53e8:	04c0006f          	j	5434 <__subdf3+0x3fc>
    53ec:	d0b480e3          	beq	s1,a1,50ec <__subdf3+0xb4>
    53f0:	03800693          	li	a3,56
    53f4:	0906ce63          	blt	a3,a6,5490 <__subdf3+0x458>
    53f8:	01f00693          	li	a3,31
    53fc:	02000893          	li	a7,32
    5400:	0706c063          	blt	a3,a6,5460 <__subdf3+0x428>
    5404:	410888b3          	sub	a7,a7,a6
    5408:	011716b3          	sll	a3,a4,a7
    540c:	010655b3          	srl	a1,a2,a6
    5410:	011618b3          	sll	a7,a2,a7
    5414:	00b6e6b3          	or	a3,a3,a1
    5418:	011038b3          	snez	a7,a7
    541c:	0116e6b3          	or	a3,a3,a7
    5420:	01075833          	srl	a6,a4,a6
    5424:	40d50633          	sub	a2,a0,a3
    5428:	41078833          	sub	a6,a5,a6
    542c:	00c53533          	sltu	a0,a0,a2
    5430:	40a807b3          	sub	a5,a6,a0
    5434:	00879713          	slli	a4,a5,0x8
    5438:	f2075ee3          	bgez	a4,5374 <__subdf3+0x33c>
    543c:	00800437          	lui	s0,0x800
    5440:	fff40413          	addi	s0,s0,-1 # 7fffff <_stack_end+0x6effff>
    5444:	0087f433          	and	s0,a5,s0
    5448:	00060993          	mv	s3,a2
    544c:	2140006f          	j	5660 <__subdf3+0x628>
    5450:	c8b48ee3          	beq	s1,a1,50ec <__subdf3+0xb4>
    5454:	008006b7          	lui	a3,0x800
    5458:	00d76733          	or	a4,a4,a3
    545c:	f95ff06f          	j	53f0 <__subdf3+0x3b8>
    5460:	fe080693          	addi	a3,a6,-32
    5464:	00d756b3          	srl	a3,a4,a3
    5468:	00000593          	li	a1,0
    546c:	01180863          	beq	a6,a7,547c <__subdf3+0x444>
    5470:	04000593          	li	a1,64
    5474:	410585b3          	sub	a1,a1,a6
    5478:	00b715b3          	sll	a1,a4,a1
    547c:	00c5e5b3          	or	a1,a1,a2
    5480:	00b035b3          	snez	a1,a1
    5484:	00b6e6b3          	or	a3,a3,a1
    5488:	00000813          	li	a6,0
    548c:	f99ff06f          	j	5424 <__subdf3+0x3ec>
    5490:	00c766b3          	or	a3,a4,a2
    5494:	00d036b3          	snez	a3,a3
    5498:	ff1ff06f          	j	5488 <__subdf3+0x450>
    549c:	0e080663          	beqz	a6,5588 <__subdf3+0x550>
    54a0:	40988333          	sub	t1,a7,s1
    54a4:	04049263          	bnez	s1,54e8 <__subdf3+0x4b0>
    54a8:	00a7e833          	or	a6,a5,a0
    54ac:	02080663          	beqz	a6,54d8 <__subdf3+0x4a0>
    54b0:	fff30813          	addi	a6,t1,-1
    54b4:	02081063          	bnez	a6,54d4 <__subdf3+0x49c>
    54b8:	40a60533          	sub	a0,a2,a0
    54bc:	00a635b3          	sltu	a1,a2,a0
    54c0:	40f707b3          	sub	a5,a4,a5
    54c4:	00050613          	mv	a2,a0
    54c8:	40b787b3          	sub	a5,a5,a1
    54cc:	00068913          	mv	s2,a3
    54d0:	f15ff06f          	j	53e4 <__subdf3+0x3ac>
    54d4:	02b31263          	bne	t1,a1,54f8 <__subdf3+0x4c0>
    54d8:	00068913          	mv	s2,a3
    54dc:	00070793          	mv	a5,a4
    54e0:	00030493          	mv	s1,t1
    54e4:	de5ff06f          	j	52c8 <__subdf3+0x290>
    54e8:	28b88463          	beq	a7,a1,5770 <__subdf3+0x738>
    54ec:	008005b7          	lui	a1,0x800
    54f0:	00b7e7b3          	or	a5,a5,a1
    54f4:	00030813          	mv	a6,t1
    54f8:	03800593          	li	a1,56
    54fc:	0905c063          	blt	a1,a6,557c <__subdf3+0x544>
    5500:	01f00593          	li	a1,31
    5504:	02000e13          	li	t3,32
    5508:	0505c263          	blt	a1,a6,554c <__subdf3+0x514>
    550c:	410e0e33          	sub	t3,t3,a6
    5510:	01c795b3          	sll	a1,a5,t3
    5514:	01055333          	srl	t1,a0,a6
    5518:	01c51e33          	sll	t3,a0,t3
    551c:	0065e5b3          	or	a1,a1,t1
    5520:	01c03e33          	snez	t3,t3
    5524:	01c5e5b3          	or	a1,a1,t3
    5528:	0107d833          	srl	a6,a5,a6
    552c:	40b605b3          	sub	a1,a2,a1
    5530:	00b637b3          	sltu	a5,a2,a1
    5534:	41070833          	sub	a6,a4,a6
    5538:	00058613          	mv	a2,a1
    553c:	40f807b3          	sub	a5,a6,a5
    5540:	00088493          	mv	s1,a7
    5544:	00068913          	mv	s2,a3
    5548:	eedff06f          	j	5434 <__subdf3+0x3fc>
    554c:	fe080593          	addi	a1,a6,-32
    5550:	00b7d5b3          	srl	a1,a5,a1
    5554:	00000313          	li	t1,0
    5558:	01c80863          	beq	a6,t3,5568 <__subdf3+0x530>
    555c:	04000313          	li	t1,64
    5560:	41030333          	sub	t1,t1,a6
    5564:	00679333          	sll	t1,a5,t1
    5568:	00a36333          	or	t1,t1,a0
    556c:	00603333          	snez	t1,t1
    5570:	0065e5b3          	or	a1,a1,t1
    5574:	00000813          	li	a6,0
    5578:	fb5ff06f          	j	552c <__subdf3+0x4f4>
    557c:	00a7e5b3          	or	a1,a5,a0
    5580:	00b035b3          	snez	a1,a1
    5584:	ff1ff06f          	j	5574 <__subdf3+0x53c>
    5588:	00148813          	addi	a6,s1,1
    558c:	7fe87813          	andi	a6,a6,2046
    5590:	0a081063          	bnez	a6,5630 <__subdf3+0x5f8>
    5594:	00c76833          	or	a6,a4,a2
    5598:	00a7e8b3          	or	a7,a5,a0
    559c:	06049863          	bnez	s1,560c <__subdf3+0x5d4>
    55a0:	00089a63          	bnez	a7,55b4 <__subdf3+0x57c>
    55a4:	00070793          	mv	a5,a4
    55a8:	02081e63          	bnez	a6,55e4 <__subdf3+0x5ac>
    55ac:	00000913          	li	s2,0
    55b0:	1b40006f          	j	5764 <__subdf3+0x72c>
    55b4:	18080c63          	beqz	a6,574c <__subdf3+0x714>
    55b8:	40c50833          	sub	a6,a0,a2
    55bc:	010538b3          	sltu	a7,a0,a6
    55c0:	40e785b3          	sub	a1,a5,a4
    55c4:	411585b3          	sub	a1,a1,a7
    55c8:	00859893          	slli	a7,a1,0x8
    55cc:	0208d663          	bgez	a7,55f8 <__subdf3+0x5c0>
    55d0:	40a60533          	sub	a0,a2,a0
    55d4:	00a635b3          	sltu	a1,a2,a0
    55d8:	40f707b3          	sub	a5,a4,a5
    55dc:	00050613          	mv	a2,a0
    55e0:	40b787b3          	sub	a5,a5,a1
    55e4:	00068913          	mv	s2,a3
    55e8:	00f66733          	or	a4,a2,a5
    55ec:	1a070063          	beqz	a4,578c <__subdf3+0x754>
    55f0:	00000493          	li	s1,0
    55f4:	d81ff06f          	j	5374 <__subdf3+0x33c>
    55f8:	00b86633          	or	a2,a6,a1
    55fc:	18060263          	beqz	a2,5780 <__subdf3+0x748>
    5600:	00058793          	mv	a5,a1
    5604:	00080613          	mv	a2,a6
    5608:	fe1ff06f          	j	55e8 <__subdf3+0x5b0>
    560c:	00089e63          	bnez	a7,5628 <__subdf3+0x5f0>
    5610:	00068913          	mv	s2,a3
    5614:	14081063          	bnez	a6,5754 <__subdf3+0x71c>
    5618:	00000913          	li	s2,0
    561c:	004007b7          	lui	a5,0x400
    5620:	00000613          	li	a2,0
    5624:	1340006f          	j	5758 <__subdf3+0x720>
    5628:	d0080ee3          	beqz	a6,5344 <__subdf3+0x30c>
    562c:	fedff06f          	j	5618 <__subdf3+0x5e0>
    5630:	40c505b3          	sub	a1,a0,a2
    5634:	00b53833          	sltu	a6,a0,a1
    5638:	40e78433          	sub	s0,a5,a4
    563c:	41040433          	sub	s0,s0,a6
    5640:	00841813          	slli	a6,s0,0x8
    5644:	00058993          	mv	s3,a1
    5648:	06085e63          	bgez	a6,56c4 <__subdf3+0x68c>
    564c:	40a609b3          	sub	s3,a2,a0
    5650:	40f70433          	sub	s0,a4,a5
    5654:	01363633          	sltu	a2,a2,s3
    5658:	40c40433          	sub	s0,s0,a2
    565c:	00068913          	mv	s2,a3
    5660:	06040e63          	beqz	s0,56dc <__subdf3+0x6a4>
