
coremark.elf:     file format elf32-littleriscv


Disassembly of section .text:

00000000 <_start>:
       0:	0010e117          	auipc	sp,0x10e
       4:	00010113          	mv	sp,sp
       8:	075030ef          	jal	387c <main>
       c:	0000006f          	j	c <_start+0xc>

00000010 <trap_vector>:
      10:	ff010113          	addi	sp,sp,-16 # 10dff0 <_heap_start+0xdfc0>
      14:	00112623          	sw	ra,12(sp)
      18:	00512423          	sw	t0,8(sp)
      1c:	00612223          	sw	t1,4(sp)
      20:	00712023          	sw	t2,0(sp)
      24:	00100517          	auipc	a0,0x100
      28:	ff450513          	addi	a0,a0,-12 # 100018 <mcause_val>
      2c:	342022f3          	csrr	t0,mcause
      30:	00552023          	sw	t0,0(a0)
      34:	168000ef          	jal	19c <trap_handler>

00000038 <hang>:
      38:	0000006f          	j	38 <hang>

0000003c <uart_putc>:
      3c:	01000737          	lui	a4,0x1000
      40:	00870713          	addi	a4,a4,8 # 1000008 <_stack_end+0xef0008>
      44:	00072783          	lw	a5,0(a4)
      48:	0087f793          	andi	a5,a5,8
      4c:	fe079ce3          	bnez	a5,44 <uart_putc+0x8>
      50:	010007b7          	lui	a5,0x1000
      54:	00a7a223          	sw	a0,4(a5) # 1000004 <_stack_end+0xef0004>
      58:	00008067          	ret

0000005c <uart_tx_init>:
      5c:	01000737          	lui	a4,0x1000
      60:	00c72783          	lw	a5,12(a4) # 100000c <_stack_end+0xef000c>
      64:	fee7f793          	andi	a5,a5,-18
      68:	0017e793          	ori	a5,a5,1
      6c:	00f72623          	sw	a5,12(a4)
      70:	00008067          	ret

00000074 <uart_puts>:
      74:	00054683          	lbu	a3,0(a0)
      78:	02068e63          	beqz	a3,b4 <uart_puts+0x40>
      7c:	01000737          	lui	a4,0x1000
      80:	01000637          	lui	a2,0x1000
      84:	00870713          	addi	a4,a4,8 # 1000008 <_stack_end+0xef0008>
      88:	00460613          	addi	a2,a2,4 # 1000004 <_stack_end+0xef0004>
      8c:	00a00593          	li	a1,10
      90:	00d00813          	li	a6,13
      94:	02b68263          	beq	a3,a1,b8 <uart_puts+0x44>
      98:	00072783          	lw	a5,0(a4)
      9c:	0087f793          	andi	a5,a5,8
      a0:	fe079ce3          	bnez	a5,98 <uart_puts+0x24>
      a4:	00d62023          	sw	a3,0(a2)
      a8:	00154683          	lbu	a3,1(a0)
      ac:	00150513          	addi	a0,a0,1
      b0:	fe0692e3          	bnez	a3,94 <uart_puts+0x20>
      b4:	00008067          	ret
      b8:	00072783          	lw	a5,0(a4)
      bc:	0087f793          	andi	a5,a5,8
      c0:	fe079ce3          	bnez	a5,b8 <uart_puts+0x44>
      c4:	01062023          	sw	a6,0(a2)
      c8:	00072783          	lw	a5,0(a4)
      cc:	0087f793          	andi	a5,a5,8
      d0:	fe079ce3          	bnez	a5,c8 <uart_puts+0x54>
      d4:	00b62023          	sw	a1,0(a2)
      d8:	fd1ff06f          	j	a8 <uart_puts+0x34>

000000dc <uart_putu32>:
      dc:	fd010113          	addi	sp,sp,-48
      e0:	02112623          	sw	ra,44(sp)
      e4:	01412c23          	sw	s4,24(sp)
      e8:	00010723          	sb	zero,14(sp)
      ec:	02051663          	bnez	a0,118 <uart_putu32+0x3c>
      f0:	00410a13          	addi	s4,sp,4
      f4:	00900513          	li	a0,9
      f8:	03000793          	li	a5,48
      fc:	00aa0533          	add	a0,s4,a0
     100:	00f106a3          	sb	a5,13(sp)
     104:	f71ff0ef          	jal	74 <uart_puts>
     108:	02c12083          	lw	ra,44(sp)
     10c:	01812a03          	lw	s4,24(sp)
     110:	03010113          	addi	sp,sp,48
     114:	00008067          	ret
     118:	00410a13          	addi	s4,sp,4
     11c:	02812423          	sw	s0,40(sp)
     120:	02912223          	sw	s1,36(sp)
     124:	01312e23          	sw	s3,28(sp)
     128:	03212023          	sw	s2,32(sp)
     12c:	00050413          	mv	s0,a0
     130:	000a0493          	mv	s1,s4
     134:	00900993          	li	s3,9
     138:	00a00593          	li	a1,10
     13c:	00040513          	mv	a0,s0
     140:	6d8030ef          	jal	3818 <__umodsi3>
     144:	03050513          	addi	a0,a0,48
     148:	00a484a3          	sb	a0,9(s1)
     14c:	00a00593          	li	a1,10
     150:	00040513          	mv	a0,s0
     154:	67c030ef          	jal	37d0 <__hidden___udivsi3>
     158:	00040913          	mv	s2,s0
     15c:	00048793          	mv	a5,s1
     160:	00050413          	mv	s0,a0
     164:	fff48493          	addi	s1,s1,-1
     168:	fd29e8e3          	bltu	s3,s2,138 <uart_putu32+0x5c>
     16c:	41498533          	sub	a0,s3,s4
     170:	00f50533          	add	a0,a0,a5
     174:	00aa0533          	add	a0,s4,a0
     178:	02812403          	lw	s0,40(sp)
     17c:	02412483          	lw	s1,36(sp)
     180:	02012903          	lw	s2,32(sp)
     184:	01c12983          	lw	s3,28(sp)
     188:	eedff0ef          	jal	74 <uart_puts>
     18c:	02c12083          	lw	ra,44(sp)
     190:	01812a03          	lw	s4,24(sp)
     194:	03010113          	addi	sp,sp,48
     198:	00008067          	ret

0000019c <trap_handler>:
     19c:	ff010113          	addi	sp,sp,-16
     1a0:	00112623          	sw	ra,12(sp)
     1a4:	eb9ff0ef          	jal	5c <uart_tx_init>
     1a8:	00004537          	lui	a0,0x4
     1ac:	48450513          	addi	a0,a0,1156 # 4484 <errpat+0x228>
     1b0:	ec5ff0ef          	jal	74 <uart_puts>
     1b4:	001007b7          	lui	a5,0x100
     1b8:	0187a503          	lw	a0,24(a5) # 100018 <mcause_val>
     1bc:	f21ff0ef          	jal	dc <uart_putu32>
     1c0:	00004537          	lui	a0,0x4
     1c4:	70850513          	addi	a0,a0,1800 # 4708 <errpat+0x4ac>
     1c8:	eadff0ef          	jal	74 <uart_puts>
     1cc:	0000006f          	j	1cc <trap_handler+0x30>

000001d0 <timer_get_cycles>:
     1d0:	ff010113          	addi	sp,sp,-16
     1d4:	b00027f3          	csrr	a5,mcycle
     1d8:	00f12623          	sw	a5,12(sp)
     1dc:	00c12503          	lw	a0,12(sp)
     1e0:	01010113          	addi	sp,sp,16
     1e4:	00008067          	ret

000001e8 <barebones_clock>:
     1e8:	fe9ff06f          	j	1d0 <timer_get_cycles>

000001ec <start_time>:
     1ec:	ff010113          	addi	sp,sp,-16
     1f0:	00112623          	sw	ra,12(sp)
     1f4:	fddff0ef          	jal	1d0 <timer_get_cycles>
     1f8:	00c12083          	lw	ra,12(sp)
     1fc:	001007b7          	lui	a5,0x100
     200:	02a7a023          	sw	a0,32(a5) # 100020 <start_time_val>
     204:	01010113          	addi	sp,sp,16
     208:	00008067          	ret

0000020c <stop_time>:
     20c:	ff010113          	addi	sp,sp,-16
     210:	00112623          	sw	ra,12(sp)
     214:	fbdff0ef          	jal	1d0 <timer_get_cycles>
     218:	00c12083          	lw	ra,12(sp)
     21c:	001007b7          	lui	a5,0x100
     220:	00a7ae23          	sw	a0,28(a5) # 10001c <stop_time_val>
     224:	01010113          	addi	sp,sp,16
     228:	00008067          	ret

0000022c <get_time>:
     22c:	00100737          	lui	a4,0x100
     230:	001007b7          	lui	a5,0x100
     234:	01c72503          	lw	a0,28(a4) # 10001c <stop_time_val>
     238:	0207a783          	lw	a5,32(a5) # 100020 <start_time_val>
     23c:	40f50533          	sub	a0,a0,a5
     240:	00008067          	ret

00000244 <time_in_secs>:
     244:	05f5e5b7          	lui	a1,0x5f5e
     248:	ff010113          	addi	sp,sp,-16
     24c:	10058593          	addi	a1,a1,256 # 5f5e100 <_stack_end+0x5e4e100>
     250:	00112623          	sw	ra,12(sp)
     254:	57c030ef          	jal	37d0 <__hidden___udivsi3>
     258:	00c12083          	lw	ra,12(sp)
     25c:	01010113          	addi	sp,sp,16
     260:	00008067          	ret

00000264 <portable_init>:
     264:	00100793          	li	a5,1
     268:	00f50023          	sb	a5,0(a0)
     26c:	00008067          	ret

00000270 <portable_fini>:
     270:	00050023          	sb	zero,0(a0)
     274:	00008067          	ret

00000278 <number>:
     278:	f6010113          	addi	sp,sp,-160
     27c:	08812c23          	sw	s0,152(sp)
     280:	09212823          	sw	s2,144(sp)
     284:	09312623          	sw	s3,140(sp)
     288:	07812c23          	sw	s8,120(sp)
     28c:	08112e23          	sw	ra,156(sp)
     290:	08912a23          	sw	s1,148(sp)
     294:	09512223          	sw	s5,132(sp)
     298:	09612023          	sw	s6,128(sp)
     29c:	07712e23          	sw	s7,124(sp)
     2a0:	07912a23          	sw	s9,116(sp)
     2a4:	07b12623          	sw	s11,108(sp)
     2a8:	0407f813          	andi	a6,a5,64
     2ac:	00050413          	mv	s0,a0
     2b0:	00068993          	mv	s3,a3
     2b4:	00058513          	mv	a0,a1
     2b8:	00060913          	mv	s2,a2
     2bc:	00070c13          	mv	s8,a4
     2c0:	0e081a63          	bnez	a6,3b4 <number+0x13c>
     2c4:	0107f713          	andi	a4,a5,16
     2c8:	00004b37          	lui	s6,0x4
     2cc:	00e12623          	sw	a4,12(sp)
     2d0:	494b0b13          	addi	s6,s6,1172 # 4494 <errpat+0x238>
     2d4:	0e071a63          	bnez	a4,3c8 <number+0x150>
     2d8:	0017f713          	andi	a4,a5,1
     2dc:	fff70a93          	addi	s5,a4,-1
     2e0:	00e12423          	sw	a4,8(sp)
     2e4:	ff0afa93          	andi	s5,s5,-16
     2e8:	0027f713          	andi	a4,a5,2
     2ec:	030a8a93          	addi	s5,s5,48
     2f0:	0207fc93          	andi	s9,a5,32
     2f4:	0e070863          	beqz	a4,3e4 <number+0x16c>
     2f8:	28054a63          	bltz	a0,58c <number+0x314>
     2fc:	0047f713          	andi	a4,a5,4
     300:	26071063          	bnez	a4,560 <number+0x2e8>
     304:	0087f793          	andi	a5,a5,8
     308:	00012223          	sw	zero,4(sp)
     30c:	00078863          	beqz	a5,31c <number+0xa4>
     310:	02000793          	li	a5,32
     314:	fff98993          	addi	s3,s3,-1
     318:	00f12223          	sw	a5,4(sp)
     31c:	000c8e63          	beqz	s9,338 <number+0xc0>
     320:	01000793          	li	a5,16
     324:	28f90e63          	beq	s2,a5,5c0 <number+0x348>
     328:	ff890793          	addi	a5,s2,-8
     32c:	0017b793          	seqz	a5,a5
     330:	40f989b3          	sub	s3,s3,a5
     334:	02000c93          	li	s9,32
     338:	1a051e63          	bnez	a0,4f4 <number+0x27c>
     33c:	03000793          	li	a5,48
     340:	00f10e23          	sb	a5,28(sp)
     344:	00000b93          	li	s7,0
     348:	00100d93          	li	s11,1
     34c:	01c10493          	addi	s1,sp,28
     350:	000d8513          	mv	a0,s11
     354:	018dd463          	bge	s11,s8,35c <number+0xe4>
     358:	000c0513          	mv	a0,s8
     35c:	00812783          	lw	a5,8(sp)
     360:	40a989b3          	sub	s3,s3,a0
     364:	08079663          	bnez	a5,3f0 <number+0x178>
     368:	01340633          	add	a2,s0,s3
     36c:	00040793          	mv	a5,s0
     370:	02000693          	li	a3,32
     374:	07305c63          	blez	s3,3ec <number+0x174>
     378:	00178793          	addi	a5,a5,1
     37c:	fed78fa3          	sb	a3,-1(a5)
     380:	fec79ce3          	bne	a5,a2,378 <number+0x100>
     384:	00412703          	lw	a4,4(sp)
     388:	00078413          	mv	s0,a5
     38c:	1a071c63          	bnez	a4,544 <number+0x2cc>
     390:	000c8a63          	beqz	s9,3a4 <number+0x12c>
     394:	00800693          	li	a3,8
     398:	24d90e63          	beq	s2,a3,5f4 <number+0x37c>
     39c:	01000693          	li	a3,16
     3a0:	1cd90863          	beq	s2,a3,570 <number+0x2f8>
     3a4:	00c12783          	lw	a5,12(sp)
     3a8:	00f039b3          	snez	s3,a5
     3ac:	ffe98993          	addi	s3,s3,-2
     3b0:	08c0006f          	j	43c <number+0x1c4>
     3b4:	0107f713          	andi	a4,a5,16
     3b8:	00004b37          	lui	s6,0x4
     3bc:	00e12623          	sw	a4,12(sp)
     3c0:	4bcb0b13          	addi	s6,s6,1212 # 44bc <errpat+0x260>
     3c4:	f0070ae3          	beqz	a4,2d8 <number+0x60>
     3c8:	ffe7f793          	andi	a5,a5,-2
     3cc:	01000713          	li	a4,16
     3d0:	00e12423          	sw	a4,8(sp)
     3d4:	0027f713          	andi	a4,a5,2
     3d8:	02000a93          	li	s5,32
     3dc:	0207fc93          	andi	s9,a5,32
     3e0:	f0071ce3          	bnez	a4,2f8 <number+0x80>
     3e4:	00012223          	sw	zero,4(sp)
     3e8:	f35ff06f          	j	31c <number+0xa4>
     3ec:	fff98993          	addi	s3,s3,-1
     3f0:	00412783          	lw	a5,4(sp)
     3f4:	00078663          	beqz	a5,400 <number+0x188>
     3f8:	00f40023          	sb	a5,0(s0)
     3fc:	00140413          	addi	s0,s0,1
     400:	000c8a63          	beqz	s9,414 <number+0x19c>
     404:	00800793          	li	a5,8
     408:	1cf90263          	beq	s2,a5,5cc <number+0x354>
     40c:	01000793          	li	a5,16
     410:	16f90263          	beq	s2,a5,574 <number+0x2fc>
     414:	00c12783          	lw	a5,12(sp)
     418:	02079263          	bnez	a5,43c <number+0x1c4>
     41c:	013406b3          	add	a3,s0,s3
     420:	00040793          	mv	a5,s0
     424:	21305a63          	blez	s3,638 <number+0x3c0>
     428:	00178793          	addi	a5,a5,1
     42c:	ff578fa3          	sb	s5,-1(a5)
     430:	fed79ce3          	bne	a5,a3,428 <number+0x1b0>
     434:	00078413          	mv	s0,a5
     438:	fff00993          	li	s3,-1
     43c:	00040793          	mv	a5,s0
     440:	00a405b3          	add	a1,s0,a0
     444:	03000613          	li	a2,48
     448:	038dd663          	bge	s11,s8,474 <number+0x1fc>
     44c:	00178793          	addi	a5,a5,1
     450:	40f586b3          	sub	a3,a1,a5
     454:	fec78fa3          	sb	a2,-1(a5)
     458:	feddcae3          	blt	s11,a3,44c <number+0x1d4>
     45c:	00000793          	li	a5,0
     460:	018dd663          	bge	s11,s8,46c <number+0x1f4>
     464:	41b507b3          	sub	a5,a0,s11
     468:	fff78793          	addi	a5,a5,-1
     46c:	00178793          	addi	a5,a5,1
     470:	00f40433          	add	s0,s0,a5
     474:	017487b3          	add	a5,s1,s7
     478:	00040713          	mv	a4,s0
     47c:	fff48493          	addi	s1,s1,-1
     480:	0007c683          	lbu	a3,0(a5)
     484:	fff78793          	addi	a5,a5,-1
     488:	00170713          	addi	a4,a4,1
     48c:	fed70fa3          	sb	a3,-1(a4)
     490:	fef498e3          	bne	s1,a5,480 <number+0x208>
     494:	01740433          	add	s0,s0,s7
     498:	00140613          	addi	a2,s0,1
     49c:	00060513          	mv	a0,a2
     4a0:	03305063          	blez	s3,4c0 <number+0x248>
     4a4:	00198713          	addi	a4,s3,1
     4a8:	00870733          	add	a4,a4,s0
     4ac:	02000693          	li	a3,32
     4b0:	00d50023          	sb	a3,0(a0)
     4b4:	00150513          	addi	a0,a0,1
     4b8:	fea71ce3          	bne	a4,a0,4b0 <number+0x238>
     4bc:	00c98533          	add	a0,s3,a2
     4c0:	09c12083          	lw	ra,156(sp)
     4c4:	09812403          	lw	s0,152(sp)
     4c8:	09412483          	lw	s1,148(sp)
     4cc:	09012903          	lw	s2,144(sp)
     4d0:	08c12983          	lw	s3,140(sp)
     4d4:	08412a83          	lw	s5,132(sp)
     4d8:	08012b03          	lw	s6,128(sp)
     4dc:	07c12b83          	lw	s7,124(sp)
     4e0:	07812c03          	lw	s8,120(sp)
     4e4:	07412c83          	lw	s9,116(sp)
     4e8:	06c12d83          	lw	s11,108(sp)
     4ec:	0a010113          	addi	sp,sp,160
     4f0:	00008067          	ret
     4f4:	09412423          	sw	s4,136(sp)
     4f8:	07a12823          	sw	s10,112(sp)
     4fc:	00000d93          	li	s11,0
     500:	01c10493          	addi	s1,sp,28
     504:	00090593          	mv	a1,s2
     508:	00050a13          	mv	s4,a0
     50c:	30c030ef          	jal	3818 <__umodsi3>
     510:	00ab0533          	add	a0,s6,a0
     514:	00054683          	lbu	a3,0(a0)
     518:	000d8b93          	mv	s7,s11
     51c:	001d8d93          	addi	s11,s11,1
     520:	01b48d33          	add	s10,s1,s11
     524:	000a0513          	mv	a0,s4
     528:	00090593          	mv	a1,s2
     52c:	fedd0fa3          	sb	a3,-1(s10)
     530:	2a0030ef          	jal	37d0 <__hidden___udivsi3>
     534:	fd2a78e3          	bgeu	s4,s2,504 <number+0x28c>
     538:	08812a03          	lw	s4,136(sp)
     53c:	07012d03          	lw	s10,112(sp)
     540:	e11ff06f          	j	350 <number+0xd8>
     544:	00e78023          	sb	a4,0(a5)
     548:	00178413          	addi	s0,a5,1
     54c:	080c9863          	bnez	s9,5dc <number+0x364>
     550:	00c12783          	lw	a5,12(sp)
     554:	0a079a63          	bnez	a5,608 <number+0x390>
     558:	ffe00993          	li	s3,-2
     55c:	ee1ff06f          	j	43c <number+0x1c4>
     560:	02b00793          	li	a5,43
     564:	fff98993          	addi	s3,s3,-1
     568:	00f12223          	sw	a5,4(sp)
     56c:	db1ff06f          	j	31c <number+0xa4>
     570:	fff00993          	li	s3,-1
     574:	03000693          	li	a3,48
     578:	07800793          	li	a5,120
     57c:	00d40023          	sb	a3,0(s0)
     580:	00f400a3          	sb	a5,1(s0)
     584:	00240413          	addi	s0,s0,2
     588:	e8dff06f          	j	414 <number+0x19c>
     58c:	09412423          	sw	s4,136(sp)
     590:	07a12823          	sw	s10,112(sp)
     594:	40a00533          	neg	a0,a0
     598:	040c8663          	beqz	s9,5e4 <number+0x36c>
     59c:	01000793          	li	a5,16
     5a0:	08f90263          	beq	s2,a5,624 <number+0x3ac>
     5a4:	00800793          	li	a5,8
     5a8:	06f90463          	beq	s2,a5,610 <number+0x398>
     5ac:	02d00793          	li	a5,45
     5b0:	fff98993          	addi	s3,s3,-1
     5b4:	00f12223          	sw	a5,4(sp)
     5b8:	02000c93          	li	s9,32
     5bc:	f41ff06f          	j	4fc <number+0x284>
     5c0:	ffe98993          	addi	s3,s3,-2
     5c4:	02000c93          	li	s9,32
     5c8:	d71ff06f          	j	338 <number+0xc0>
     5cc:	03000793          	li	a5,48
     5d0:	00f40023          	sb	a5,0(s0)
     5d4:	00140413          	addi	s0,s0,1
     5d8:	e3dff06f          	j	414 <number+0x19c>
     5dc:	fff00993          	li	s3,-1
     5e0:	e25ff06f          	j	404 <number+0x18c>
     5e4:	02d00793          	li	a5,45
     5e8:	fff98993          	addi	s3,s3,-1
     5ec:	00f12223          	sw	a5,4(sp)
     5f0:	f0dff06f          	j	4fc <number+0x284>
     5f4:	03000793          	li	a5,48
     5f8:	00f40023          	sb	a5,0(s0)
     5fc:	00c12783          	lw	a5,12(sp)
     600:	00140413          	addi	s0,s0,1
     604:	f4078ae3          	beqz	a5,558 <number+0x2e0>
     608:	fff00993          	li	s3,-1
     60c:	e31ff06f          	j	43c <number+0x1c4>
     610:	02d00793          	li	a5,45
     614:	ffe98993          	addi	s3,s3,-2
     618:	00f12223          	sw	a5,4(sp)
     61c:	02000c93          	li	s9,32
     620:	eddff06f          	j	4fc <number+0x284>
     624:	02d00793          	li	a5,45
     628:	ffd98993          	addi	s3,s3,-3
     62c:	00f12223          	sw	a5,4(sp)
     630:	02000c93          	li	s9,32
     634:	ec9ff06f          	j	4fc <number+0x284>
     638:	fff98993          	addi	s3,s3,-1
     63c:	e01ff06f          	j	43c <number+0x1c4>

00000640 <uart_send_char>:
     640:	9fdff06f          	j	3c <uart_putc>

00000644 <printf>:
     644:	b6010113          	addi	sp,sp,-1184
     648:	47412423          	sw	s4,1128(sp)
     64c:	46112e23          	sw	ra,1148(sp)
     650:	46812c23          	sw	s0,1144(sp)
     654:	46912a23          	sw	s1,1140(sp)
     658:	48b12223          	sw	a1,1156(sp)
     65c:	48c12423          	sw	a2,1160(sp)
     660:	48d12623          	sw	a3,1164(sp)
     664:	48e12823          	sw	a4,1168(sp)
     668:	48f12a23          	sw	a5,1172(sp)
     66c:	49012c23          	sw	a6,1176(sp)
     670:	49112e23          	sw	a7,1180(sp)
     674:	00054783          	lbu	a5,0(a0)
     678:	48410a13          	addi	s4,sp,1156
     67c:	03412a23          	sw	s4,52(sp)
     680:	060780e3          	beqz	a5,ee0 <printf+0x89c>
     684:	47512223          	sw	s5,1124(sp)
     688:	05010413          	addi	s0,sp,80
     68c:	00004ab7          	lui	s5,0x4
     690:	47212823          	sw	s2,1136(sp)
     694:	47312623          	sw	s3,1132(sp)
     698:	47612023          	sw	s6,1120(sp)
     69c:	45712e23          	sw	s7,1116(sp)
     6a0:	00050313          	mv	t1,a0
     6a4:	00040813          	mv	a6,s0
     6a8:	004a8a93          	addi	s5,s5,4 # 4004 <main+0x788>
     6ac:	02500b13          	li	s6,37
     6b0:	01000993          	li	s3,16
     6b4:	00900913          	li	s2,9
     6b8:	02e00493          	li	s1,46
     6bc:	07678863          	beq	a5,s6,72c <printf+0xe8>
     6c0:	00f80023          	sb	a5,0(a6)
     6c4:	00134783          	lbu	a5,1(t1)
     6c8:	00180813          	addi	a6,a6,1
     6cc:	00130313          	addi	t1,t1,1
     6d0:	fe0796e3          	bnez	a5,6bc <printf+0x78>
     6d4:	47012903          	lw	s2,1136(sp)
     6d8:	46c12983          	lw	s3,1132(sp)
     6dc:	46412a83          	lw	s5,1124(sp)
     6e0:	46012b03          	lw	s6,1120(sp)
     6e4:	45c12b83          	lw	s7,1116(sp)
     6e8:	00080023          	sb	zero,0(a6)
     6ec:	05014503          	lbu	a0,80(sp)
     6f0:	02050263          	beqz	a0,714 <printf+0xd0>
     6f4:	00040493          	mv	s1,s0
     6f8:	945ff0ef          	jal	3c <uart_putc>
     6fc:	00048793          	mv	a5,s1
     700:	0014c503          	lbu	a0,1(s1)
     704:	00148493          	addi	s1,s1,1
     708:	fe0518e3          	bnez	a0,6f8 <printf+0xb4>
     70c:	40878533          	sub	a0,a5,s0
     710:	00150513          	addi	a0,a0,1
     714:	47c12083          	lw	ra,1148(sp)
     718:	47812403          	lw	s0,1144(sp)
     71c:	47412483          	lw	s1,1140(sp)
     720:	46812a03          	lw	s4,1128(sp)
     724:	4a010113          	addi	sp,sp,1184
     728:	00008067          	ret
     72c:	00000793          	li	a5,0
     730:	00134603          	lbu	a2,1(t1)
     734:	00130893          	addi	a7,t1,1
     738:	fe060713          	addi	a4,a2,-32
     73c:	0ff77713          	zext.b	a4,a4
     740:	00e9ea63          	bltu	s3,a4,754 <printf+0x110>
     744:	00271713          	slli	a4,a4,0x2
     748:	01570733          	add	a4,a4,s5
     74c:	00072703          	lw	a4,0(a4)
     750:	00070067          	jr	a4
     754:	fd060713          	addi	a4,a2,-48
     758:	0ff77713          	zext.b	a4,a4
     75c:	10e97463          	bgeu	s2,a4,864 <printf+0x220>
     760:	02a00713          	li	a4,42
     764:	fff00693          	li	a3,-1
     768:	12e60863          	beq	a2,a4,898 <printf+0x254>
     76c:	fff00713          	li	a4,-1
     770:	0c960463          	beq	a2,s1,838 <printf+0x1f4>
     774:	0df67593          	andi	a1,a2,223
     778:	04c00513          	li	a0,76
     77c:	08a59a63          	bne	a1,a0,810 <printf+0x1cc>
     780:	00060313          	mv	t1,a2
     784:	0018c603          	lbu	a2,1(a7)
     788:	03700513          	li	a0,55
     78c:	00188b93          	addi	s7,a7,1
     790:	fbf60593          	addi	a1,a2,-65
     794:	0ff5f593          	zext.b	a1,a1
     798:	04b56c63          	bltu	a0,a1,7f0 <printf+0x1ac>
     79c:	00004537          	lui	a0,0x4
     7a0:	00259593          	slli	a1,a1,0x2
     7a4:	04850513          	addi	a0,a0,72 # 4048 <main+0x7cc>
     7a8:	00a585b3          	add	a1,a1,a0
     7ac:	0005a583          	lw	a1,0(a1)
     7b0:	00058067          	jr	a1
     7b4:	0017e793          	ori	a5,a5,1
     7b8:	00088313          	mv	t1,a7
     7bc:	f75ff06f          	j	730 <printf+0xec>
     7c0:	0107e793          	ori	a5,a5,16
     7c4:	00088313          	mv	t1,a7
     7c8:	f69ff06f          	j	730 <printf+0xec>
     7cc:	0047e793          	ori	a5,a5,4
     7d0:	00088313          	mv	t1,a7
     7d4:	f5dff06f          	j	730 <printf+0xec>
     7d8:	0207e793          	ori	a5,a5,32
     7dc:	00088313          	mv	t1,a7
     7e0:	f51ff06f          	j	730 <printf+0xec>
     7e4:	0087e793          	ori	a5,a5,8
     7e8:	00088313          	mv	t1,a7
     7ec:	f45ff06f          	j	730 <printf+0xec>
     7f0:	000b8893          	mv	a7,s7
     7f4:	02500793          	li	a5,37
     7f8:	28f60863          	beq	a2,a5,a88 <printf+0x444>
     7fc:	00f80023          	sb	a5,0(a6)
     800:	0008c783          	lbu	a5,0(a7)
     804:	00180813          	addi	a6,a6,1
     808:	ec0786e3          	beqz	a5,6d4 <printf+0x90>
     80c:	2800006f          	j	a8c <printf+0x448>
     810:	fbf60593          	addi	a1,a2,-65
     814:	0ff5f593          	zext.b	a1,a1
     818:	03700513          	li	a0,55
     81c:	fcb56ce3          	bltu	a0,a1,7f4 <printf+0x1b0>
     820:	00004537          	lui	a0,0x4
     824:	00259593          	slli	a1,a1,0x2
     828:	12850513          	addi	a0,a0,296 # 4128 <main+0x8ac>
     82c:	00a585b3          	add	a1,a1,a0
     830:	0005a583          	lw	a1,0(a1)
     834:	00058067          	jr	a1
     838:	0018c603          	lbu	a2,1(a7)
     83c:	00900313          	li	t1,9
     840:	00188593          	addi	a1,a7,1
     844:	fd060713          	addi	a4,a2,-48
     848:	0ff77713          	zext.b	a4,a4
     84c:	1ce37e63          	bgeu	t1,a4,a28 <printf+0x3e4>
     850:	02a00713          	li	a4,42
     854:	20e60a63          	beq	a2,a4,a68 <printf+0x424>
     858:	00058893          	mv	a7,a1
     85c:	00000713          	li	a4,0
     860:	f15ff06f          	j	774 <printf+0x130>
     864:	00000693          	li	a3,0
     868:	00900593          	li	a1,9
     86c:	00269713          	slli	a4,a3,0x2
     870:	00d70733          	add	a4,a4,a3
     874:	00188893          	addi	a7,a7,1
     878:	00171713          	slli	a4,a4,0x1
     87c:	00c70733          	add	a4,a4,a2
     880:	0008c603          	lbu	a2,0(a7)
     884:	fd070693          	addi	a3,a4,-48
     888:	fd060713          	addi	a4,a2,-48
     88c:	0ff77713          	zext.b	a4,a4
     890:	fce5fee3          	bgeu	a1,a4,86c <printf+0x228>
     894:	ed9ff06f          	j	76c <printf+0x128>
     898:	000a2683          	lw	a3,0(s4)
     89c:	00234603          	lbu	a2,2(t1)
     8a0:	00230893          	addi	a7,t1,2
     8a4:	0006c663          	bltz	a3,8b0 <printf+0x26c>
     8a8:	004a0a13          	addi	s4,s4,4
     8ac:	ec1ff06f          	j	76c <printf+0x128>
     8b0:	40d006b3          	neg	a3,a3
     8b4:	0107e793          	ori	a5,a5,16
     8b8:	004a0a13          	addi	s4,s4,4
     8bc:	eb1ff06f          	j	76c <printf+0x128>
     8c0:	0407e793          	ori	a5,a5,64
     8c4:	01000613          	li	a2,16
     8c8:	000a2583          	lw	a1,0(s4)
     8cc:	004a0a13          	addi	s4,s4,4
     8d0:	00080513          	mv	a0,a6
     8d4:	9a5ff0ef          	jal	278 <number>
     8d8:	001bc783          	lbu	a5,1(s7)
     8dc:	00050813          	mv	a6,a0
     8e0:	001b8313          	addi	t1,s7,1
     8e4:	dc079ce3          	bnez	a5,6bc <printf+0x78>
     8e8:	dedff06f          	j	6d4 <printf+0x90>
     8ec:	00088b93          	mv	s7,a7
     8f0:	00a00613          	li	a2,10
     8f4:	fd5ff06f          	j	8c8 <printf+0x284>
     8f8:	000b8893          	mv	a7,s7
     8fc:	0107f793          	andi	a5,a5,16
     900:	004a0593          	addi	a1,s4,4
     904:	00188313          	addi	t1,a7,1
     908:	1a078c63          	beqz	a5,ac0 <printf+0x47c>
     90c:	000a2783          	lw	a5,0(s4)
     910:	00180613          	addi	a2,a6,1
     914:	00100513          	li	a0,1
     918:	00f80023          	sb	a5,0(a6)
     91c:	02000713          	li	a4,32
     920:	00d80833          	add	a6,a6,a3
     924:	00060793          	mv	a5,a2
     928:	64d55863          	bge	a0,a3,f78 <printf+0x934>
     92c:	00178793          	addi	a5,a5,1
     930:	fee78fa3          	sb	a4,-1(a5)
     934:	ff079ce3          	bne	a5,a6,92c <printf+0x2e8>
     938:	fff68693          	addi	a3,a3,-1
     93c:	00d60833          	add	a6,a2,a3
     940:	0018c783          	lbu	a5,1(a7)
     944:	00058a13          	mv	s4,a1
     948:	d6079ae3          	bnez	a5,6bc <printf+0x78>
     94c:	d89ff06f          	j	6d4 <printf+0x90>
     950:	000b8893          	mv	a7,s7
     954:	000a2603          	lw	a2,0(s4)
     958:	004a0a13          	addi	s4,s4,4
     95c:	14060a63          	beqz	a2,ab0 <printf+0x46c>
     960:	00064583          	lbu	a1,0(a2)
     964:	0107f793          	andi	a5,a5,16
     968:	5e058863          	beqz	a1,f58 <printf+0x914>
     96c:	00e60533          	add	a0,a2,a4
     970:	00060713          	mv	a4,a2
     974:	00a70a63          	beq	a4,a0,988 <printf+0x344>
     978:	00174583          	lbu	a1,1(a4)
     97c:	00170713          	addi	a4,a4,1
     980:	fe059ae3          	bnez	a1,974 <printf+0x330>
     984:	00070513          	mv	a0,a4
     988:	40c50533          	sub	a0,a0,a2
     98c:	16078863          	beqz	a5,afc <printf+0x4b8>
     990:	02a05263          	blez	a0,9b4 <printf+0x370>
     994:	00a605b3          	add	a1,a2,a0
     998:	00080793          	mv	a5,a6
     99c:	00064703          	lbu	a4,0(a2)
     9a0:	00160613          	addi	a2,a2,1
     9a4:	00178793          	addi	a5,a5,1
     9a8:	fee78fa3          	sb	a4,-1(a5)
     9ac:	feb618e3          	bne	a2,a1,99c <printf+0x358>
     9b0:	00a80833          	add	a6,a6,a0
     9b4:	40a68733          	sub	a4,a3,a0
     9b8:	00e80733          	add	a4,a6,a4
     9bc:	00188313          	addi	t1,a7,1
     9c0:	00080793          	mv	a5,a6
     9c4:	02000613          	li	a2,32
     9c8:	00d55c63          	bge	a0,a3,9e0 <printf+0x39c>
     9cc:	00178793          	addi	a5,a5,1
     9d0:	fec78fa3          	sb	a2,-1(a5)
     9d4:	fee79ce3          	bne	a5,a4,9cc <printf+0x388>
     9d8:	00d806b3          	add	a3,a6,a3
     9dc:	40a68833          	sub	a6,a3,a0
     9e0:	0018c783          	lbu	a5,1(a7)
     9e4:	cc079ce3          	bnez	a5,6bc <printf+0x78>
     9e8:	cedff06f          	j	6d4 <printf+0x90>
     9ec:	000b8893          	mv	a7,s7
     9f0:	fff00613          	li	a2,-1
     9f4:	0ac68863          	beq	a3,a2,aa4 <printf+0x460>
     9f8:	000a2583          	lw	a1,0(s4)
     9fc:	00080513          	mv	a0,a6
     a00:	01000613          	li	a2,16
     a04:	01112623          	sw	a7,12(sp)
     a08:	871ff0ef          	jal	278 <number>
     a0c:	00c12883          	lw	a7,12(sp)
     a10:	004a0a13          	addi	s4,s4,4
     a14:	00050813          	mv	a6,a0
     a18:	0018c783          	lbu	a5,1(a7)
     a1c:	00188313          	addi	t1,a7,1
     a20:	c8079ee3          	bnez	a5,6bc <printf+0x78>
     a24:	cb1ff06f          	j	6d4 <printf+0x90>
     a28:	00000513          	li	a0,0
     a2c:	00251713          	slli	a4,a0,0x2
     a30:	00a70733          	add	a4,a4,a0
     a34:	00158593          	addi	a1,a1,1
     a38:	00171713          	slli	a4,a4,0x1
     a3c:	00c70733          	add	a4,a4,a2
     a40:	0005c603          	lbu	a2,0(a1)
     a44:	fd070513          	addi	a0,a4,-48
     a48:	fd060713          	addi	a4,a2,-48
     a4c:	0ff77713          	zext.b	a4,a4
     a50:	fce37ee3          	bgeu	t1,a4,a2c <printf+0x3e8>
     a54:	fff54713          	not	a4,a0
     a58:	41f75713          	srai	a4,a4,0x1f
     a5c:	00058893          	mv	a7,a1
     a60:	00e57733          	and	a4,a0,a4
     a64:	d11ff06f          	j	774 <printf+0x130>
     a68:	000a2703          	lw	a4,0(s4)
     a6c:	0028c603          	lbu	a2,2(a7)
     a70:	004a0a13          	addi	s4,s4,4
     a74:	fff74593          	not	a1,a4
     a78:	41f5d593          	srai	a1,a1,0x1f
     a7c:	00b77733          	and	a4,a4,a1
     a80:	00288893          	addi	a7,a7,2
     a84:	cf1ff06f          	j	774 <printf+0x130>
     a88:	0008c783          	lbu	a5,0(a7)
     a8c:	00f80023          	sb	a5,0(a6)
     a90:	0018c783          	lbu	a5,1(a7)
     a94:	00180813          	addi	a6,a6,1
     a98:	00188313          	addi	t1,a7,1
     a9c:	c20790e3          	bnez	a5,6bc <printf+0x78>
     aa0:	c35ff06f          	j	6d4 <printf+0x90>
     aa4:	0017e793          	ori	a5,a5,1
     aa8:	00800693          	li	a3,8
     aac:	f4dff06f          	j	9f8 <printf+0x3b4>
     ab0:	00004637          	lui	a2,0x4
     ab4:	0107f793          	andi	a5,a5,16
     ab8:	4e460613          	addi	a2,a2,1252 # 44e4 <errpat+0x288>
     abc:	eb1ff06f          	j	96c <printf+0x328>
     ac0:	00100793          	li	a5,1
     ac4:	46d7d463          	bge	a5,a3,f2c <printf+0x8e8>
     ac8:	fff68713          	addi	a4,a3,-1
     acc:	00e80733          	add	a4,a6,a4
     ad0:	00080793          	mv	a5,a6
     ad4:	02000613          	li	a2,32
     ad8:	00178793          	addi	a5,a5,1
     adc:	fec78fa3          	sb	a2,-1(a5)
     ae0:	fee79ce3          	bne	a5,a4,ad8 <printf+0x494>
     ae4:	000a2783          	lw	a5,0(s4)
     ae8:	fff80813          	addi	a6,a6,-1
     aec:	00d80833          	add	a6,a6,a3
     af0:	00f80023          	sb	a5,0(a6)
     af4:	00180813          	addi	a6,a6,1
     af8:	e49ff06f          	j	940 <printf+0x2fc>
     afc:	44d55663          	bge	a0,a3,f48 <printf+0x904>
     b00:	40a68733          	sub	a4,a3,a0
     b04:	00e80733          	add	a4,a6,a4
     b08:	00080793          	mv	a5,a6
     b0c:	02000593          	li	a1,32
     b10:	00178793          	addi	a5,a5,1
     b14:	feb78fa3          	sb	a1,-1(a5)
     b18:	fee79ce3          	bne	a5,a4,b10 <printf+0x4cc>
     b1c:	00d806b3          	add	a3,a6,a3
     b20:	40a68833          	sub	a6,a3,a0
     b24:	fff50693          	addi	a3,a0,-1
     b28:	e69ff06f          	j	990 <printf+0x34c>
     b2c:	06c00613          	li	a2,108
     b30:	0027e793          	ori	a5,a5,2
     b34:	dac30ee3          	beq	t1,a2,8f0 <printf+0x2ac>
     b38:	000a2583          	lw	a1,0(s4)
     b3c:	00a00613          	li	a2,10
     b40:	004a0a13          	addi	s4,s4,4
     b44:	d8dff06f          	j	8d0 <printf+0x28c>
     b48:	06c00713          	li	a4,108
     b4c:	1ce30663          	beq	t1,a4,d18 <printf+0x6d4>
     b50:	45912a23          	sw	s9,1108(sp)
     b54:	000a2e83          	lw	t4,0(s4)
     b58:	004a0c93          	addi	s9,s4,4
     b5c:	000ec883          	lbu	a7,0(t4)
     b60:	2e088663          	beqz	a7,e4c <printf+0x808>
     b64:	00000e13          	li	t3,0
     b68:	00000313          	li	t1,0
     b6c:	00100a13          	li	s4,1
     b70:	06300613          	li	a2,99
     b74:	2d165263          	bge	a2,a7,e38 <printf+0x7f4>
     b78:	03010713          	addi	a4,sp,48
     b7c:	00f12e23          	sw	a5,28(sp)
     b80:	42030793          	addi	a5,t1,1056
     b84:	00e78f33          	add	t5,a5,a4
     b88:	00088513          	mv	a0,a7
     b8c:	06400593          	li	a1,100
     b90:	02d12623          	sw	a3,44(sp)
     b94:	03012423          	sw	a6,40(sp)
     b98:	03d12223          	sw	t4,36(sp)
     b9c:	03c12023          	sw	t3,32(sp)
     ba0:	01112c23          	sw	a7,24(sp)
     ba4:	45812c23          	sw	s8,1112(sp)
     ba8:	00612a23          	sw	t1,20(sp)
     bac:	01e12823          	sw	t5,16(sp)
     bb0:	419020ef          	jal	37c8 <__divsi3>
     bb4:	00004637          	lui	a2,0x4
     bb8:	49460613          	addi	a2,a2,1172 # 4494 <errpat+0x238>
     bbc:	00a60533          	add	a0,a2,a0
     bc0:	00054f83          	lbu	t6,0(a0)
     bc4:	01012f03          	lw	t5,16(sp)
     bc8:	01812503          	lw	a0,24(sp)
     bcc:	06400593          	li	a1,100
     bd0:	bfff0423          	sb	t6,-1048(t5)
     bd4:	00c12623          	sw	a2,12(sp)
     bd8:	475020ef          	jal	384c <__modsi3>
     bdc:	01412303          	lw	t1,20(sp)
     be0:	00a00593          	li	a1,10
     be4:	00050c13          	mv	s8,a0
     be8:	00230313          	addi	t1,t1,2
     bec:	00612823          	sw	t1,16(sp)
     bf0:	3d9020ef          	jal	37c8 <__divsi3>
     bf4:	00c12603          	lw	a2,12(sp)
     bf8:	002a0a33          	add	s4,s4,sp
     bfc:	00a00593          	li	a1,10
     c00:	00a60533          	add	a0,a2,a0
     c04:	00054883          	lbu	a7,0(a0)
     c08:	000c0513          	mv	a0,s8
     c0c:	031a0c23          	sb	a7,56(s4)
     c10:	43d020ef          	jal	384c <__modsi3>
     c14:	00c12603          	lw	a2,12(sp)
     c18:	01012303          	lw	t1,16(sp)
     c1c:	01c12783          	lw	a5,28(sp)
     c20:	02012e03          	lw	t3,32(sp)
     c24:	02412e83          	lw	t4,36(sp)
     c28:	02812803          	lw	a6,40(sp)
     c2c:	02c12683          	lw	a3,44(sp)
     c30:	45812c03          	lw	s8,1112(sp)
     c34:	00050893          	mv	a7,a0
     c38:	01160633          	add	a2,a2,a7
     c3c:	00064583          	lbu	a1,0(a2)
     c40:	00230633          	add	a2,t1,sp
     c44:	001e0e13          	addi	t3,t3,1
     c48:	02b60c23          	sb	a1,56(a2)
     c4c:	00400613          	li	a2,4
     c50:	00130a13          	addi	s4,t1,1
     c54:	02ce0e63          	beq	t3,a2,c90 <printf+0x64c>
     c58:	01ce8633          	add	a2,t4,t3
     c5c:	00064883          	lbu	a7,0(a2)
     c60:	02e00593          	li	a1,46
     c64:	002a0633          	add	a2,s4,sp
     c68:	02b60c23          	sb	a1,56(a2)
     c6c:	001a0313          	addi	t1,s4,1
     c70:	002a0a13          	addi	s4,s4,2
     c74:	ee089ee3          	bnez	a7,b70 <printf+0x52c>
     c78:	03000613          	li	a2,48
     c7c:	00230333          	add	t1,t1,sp
     c80:	02c30c23          	sb	a2,56(t1)
     c84:	001e0e13          	addi	t3,t3,1
     c88:	00400613          	li	a2,4
     c8c:	fcce16e3          	bne	t3,a2,c58 <printf+0x614>
     c90:	0107f793          	andi	a5,a5,16
     c94:	02079863          	bnez	a5,cc4 <printf+0x680>
     c98:	2ada5c63          	bge	s4,a3,f50 <printf+0x90c>
     c9c:	41468633          	sub	a2,a3,s4
     ca0:	00c80633          	add	a2,a6,a2
     ca4:	00080793          	mv	a5,a6
     ca8:	02000593          	li	a1,32
     cac:	00178793          	addi	a5,a5,1
     cb0:	feb78fa3          	sb	a1,-1(a5)
     cb4:	fec79ce3          	bne	a5,a2,cac <printf+0x668>
     cb8:	00d806b3          	add	a3,a6,a3
     cbc:	41468833          	sub	a6,a3,s4
     cc0:	fffa0693          	addi	a3,s4,-1
     cc4:	03405063          	blez	s4,ce4 <printf+0x6a0>
     cc8:	03810793          	addi	a5,sp,56
     ccc:	014805b3          	add	a1,a6,s4
     cd0:	0007c603          	lbu	a2,0(a5)
     cd4:	00180813          	addi	a6,a6,1
     cd8:	00178793          	addi	a5,a5,1
     cdc:	fec80fa3          	sb	a2,-1(a6)
     ce0:	feb818e3          	bne	a6,a1,cd0 <printf+0x68c>
     ce4:	00da5e63          	bge	s4,a3,d00 <printf+0x6bc>
     ce8:	41468733          	sub	a4,a3,s4
     cec:	00e80733          	add	a4,a6,a4
     cf0:	02000793          	li	a5,32
     cf4:	00180813          	addi	a6,a6,1
     cf8:	fef80fa3          	sb	a5,-1(a6)
     cfc:	fee81ce3          	bne	a6,a4,cf4 <printf+0x6b0>
     d00:	001bc783          	lbu	a5,1(s7)
     d04:	000c8a13          	mv	s4,s9
     d08:	001b8313          	addi	t1,s7,1
     d0c:	45412c83          	lw	s9,1108(sp)
     d10:	9a0796e3          	bnez	a5,6bc <printf+0x78>
     d14:	9c1ff06f          	j	6d4 <printf+0x90>
     d18:	00004637          	lui	a2,0x4
     d1c:	000a2f03          	lw	t5,0(s4)
     d20:	49460713          	addi	a4,a2,1172 # 4494 <errpat+0x238>
     d24:	004a0a13          	addi	s4,s4,4
     d28:	00000313          	li	t1,0
     d2c:	00000513          	li	a0,0
     d30:	00600e93          	li	t4,6
     d34:	03a00f93          	li	t6,58
     d38:	0100006f          	j	d48 <printf+0x704>
     d3c:	00560633          	add	a2,a2,t0
     d40:	01f60423          	sb	t6,8(a2)
     d44:	00350513          	addi	a0,a0,3
     d48:	006f0633          	add	a2,t5,t1
     d4c:	00064603          	lbu	a2,0(a2)
     d50:	03010293          	addi	t0,sp,48
     d54:	00130313          	addi	t1,t1,1
     d58:	00465593          	srli	a1,a2,0x4
     d5c:	00b705b3          	add	a1,a4,a1
     d60:	0005c583          	lbu	a1,0(a1)
     d64:	00f67613          	andi	a2,a2,15
     d68:	00c70633          	add	a2,a4,a2
     d6c:	00064e03          	lbu	t3,0(a2)
     d70:	00550633          	add	a2,a0,t0
     d74:	00b60423          	sb	a1,8(a2)
     d78:	00150593          	addi	a1,a0,1
     d7c:	00558633          	add	a2,a1,t0
     d80:	01c60423          	sb	t3,8(a2)
     d84:	00250613          	addi	a2,a0,2
     d88:	fbd31ae3          	bne	t1,t4,d3c <printf+0x6f8>
     d8c:	0107f793          	andi	a5,a5,16
     d90:	02079863          	bnez	a5,dc0 <printf+0x77c>
     d94:	40c68733          	sub	a4,a3,a2
     d98:	00e80733          	add	a4,a6,a4
     d9c:	00080793          	mv	a5,a6
     da0:	02000513          	li	a0,32
     da4:	1cd65663          	bge	a2,a3,f70 <printf+0x92c>
     da8:	00178793          	addi	a5,a5,1
     dac:	fea78fa3          	sb	a0,-1(a5)
     db0:	fee79ce3          	bne	a5,a4,da8 <printf+0x764>
     db4:	00d806b3          	add	a3,a6,a3
     db8:	40c68833          	sub	a6,a3,a2
     dbc:	00058693          	mv	a3,a1
     dc0:	03810793          	addi	a5,sp,56
     dc4:	00c805b3          	add	a1,a6,a2
     dc8:	0007c703          	lbu	a4,0(a5)
     dcc:	00180813          	addi	a6,a6,1
     dd0:	00178793          	addi	a5,a5,1
     dd4:	fee80fa3          	sb	a4,-1(a6)
     dd8:	feb818e3          	bne	a6,a1,dc8 <printf+0x784>
     ddc:	02d65063          	bge	a2,a3,dfc <printf+0x7b8>
     de0:	40c68633          	sub	a2,a3,a2
     de4:	00c58733          	add	a4,a1,a2
     de8:	02000793          	li	a5,32
     dec:	00180813          	addi	a6,a6,1
     df0:	fef80fa3          	sb	a5,-1(a6)
     df4:	fee81ce3          	bne	a6,a4,dec <printf+0x7a8>
     df8:	00c58833          	add	a6,a1,a2
     dfc:	0028c783          	lbu	a5,2(a7)
     e00:	00288313          	addi	t1,a7,2
     e04:	8a079ce3          	bnez	a5,6bc <printf+0x78>
     e08:	8cdff06f          	j	6d4 <printf+0x90>
     e0c:	06c00713          	li	a4,108
     e10:	0407e793          	ori	a5,a5,64
     e14:	d2e31ee3          	bne	t1,a4,b50 <printf+0x50c>
     e18:	00004737          	lui	a4,0x4
     e1c:	000a2f03          	lw	t5,0(s4)
     e20:	4bc70713          	addi	a4,a4,1212 # 44bc <errpat+0x260>
     e24:	004a0a13          	addi	s4,s4,4
     e28:	f01ff06f          	j	d28 <printf+0x6e4>
     e2c:	00088b93          	mv	s7,a7
     e30:	00800613          	li	a2,8
     e34:	a95ff06f          	j	8c8 <printf+0x284>
     e38:	00900613          	li	a2,9
     e3c:	03164263          	blt	a2,a7,e60 <printf+0x81c>
     e40:	00004637          	lui	a2,0x4
     e44:	49460613          	addi	a2,a2,1172 # 4494 <errpat+0x238>
     e48:	df1ff06f          	j	c38 <printf+0x5f4>
     e4c:	03000713          	li	a4,48
     e50:	00100a13          	li	s4,1
     e54:	02e10c23          	sb	a4,56(sp)
     e58:	000a0e13          	mv	t3,s4
     e5c:	dfdff06f          	j	c58 <printf+0x614>
     e60:	03010713          	addi	a4,sp,48
     e64:	00f12c23          	sw	a5,24(sp)
     e68:	42030793          	addi	a5,t1,1056
     e6c:	00e78333          	add	t1,a5,a4
     e70:	00088513          	mv	a0,a7
     e74:	00a00593          	li	a1,10
     e78:	02d12423          	sw	a3,40(sp)
     e7c:	03012223          	sw	a6,36(sp)
     e80:	03d12023          	sw	t4,32(sp)
     e84:	01c12e23          	sw	t3,28(sp)
     e88:	01112a23          	sw	a7,20(sp)
     e8c:	00612823          	sw	t1,16(sp)
     e90:	139020ef          	jal	37c8 <__divsi3>
     e94:	00004637          	lui	a2,0x4
     e98:	49460613          	addi	a2,a2,1172 # 4494 <errpat+0x238>
     e9c:	00a605b3          	add	a1,a2,a0
     ea0:	0005cf03          	lbu	t5,0(a1)
     ea4:	01012303          	lw	t1,16(sp)
     ea8:	01412503          	lw	a0,20(sp)
     eac:	00a00593          	li	a1,10
     eb0:	bfe30423          	sb	t5,-1048(t1)
     eb4:	00c12623          	sw	a2,12(sp)
     eb8:	195020ef          	jal	384c <__modsi3>
     ebc:	02812683          	lw	a3,40(sp)
     ec0:	02412803          	lw	a6,36(sp)
     ec4:	02012e83          	lw	t4,32(sp)
     ec8:	01c12e03          	lw	t3,28(sp)
     ecc:	01812783          	lw	a5,24(sp)
     ed0:	00c12603          	lw	a2,12(sp)
     ed4:	000a0313          	mv	t1,s4
     ed8:	00050893          	mv	a7,a0
     edc:	d5dff06f          	j	c38 <printf+0x5f4>
     ee0:	05010413          	addi	s0,sp,80
     ee4:	00040813          	mv	a6,s0
     ee8:	801ff06f          	j	6e8 <printf+0xa4>
     eec:	0027e793          	ori	a5,a5,2
     ef0:	00088b93          	mv	s7,a7
     ef4:	c45ff06f          	j	b38 <printf+0x4f4>
     ef8:	45912a23          	sw	s9,1108(sp)
     efc:	00088b93          	mv	s7,a7
     f00:	c55ff06f          	j	b54 <printf+0x510>
     f04:	00088b93          	mv	s7,a7
     f08:	9bdff06f          	j	8c4 <printf+0x280>
     f0c:	0407e793          	ori	a5,a5,64
     f10:	00088b93          	mv	s7,a7
     f14:	01000613          	li	a2,16
     f18:	9b1ff06f          	j	8c8 <printf+0x284>
     f1c:	45912a23          	sw	s9,1108(sp)
     f20:	0407e793          	ori	a5,a5,64
     f24:	00088b93          	mv	s7,a7
     f28:	c2dff06f          	j	b54 <printf+0x510>
     f2c:	000a2783          	lw	a5,0(s4)
     f30:	00180813          	addi	a6,a6,1
     f34:	00058a13          	mv	s4,a1
     f38:	fef80fa3          	sb	a5,-1(a6)
     f3c:	0018c783          	lbu	a5,1(a7)
     f40:	f6079e63          	bnez	a5,6bc <printf+0x78>
     f44:	f90ff06f          	j	6d4 <printf+0x90>
     f48:	fff68693          	addi	a3,a3,-1
     f4c:	a45ff06f          	j	990 <printf+0x34c>
     f50:	fff68693          	addi	a3,a3,-1
     f54:	d71ff06f          	j	cc4 <printf+0x680>
     f58:	00000513          	li	a0,0
     f5c:	a4079ce3          	bnez	a5,9b4 <printf+0x370>
     f60:	00188313          	addi	t1,a7,1
     f64:	b8d04ee3          	bgtz	a3,b00 <printf+0x4bc>
     f68:	0018c783          	lbu	a5,1(a7)
     f6c:	a79ff06f          	j	9e4 <printf+0x3a0>
     f70:	fff68693          	addi	a3,a3,-1
     f74:	e4dff06f          	j	dc0 <printf+0x77c>
     f78:	00060813          	mv	a6,a2
     f7c:	9c5ff06f          	j	940 <printf+0x2fc>

00000f80 <iterate>:
     f80:	ff010113          	addi	sp,sp,-16
     f84:	01212023          	sw	s2,0(sp)
     f88:	01c52903          	lw	s2,28(a0)
     f8c:	00112623          	sw	ra,12(sp)
     f90:	02052c23          	sw	zero,56(a0)
     f94:	02052e23          	sw	zero,60(a0)
     f98:	04090e63          	beqz	s2,ff4 <iterate+0x74>
     f9c:	00812423          	sw	s0,8(sp)
     fa0:	00912223          	sw	s1,4(sp)
     fa4:	00050413          	mv	s0,a0
     fa8:	00000493          	li	s1,0
     fac:	00100593          	li	a1,1
     fb0:	00040513          	mv	a0,s0
     fb4:	500000ef          	jal	14b4 <core_bench_list>
     fb8:	03845583          	lhu	a1,56(s0)
     fbc:	76d010ef          	jal	2f28 <crcu16>
     fc0:	02a41c23          	sh	a0,56(s0)
     fc4:	fff00593          	li	a1,-1
     fc8:	00040513          	mv	a0,s0
     fcc:	4e8000ef          	jal	14b4 <core_bench_list>
     fd0:	03845583          	lhu	a1,56(s0)
     fd4:	755010ef          	jal	2f28 <crcu16>
     fd8:	02a41c23          	sh	a0,56(s0)
     fdc:	00049463          	bnez	s1,fe4 <iterate+0x64>
     fe0:	02a41d23          	sh	a0,58(s0)
     fe4:	00148493          	addi	s1,s1,1
     fe8:	fc9912e3          	bne	s2,s1,fac <iterate+0x2c>
     fec:	00812403          	lw	s0,8(sp)
     ff0:	00412483          	lw	s1,4(sp)
     ff4:	00c12083          	lw	ra,12(sp)
     ff8:	00012903          	lw	s2,0(sp)
     ffc:	00000513          	li	a0,0
    1000:	01010113          	addi	sp,sp,16
    1004:	00008067          	ret

00001008 <cmp_idx>:
    1008:	00060a63          	beqz	a2,101c <cmp_idx+0x14>
    100c:	00251503          	lh	a0,2(a0)
    1010:	00259783          	lh	a5,2(a1)
    1014:	40f50533          	sub	a0,a0,a5
    1018:	00008067          	ret
    101c:	00051783          	lh	a5,0(a0)
    1020:	01079693          	slli	a3,a5,0x10
    1024:	f007f713          	andi	a4,a5,-256
    1028:	0186d793          	srli	a5,a3,0x18
    102c:	00f767b3          	or	a5,a4,a5
    1030:	00f51023          	sh	a5,0(a0)
    1034:	00059783          	lh	a5,0(a1)
    1038:	00251503          	lh	a0,2(a0)
    103c:	01079693          	slli	a3,a5,0x10
    1040:	f007f713          	andi	a4,a5,-256
    1044:	0186d793          	srli	a5,a3,0x18
    1048:	00f767b3          	or	a5,a4,a5
    104c:	00f59023          	sh	a5,0(a1)
    1050:	00259783          	lh	a5,2(a1)
    1054:	40f50533          	sub	a0,a0,a5
    1058:	00008067          	ret

0000105c <calc_func>:
    105c:	00051803          	lh	a6,0(a0)
    1060:	40785793          	srai	a5,a6,0x7
    1064:	0017f793          	andi	a5,a5,1
    1068:	00078663          	beqz	a5,1074 <calc_func+0x18>
    106c:	07f87513          	andi	a0,a6,127
    1070:	00008067          	ret
    1074:	40385713          	srai	a4,a6,0x3
    1078:	00f77713          	andi	a4,a4,15
    107c:	fe010113          	addi	sp,sp,-32
    1080:	00471793          	slli	a5,a4,0x4
    1084:	00f70633          	add	a2,a4,a5
    1088:	00812c23          	sw	s0,24(sp)
    108c:	00112e23          	sw	ra,28(sp)
    1090:	00912a23          	sw	s1,20(sp)
    1094:	00787693          	andi	a3,a6,7
    1098:	0385d783          	lhu	a5,56(a1)
    109c:	00058893          	mv	a7,a1
    10a0:	00050413          	mv	s0,a0
    10a4:	00060713          	mv	a4,a2
    10a8:	08068e63          	beqz	a3,1144 <calc_func+0xe8>
    10ac:	00100613          	li	a2,1
    10b0:	08c69263          	bne	a3,a2,1134 <calc_func+0xd8>
    10b4:	00078613          	mv	a2,a5
    10b8:	02888513          	addi	a0,a7,40
    10bc:	00070593          	mv	a1,a4
    10c0:	01012623          	sw	a6,12(sp)
    10c4:	01112423          	sw	a7,8(sp)
    10c8:	620010ef          	jal	26e8 <core_bench_matrix>
    10cc:	00812883          	lw	a7,8(sp)
    10d0:	01051493          	slli	s1,a0,0x10
    10d4:	00c12803          	lw	a6,12(sp)
    10d8:	03c8d783          	lhu	a5,60(a7)
    10dc:	4104d493          	srai	s1,s1,0x10
    10e0:	0a079463          	bnez	a5,1188 <calc_func+0x12c>
    10e4:	0388d783          	lhu	a5,56(a7)
    10e8:	02a89e23          	sh	a0,60(a7)
    10ec:	00078593          	mv	a1,a5
    10f0:	01112623          	sw	a7,12(sp)
    10f4:	01012423          	sw	a6,8(sp)
    10f8:	631010ef          	jal	2f28 <crcu16>
    10fc:	00812803          	lw	a6,8(sp)
    1100:	00c12883          	lw	a7,12(sp)
    1104:	00050793          	mv	a5,a0
    1108:	f0087813          	andi	a6,a6,-256
    110c:	07f4f513          	andi	a0,s1,127
    1110:	01056833          	or	a6,a0,a6
    1114:	02f89c23          	sh	a5,56(a7)
    1118:	08086813          	ori	a6,a6,128
    111c:	01c12083          	lw	ra,28(sp)
    1120:	01041023          	sh	a6,0(s0)
    1124:	01812403          	lw	s0,24(sp)
    1128:	01412483          	lw	s1,20(sp)
    112c:	02010113          	addi	sp,sp,32
    1130:	00008067          	ret
    1134:	01081513          	slli	a0,a6,0x10
    1138:	01055513          	srli	a0,a0,0x10
    113c:	00080493          	mv	s1,a6
    1140:	fadff06f          	j	10ec <calc_func+0x90>
    1144:	02100693          	li	a3,33
    1148:	00c6e463          	bltu	a3,a2,1150 <calc_func+0xf4>
    114c:	02200713          	li	a4,34
    1150:	00289683          	lh	a3,2(a7)
    1154:	00089603          	lh	a2,0(a7)
    1158:	0148a583          	lw	a1,20(a7)
    115c:	0188a503          	lw	a0,24(a7)
    1160:	01012623          	sw	a6,12(sp)
    1164:	01112423          	sw	a7,8(sp)
    1168:	225010ef          	jal	2b8c <core_bench_state>
    116c:	00812883          	lw	a7,8(sp)
    1170:	01051493          	slli	s1,a0,0x10
    1174:	00c12803          	lw	a6,12(sp)
    1178:	03e8d783          	lhu	a5,62(a7)
    117c:	4104d493          	srai	s1,s1,0x10
    1180:	00079463          	bnez	a5,1188 <calc_func+0x12c>
    1184:	02a89f23          	sh	a0,62(a7)
    1188:	0388d783          	lhu	a5,56(a7)
    118c:	f61ff06f          	j	10ec <calc_func+0x90>

00001190 <cmp_complex>:
    1190:	fe010113          	addi	sp,sp,-32
    1194:	00912a23          	sw	s1,20(sp)
    1198:	00058493          	mv	s1,a1
    119c:	00060593          	mv	a1,a2
    11a0:	00112e23          	sw	ra,28(sp)
    11a4:	00812c23          	sw	s0,24(sp)
    11a8:	00c12623          	sw	a2,12(sp)
    11ac:	eb1ff0ef          	jal	105c <calc_func>
    11b0:	00c12583          	lw	a1,12(sp)
    11b4:	00050413          	mv	s0,a0
    11b8:	00048513          	mv	a0,s1
    11bc:	ea1ff0ef          	jal	105c <calc_func>
    11c0:	01c12083          	lw	ra,28(sp)
    11c4:	40a40533          	sub	a0,s0,a0
    11c8:	01812403          	lw	s0,24(sp)
    11cc:	01412483          	lw	s1,20(sp)
    11d0:	02010113          	addi	sp,sp,32
    11d4:	00008067          	ret

000011d8 <copy_info>:
    11d8:	00059703          	lh	a4,0(a1)
    11dc:	00259783          	lh	a5,2(a1)
    11e0:	00e51023          	sh	a4,0(a0)
    11e4:	00f51123          	sh	a5,2(a0)
    11e8:	00008067          	ret

000011ec <core_list_insert_new>:
    11ec:	00062803          	lw	a6,0(a2)
    11f0:	00880893          	addi	a7,a6,8
    11f4:	04e8f663          	bgeu	a7,a4,1240 <core_list_insert_new+0x54>
    11f8:	0006a703          	lw	a4,0(a3)
    11fc:	00470313          	addi	t1,a4,4
    1200:	04f37063          	bgeu	t1,a5,1240 <core_list_insert_new+0x54>
    1204:	01162023          	sw	a7,0(a2)
    1208:	00052783          	lw	a5,0(a0)
    120c:	00059883          	lh	a7,0(a1)
    1210:	00259603          	lh	a2,2(a1)
    1214:	00f82023          	sw	a5,0(a6)
    1218:	01052023          	sw	a6,0(a0)
    121c:	00e82223          	sw	a4,4(a6)
    1220:	0006a783          	lw	a5,0(a3)
    1224:	00080513          	mv	a0,a6
    1228:	00478793          	addi	a5,a5,4
    122c:	00f6a023          	sw	a5,0(a3)
    1230:	00482783          	lw	a5,4(a6)
    1234:	01179023          	sh	a7,0(a5)
    1238:	00c79123          	sh	a2,2(a5)
    123c:	00008067          	ret
    1240:	00000813          	li	a6,0
    1244:	00080513          	mv	a0,a6
    1248:	00008067          	ret

0000124c <core_list_remove>:
    124c:	00050793          	mv	a5,a0
    1250:	00052503          	lw	a0,0(a0)
    1254:	0047a683          	lw	a3,4(a5)
    1258:	00452603          	lw	a2,4(a0)
    125c:	00052703          	lw	a4,0(a0)
    1260:	00c7a223          	sw	a2,4(a5)
    1264:	00d52223          	sw	a3,4(a0)
    1268:	00e7a023          	sw	a4,0(a5)
    126c:	00052023          	sw	zero,0(a0)
    1270:	00008067          	ret

00001274 <core_list_undo_remove>:
    1274:	0045a683          	lw	a3,4(a1)
    1278:	00452703          	lw	a4,4(a0)
    127c:	0005a783          	lw	a5,0(a1)
    1280:	00d52223          	sw	a3,4(a0)
    1284:	00e5a223          	sw	a4,4(a1)
    1288:	00f52023          	sw	a5,0(a0)
    128c:	00a5a023          	sw	a0,0(a1)
    1290:	00008067          	ret

00001294 <core_list_find>:
    1294:	00259703          	lh	a4,2(a1)
    1298:	02074263          	bltz	a4,12bc <core_list_find+0x28>
    129c:	00051863          	bnez	a0,12ac <core_list_find+0x18>
    12a0:	00008067          	ret
    12a4:	00052503          	lw	a0,0(a0)
    12a8:	02050a63          	beqz	a0,12dc <core_list_find+0x48>
    12ac:	00452783          	lw	a5,4(a0)
    12b0:	00279783          	lh	a5,2(a5)
    12b4:	fee798e3          	bne	a5,a4,12a4 <core_list_find+0x10>
    12b8:	00008067          	ret
    12bc:	02050063          	beqz	a0,12dc <core_list_find+0x48>
    12c0:	00059703          	lh	a4,0(a1)
    12c4:	00c0006f          	j	12d0 <core_list_find+0x3c>
    12c8:	00052503          	lw	a0,0(a0)
    12cc:	00050863          	beqz	a0,12dc <core_list_find+0x48>
    12d0:	00452783          	lw	a5,4(a0)
    12d4:	0007c783          	lbu	a5,0(a5)
    12d8:	fee798e3          	bne	a5,a4,12c8 <core_list_find+0x34>
    12dc:	00008067          	ret

000012e0 <core_list_reverse>:
    12e0:	02050063          	beqz	a0,1300 <core_list_reverse+0x20>
    12e4:	00000713          	li	a4,0
    12e8:	0080006f          	j	12f0 <core_list_reverse+0x10>
    12ec:	00078513          	mv	a0,a5
    12f0:	00052783          	lw	a5,0(a0)
    12f4:	00e52023          	sw	a4,0(a0)
    12f8:	00050713          	mv	a4,a0
    12fc:	fe0798e3          	bnez	a5,12ec <core_list_reverse+0xc>
    1300:	00008067          	ret

00001304 <core_list_mergesort>:
    1304:	fd010113          	addi	sp,sp,-48
    1308:	03212023          	sw	s2,32(sp)
    130c:	01512a23          	sw	s5,20(sp)
    1310:	01612823          	sw	s6,16(sp)
    1314:	01712623          	sw	s7,12(sp)
    1318:	01a12023          	sw	s10,0(sp)
    131c:	00100a93          	li	s5,1
    1320:	02112623          	sw	ra,44(sp)
    1324:	02812423          	sw	s0,40(sp)
    1328:	02912223          	sw	s1,36(sp)
    132c:	01312e23          	sw	s3,28(sp)
    1330:	01412c23          	sw	s4,24(sp)
    1334:	01812423          	sw	s8,8(sp)
    1338:	01912223          	sw	s9,4(sp)
    133c:	00050913          	mv	s2,a0
    1340:	00058b93          	mv	s7,a1
    1344:	00060b13          	mv	s6,a2
    1348:	000a8d13          	mv	s10,s5
    134c:	0e090863          	beqz	s2,143c <core_list_mergesort+0x138>
    1350:	00000c93          	li	s9,0
    1354:	00000493          	li	s1,0
    1358:	00000c13          	li	s8,0
    135c:	001c8c93          	addi	s9,s9,1
    1360:	00090793          	mv	a5,s2
    1364:	00000413          	li	s0,0
    1368:	01545863          	bge	s0,s5,1378 <core_list_mergesort+0x74>
    136c:	0007a783          	lw	a5,0(a5)
    1370:	00140413          	addi	s0,s0,1
    1374:	fe079ae3          	bnez	a5,1368 <core_list_mergesort+0x64>
    1378:	00090993          	mv	s3,s2
    137c:	000a8a13          	mv	s4,s5
    1380:	00078913          	mv	s2,a5
    1384:	02805463          	blez	s0,13ac <core_list_mergesort+0xa8>
    1388:	000a0463          	beqz	s4,1390 <core_list_mergesort+0x8c>
    138c:	02091863          	bnez	s2,13bc <core_list_mergesort+0xb8>
    1390:	00048793          	mv	a5,s1
    1394:	fff40413          	addi	s0,s0,-1
    1398:	00098493          	mv	s1,s3
    139c:	0009a983          	lw	s3,0(s3)
    13a0:	04078263          	beqz	a5,13e4 <core_list_mergesort+0xe0>
    13a4:	0097a023          	sw	s1,0(a5)
    13a8:	fe8040e3          	bgtz	s0,1388 <core_list_mergesort+0x84>
    13ac:	012037b3          	snez	a5,s2
    13b0:	07405a63          	blez	s4,1424 <core_list_mergesort+0x120>
    13b4:	06078a63          	beqz	a5,1428 <core_list_mergesort+0x124>
    13b8:	04040463          	beqz	s0,1400 <core_list_mergesort+0xfc>
    13bc:	00492583          	lw	a1,4(s2)
    13c0:	0049a503          	lw	a0,4(s3)
    13c4:	000b0613          	mv	a2,s6
    13c8:	000b80e7          	jalr	s7
    13cc:	06a05c63          	blez	a0,1444 <core_list_mergesort+0x140>
    13d0:	00048793          	mv	a5,s1
    13d4:	fffa0a13          	addi	s4,s4,-1
    13d8:	00090493          	mv	s1,s2
    13dc:	00092903          	lw	s2,0(s2)
    13e0:	fc0792e3          	bnez	a5,13a4 <core_list_mergesort+0xa0>
    13e4:	00048c13          	mv	s8,s1
    13e8:	f9dff06f          	j	1384 <core_list_mergesort+0x80>
    13ec:	00e4a023          	sw	a4,0(s1)
    13f0:	012037b3          	snez	a5,s2
    13f4:	00070493          	mv	s1,a4
    13f8:	020a0463          	beqz	s4,1420 <core_list_mergesort+0x11c>
    13fc:	02078263          	beqz	a5,1420 <core_list_mergesort+0x11c>
    1400:	00090713          	mv	a4,s2
    1404:	fffa0a13          	addi	s4,s4,-1
    1408:	00092903          	lw	s2,0(s2)
    140c:	fe0490e3          	bnez	s1,13ec <core_list_mergesort+0xe8>
    1410:	00070c13          	mv	s8,a4
    1414:	012037b3          	snez	a5,s2
    1418:	00070493          	mv	s1,a4
    141c:	fe0a10e3          	bnez	s4,13fc <core_list_mergesort+0xf8>
    1420:	00070493          	mv	s1,a4
    1424:	f2079ce3          	bnez	a5,135c <core_list_mergesort+0x58>
    1428:	0004a023          	sw	zero,0(s1)
    142c:	05ac8663          	beq	s9,s10,1478 <core_list_mergesort+0x174>
    1430:	000c0913          	mv	s2,s8
    1434:	001a9a93          	slli	s5,s5,0x1
    1438:	f0091ce3          	bnez	s2,1350 <core_list_mergesort+0x4c>
    143c:	00002023          	sw	zero,0(zero) # 0 <_start>
    1440:	00100073          	ebreak
    1444:	0009a703          	lw	a4,0(s3)
    1448:	fff40413          	addi	s0,s0,-1
    144c:	00048c63          	beqz	s1,1464 <core_list_mergesort+0x160>
    1450:	00048793          	mv	a5,s1
    1454:	00098493          	mv	s1,s3
    1458:	0097a023          	sw	s1,0(a5)
    145c:	00070993          	mv	s3,a4
    1460:	f49ff06f          	j	13a8 <core_list_mergesort+0xa4>
    1464:	00098c13          	mv	s8,s3
    1468:	00098493          	mv	s1,s3
    146c:	00070993          	mv	s3,a4
    1470:	f48046e3          	bgtz	s0,13bc <core_list_mergesort+0xb8>
    1474:	f39ff06f          	j	13ac <core_list_mergesort+0xa8>
    1478:	02c12083          	lw	ra,44(sp)
    147c:	02812403          	lw	s0,40(sp)
    1480:	02412483          	lw	s1,36(sp)
    1484:	02012903          	lw	s2,32(sp)
    1488:	01c12983          	lw	s3,28(sp)
    148c:	01812a03          	lw	s4,24(sp)
    1490:	01412a83          	lw	s5,20(sp)
    1494:	01012b03          	lw	s6,16(sp)
    1498:	00c12b83          	lw	s7,12(sp)
    149c:	00412c83          	lw	s9,4(sp)
    14a0:	00012d03          	lw	s10,0(sp)
    14a4:	000c0513          	mv	a0,s8
    14a8:	00812c03          	lw	s8,8(sp)
    14ac:	03010113          	addi	sp,sp,48
    14b0:	00008067          	ret

000014b4 <core_bench_list>:
    14b4:	fd010113          	addi	sp,sp,-48
    14b8:	01312e23          	sw	s3,28(sp)
    14bc:	00451983          	lh	s3,4(a0)
    14c0:	02812423          	sw	s0,40(sp)
    14c4:	01412c23          	sw	s4,24(sp)
    14c8:	01512a23          	sw	s5,20(sp)
    14cc:	02112623          	sw	ra,44(sp)
    14d0:	02912223          	sw	s1,36(sp)
    14d4:	03212023          	sw	s2,32(sp)
    14d8:	01712623          	sw	s7,12(sp)
    14dc:	01812423          	sw	s8,8(sp)
    14e0:	02452403          	lw	s0,36(a0)
    14e4:	00050a93          	mv	s5,a0
    14e8:	00058a13          	mv	s4,a1
    14ec:	2f305663          	blez	s3,17d8 <core_bench_list+0x324>
    14f0:	01612823          	sw	s6,16(sp)
    14f4:	01912223          	sw	s9,4(sp)
    14f8:	01a12023          	sw	s10,0(sp)
    14fc:	2805c863          	bltz	a1,178c <core_bench_list+0x2d8>
    1500:	2e040463          	beqz	s0,17e8 <core_bench_list+0x334>
    1504:	00058b93          	mv	s7,a1
    1508:	00000913          	li	s2,0
    150c:	00000493          	li	s1,0
    1510:	00000d13          	li	s10,0
    1514:	00000c93          	li	s9,0
    1518:	00000c13          	li	s8,0
    151c:	00005b37          	lui	s6,0x5
    1520:	00040793          	mv	a5,s0
    1524:	00c0006f          	j	1530 <core_bench_list+0x7c>
    1528:	0007a783          	lw	a5,0(a5)
    152c:	00078863          	beqz	a5,153c <core_bench_list+0x88>
    1530:	0047a683          	lw	a3,4(a5)
    1534:	00269683          	lh	a3,2(a3)
    1538:	ff7698e3          	bne	a3,s7,1528 <core_bench_list+0x74>
    153c:	00000513          	li	a0,0
    1540:	0080006f          	j	1548 <core_bench_list+0x94>
    1544:	00068413          	mv	s0,a3
    1548:	00042683          	lw	a3,0(s0)
    154c:	00a42023          	sw	a0,0(s0)
    1550:	00040513          	mv	a0,s0
    1554:	fe0698e3          	bnez	a3,1544 <core_bench_list+0x90>
    1558:	0a078463          	beqz	a5,1600 <core_bench_list+0x14c>
    155c:	0047a703          	lw	a4,4(a5)
    1560:	00148493          	addi	s1,s1,1
    1564:	01049493          	slli	s1,s1,0x10
    1568:	00071703          	lh	a4,0(a4)
    156c:	0104d493          	srli	s1,s1,0x10
    1570:	00177693          	andi	a3,a4,1
    1574:	00068c63          	beqz	a3,158c <core_bench_list+0xd8>
    1578:	40975713          	srai	a4,a4,0x9
    157c:	00177713          	andi	a4,a4,1
    1580:	00ed0733          	add	a4,s10,a4
    1584:	01071d13          	slli	s10,a4,0x10
    1588:	010d5d13          	srli	s10,s10,0x10
    158c:	0007a703          	lw	a4,0(a5)
    1590:	00070c63          	beqz	a4,15a8 <core_bench_list+0xf4>
    1594:	00072683          	lw	a3,0(a4)
    1598:	00d7a023          	sw	a3,0(a5)
    159c:	00042783          	lw	a5,0(s0)
    15a0:	00f72023          	sw	a5,0(a4)
    15a4:	00e42023          	sw	a4,0(s0)
    15a8:	000bc863          	bltz	s7,15b8 <core_bench_list+0x104>
    15ac:	001b8b93          	addi	s7,s7,1
    15b0:	010b9b93          	slli	s7,s7,0x10
    15b4:	410bdb93          	srai	s7,s7,0x10
    15b8:	000c8593          	mv	a1,s9
    15bc:	00048713          	mv	a4,s1
    15c0:	00090693          	mv	a3,s2
    15c4:	000d0613          	mv	a2,s10
    15c8:	90cb0513          	addi	a0,s6,-1780 # 490c <errpat+0x6b0>
    15cc:	001c8c93          	addi	s9,s9,1
    15d0:	874ff0ef          	jal	644 <printf>
    15d4:	05998c63          	beq	s3,s9,162c <core_bench_list+0x178>
    15d8:	0ffcfc13          	zext.b	s8,s9
    15dc:	f40bd2e3          	bgez	s7,1520 <core_bench_list+0x6c>
    15e0:	00040793          	mv	a5,s0
    15e4:	00c0006f          	j	15f0 <core_bench_list+0x13c>
    15e8:	0007a783          	lw	a5,0(a5)
    15ec:	f40788e3          	beqz	a5,153c <core_bench_list+0x88>
    15f0:	0047a703          	lw	a4,4(a5)
    15f4:	00074703          	lbu	a4,0(a4)
    15f8:	feec18e3          	bne	s8,a4,15e8 <core_bench_list+0x134>
    15fc:	f41ff06f          	j	153c <core_bench_list+0x88>
    1600:	00042783          	lw	a5,0(s0)
    1604:	00190913          	addi	s2,s2,1
    1608:	01091913          	slli	s2,s2,0x10
    160c:	0047a783          	lw	a5,4(a5)
    1610:	01095913          	srli	s2,s2,0x10
    1614:	00178783          	lb	a5,1(a5)
    1618:	0017f793          	andi	a5,a5,1
    161c:	00fd07b3          	add	a5,s10,a5
    1620:	01079d13          	slli	s10,a5,0x10
    1624:	010d5d13          	srli	s10,s10,0x10
    1628:	f81ff06f          	j	15a8 <core_bench_list+0xf4>
    162c:	00249793          	slli	a5,s1,0x2
    1630:	412787b3          	sub	a5,a5,s2
    1634:	00fd07b3          	add	a5,s10,a5
    1638:	01012b03          	lw	s6,16(sp)
    163c:	00412c83          	lw	s9,4(sp)
    1640:	00012d03          	lw	s10,0(sp)
    1644:	01079493          	slli	s1,a5,0x10
    1648:	0104d493          	srli	s1,s1,0x10
    164c:	01405e63          	blez	s4,1668 <core_bench_list+0x1b4>
    1650:	000015b7          	lui	a1,0x1
    1654:	00040513          	mv	a0,s0
    1658:	000a8613          	mv	a2,s5
    165c:	19058593          	addi	a1,a1,400 # 1190 <cmp_complex>
    1660:	ca5ff0ef          	jal	1304 <core_list_mergesort>
    1664:	00050413          	mv	s0,a0
    1668:	00042783          	lw	a5,0(s0)
    166c:	00040913          	mv	s2,s0
    1670:	0007a983          	lw	s3,0(a5)
    1674:	0047a683          	lw	a3,4(a5)
    1678:	0049a603          	lw	a2,4(s3)
    167c:	0009a703          	lw	a4,0(s3)
    1680:	00c7a223          	sw	a2,4(a5)
    1684:	00d9a223          	sw	a3,4(s3)
    1688:	00e7a023          	sw	a4,0(a5)
    168c:	0009a023          	sw	zero,0(s3)
    1690:	000bd863          	bgez	s7,16a0 <core_bench_list+0x1ec>
    1694:	0e80006f          	j	177c <core_bench_list+0x2c8>
    1698:	00092903          	lw	s2,0(s2)
    169c:	10090a63          	beqz	s2,17b0 <core_bench_list+0x2fc>
    16a0:	00492783          	lw	a5,4(s2)
    16a4:	00279783          	lh	a5,2(a5)
    16a8:	ff7798e3          	bne	a5,s7,1698 <core_bench_list+0x1e4>
    16ac:	00442783          	lw	a5,4(s0)
    16b0:	00048593          	mv	a1,s1
    16b4:	00079503          	lh	a0,0(a5)
    16b8:	6b9010ef          	jal	3570 <crc16>
    16bc:	00092903          	lw	s2,0(s2)
    16c0:	00050493          	mv	s1,a0
    16c4:	fe0914e3          	bnez	s2,16ac <core_bench_list+0x1f8>
    16c8:	00005537          	lui	a0,0x5
    16cc:	00048593          	mv	a1,s1
    16d0:	92850513          	addi	a0,a0,-1752 # 4928 <errpat+0x6cc>
    16d4:	f71fe0ef          	jal	644 <printf>
    16d8:	00042783          	lw	a5,0(s0)
    16dc:	0049a683          	lw	a3,4(s3)
    16e0:	000015b7          	lui	a1,0x1
    16e4:	0047a603          	lw	a2,4(a5)
    16e8:	0007a703          	lw	a4,0(a5)
    16ec:	00040513          	mv	a0,s0
    16f0:	00c9a223          	sw	a2,4(s3)
    16f4:	00d7a223          	sw	a3,4(a5)
    16f8:	00e9a023          	sw	a4,0(s3)
    16fc:	0137a023          	sw	s3,0(a5)
    1700:	00858593          	addi	a1,a1,8 # 1008 <cmp_idx>
    1704:	00000613          	li	a2,0
    1708:	bfdff0ef          	jal	1304 <core_list_mergesort>
    170c:	00052403          	lw	s0,0(a0)
    1710:	00050913          	mv	s2,a0
    1714:	02040063          	beqz	s0,1734 <core_bench_list+0x280>
    1718:	00492783          	lw	a5,4(s2)
    171c:	00048593          	mv	a1,s1
    1720:	00079503          	lh	a0,0(a5)
    1724:	64d010ef          	jal	3570 <crc16>
    1728:	00042403          	lw	s0,0(s0)
    172c:	00050493          	mv	s1,a0
    1730:	fe0414e3          	bnez	s0,1718 <core_bench_list+0x264>
    1734:	00005537          	lui	a0,0x5
    1738:	00048593          	mv	a1,s1
    173c:	93c50513          	addi	a0,a0,-1732 # 493c <errpat+0x6e0>
    1740:	f05fe0ef          	jal	644 <printf>
    1744:	02c12083          	lw	ra,44(sp)
    1748:	02812403          	lw	s0,40(sp)
    174c:	02012903          	lw	s2,32(sp)
    1750:	01c12983          	lw	s3,28(sp)
    1754:	01812a03          	lw	s4,24(sp)
    1758:	01412a83          	lw	s5,20(sp)
    175c:	00c12b83          	lw	s7,12(sp)
    1760:	00812c03          	lw	s8,8(sp)
    1764:	00048513          	mv	a0,s1
    1768:	02412483          	lw	s1,36(sp)
    176c:	03010113          	addi	sp,sp,48
    1770:	00008067          	ret
    1774:	00092903          	lw	s2,0(s2)
    1778:	02090c63          	beqz	s2,17b0 <core_bench_list+0x2fc>
    177c:	00492783          	lw	a5,4(s2)
    1780:	0007c783          	lbu	a5,0(a5)
    1784:	fefc18e3          	bne	s8,a5,1774 <core_bench_list+0x2c0>
    1788:	f25ff06f          	j	16ac <core_bench_list+0x1f8>
    178c:	04040e63          	beqz	s0,17e8 <core_bench_list+0x334>
    1790:	00058b93          	mv	s7,a1
    1794:	00000913          	li	s2,0
    1798:	00000493          	li	s1,0
    179c:	00000d13          	li	s10,0
    17a0:	00000c93          	li	s9,0
    17a4:	00000c13          	li	s8,0
    17a8:	00005b37          	lui	s6,0x5
    17ac:	e35ff06f          	j	15e0 <core_bench_list+0x12c>
    17b0:	00042903          	lw	s2,0(s0)
    17b4:	f0090ae3          	beqz	s2,16c8 <core_bench_list+0x214>
    17b8:	00442783          	lw	a5,4(s0)
    17bc:	00048593          	mv	a1,s1
    17c0:	00079503          	lh	a0,0(a5)
    17c4:	5ad010ef          	jal	3570 <crc16>
    17c8:	00092903          	lw	s2,0(s2)
    17cc:	00050493          	mv	s1,a0
    17d0:	ec091ee3          	bnez	s2,16ac <core_bench_list+0x1f8>
    17d4:	ef5ff06f          	j	16c8 <core_bench_list+0x214>
    17d8:	00058b93          	mv	s7,a1
    17dc:	00000493          	li	s1,0
    17e0:	00000c13          	li	s8,0
    17e4:	e69ff06f          	j	164c <core_bench_list+0x198>
    17e8:	00002783          	lw	a5,0(zero) # 0 <_start>
    17ec:	00100073          	ebreak

000017f0 <core_list_init>:
    17f0:	fe010113          	addi	sp,sp,-32
    17f4:	00912a23          	sw	s1,20(sp)
    17f8:	00058493          	mv	s1,a1
    17fc:	01400593          	li	a1,20
    1800:	01212823          	sw	s2,16(sp)
    1804:	00112e23          	sw	ra,28(sp)
    1808:	00060913          	mv	s2,a2
    180c:	00812c23          	sw	s0,24(sp)
    1810:	7c1010ef          	jal	37d0 <__hidden___udivsi3>
    1814:	ffe50513          	addi	a0,a0,-2
    1818:	00351313          	slli	t1,a0,0x3
    181c:	00648333          	add	t1,s1,t1
    1820:	ffff87b7          	lui	a5,0xffff8
    1824:	0004a023          	sw	zero,0(s1)
    1828:	0064a223          	sw	t1,4(s1)
    182c:	08078793          	addi	a5,a5,128 # ffff8080 <_stack_end+0xffee8080>
    1830:	00251e13          	slli	t3,a0,0x2
    1834:	00f31023          	sh	a5,0(t1)
    1838:	00031123          	sh	zero,2(t1)
    183c:	01048693          	addi	a3,s1,16
    1840:	01c30e33          	add	t3,t1,t3
    1844:	00430613          	addi	a2,t1,4
    1848:	00848713          	addi	a4,s1,8
    184c:	1666f863          	bgeu	a3,t1,19bc <core_list_init+0x1cc>
    1850:	00830593          	addi	a1,t1,8
    1854:	17c5f463          	bgeu	a1,t3,19bc <core_list_init+0x1cc>
    1858:	ffff87b7          	lui	a5,0xffff8
    185c:	00e4a023          	sw	a4,0(s1)
    1860:	0004a423          	sw	zero,8(s1)
    1864:	00c4a623          	sw	a2,12(s1)
    1868:	fff7c793          	not	a5,a5
    186c:	fff00713          	li	a4,-1
    1870:	00f31323          	sh	a5,6(t1)
    1874:	00e31223          	sh	a4,4(t1)
    1878:	ffff8eb7          	lui	t4,0xffff8
    187c:	fffece93          	not	t4,t4
    1880:	00000713          	li	a4,0
    1884:	04050c63          	beqz	a0,18dc <core_list_init+0xec>
    1888:	012747b3          	xor	a5,a4,s2
    188c:	00379793          	slli	a5,a5,0x3
    1890:	00777613          	andi	a2,a4,7
    1894:	0787f793          	andi	a5,a5,120
    1898:	00c7e7b3          	or	a5,a5,a2
    189c:	00879613          	slli	a2,a5,0x8
    18a0:	00868813          	addi	a6,a3,8
    18a4:	00170713          	addi	a4,a4,1
    18a8:	00458893          	addi	a7,a1,4
    18ac:	00c787b3          	add	a5,a5,a2
    18b0:	02687463          	bgeu	a6,t1,18d8 <core_list_init+0xe8>
    18b4:	03c8f263          	bgeu	a7,t3,18d8 <core_list_init+0xe8>
    18b8:	0004a603          	lw	a2,0(s1)
    18bc:	00c6a023          	sw	a2,0(a3)
    18c0:	00d4a023          	sw	a3,0(s1)
    18c4:	00b6a223          	sw	a1,4(a3)
    18c8:	00f59023          	sh	a5,0(a1)
    18cc:	01d59123          	sh	t4,2(a1)
    18d0:	00080693          	mv	a3,a6
    18d4:	00088593          	mv	a1,a7
    18d8:	fae518e3          	bne	a0,a4,1888 <core_list_init+0x98>
    18dc:	0004a803          	lw	a6,0(s1)
    18e0:	00082403          	lw	s0,0(a6)
    18e4:	06040063          	beqz	s0,1944 <core_list_init+0x154>
    18e8:	00500593          	li	a1,5
    18ec:	01012623          	sw	a6,12(sp)
    18f0:	6e1010ef          	jal	37d0 <__hidden___udivsi3>
    18f4:	000048b7          	lui	a7,0x4
    18f8:	00c12803          	lw	a6,12(sp)
    18fc:	fff88893          	addi	a7,a7,-1 # 3fff <main+0x783>
    1900:	20000693          	li	a3,512
    1904:	00100713          	li	a4,1
    1908:	0080006f          	j	1910 <core_list_init+0x120>
    190c:	00058413          	mv	s0,a1
    1910:	00e94633          	xor	a2,s2,a4
    1914:	7006f793          	andi	a5,a3,1792
    1918:	00c7e7b3          	or	a5,a5,a2
    191c:	0117f7b3          	and	a5,a5,a7
    1920:	00482603          	lw	a2,4(a6)
    1924:	00a77463          	bgeu	a4,a0,192c <core_list_init+0x13c>
    1928:	00070793          	mv	a5,a4
    192c:	00042583          	lw	a1,0(s0)
    1930:	00f61123          	sh	a5,2(a2)
    1934:	00170713          	addi	a4,a4,1
    1938:	10068693          	addi	a3,a3,256
    193c:	00040813          	mv	a6,s0
    1940:	fc0596e3          	bnez	a1,190c <core_list_init+0x11c>
    1944:	000015b7          	lui	a1,0x1
    1948:	00048513          	mv	a0,s1
    194c:	00858593          	addi	a1,a1,8 # 1008 <cmp_idx>
    1950:	00000613          	li	a2,0
    1954:	9b1ff0ef          	jal	1304 <core_list_mergesort>
    1958:	00050913          	mv	s2,a0
    195c:	00005537          	lui	a0,0x5
    1960:	95050513          	addi	a0,a0,-1712 # 4950 <errpat+0x6f4>
    1964:	000054b7          	lui	s1,0x5
    1968:	cddfe0ef          	jal	644 <printf>
    196c:	00090413          	mv	s0,s2
    1970:	96448493          	addi	s1,s1,-1692 # 4964 <errpat+0x708>
    1974:	02090063          	beqz	s2,1994 <core_list_init+0x1a4>
    1978:	00442783          	lw	a5,4(s0)
    197c:	00048513          	mv	a0,s1
    1980:	0007d603          	lhu	a2,0(a5) # ffff8000 <_stack_end+0xffee8000>
    1984:	00279583          	lh	a1,2(a5)
    1988:	cbdfe0ef          	jal	644 <printf>
    198c:	00042403          	lw	s0,0(s0)
    1990:	fe0414e3          	bnez	s0,1978 <core_list_init+0x188>
    1994:	00004537          	lui	a0,0x4
    1998:	70850513          	addi	a0,a0,1800 # 4708 <errpat+0x4ac>
    199c:	ca9fe0ef          	jal	644 <printf>
    19a0:	01c12083          	lw	ra,28(sp)
    19a4:	01812403          	lw	s0,24(sp)
    19a8:	01412483          	lw	s1,20(sp)
    19ac:	00090513          	mv	a0,s2
    19b0:	01012903          	lw	s2,16(sp)
    19b4:	02010113          	addi	sp,sp,32
    19b8:	00008067          	ret
    19bc:	00060593          	mv	a1,a2
    19c0:	00070693          	mv	a3,a4
    19c4:	eb5ff06f          	j	1878 <core_list_init+0x88>

000019c8 <printmat>:
    19c8:	fd010113          	addi	sp,sp,-48
    19cc:	01312e23          	sw	s3,28(sp)
    19d0:	000057b7          	lui	a5,0x5
    19d4:	00058993          	mv	s3,a1
    19d8:	01912223          	sw	s9,4(sp)
    19dc:	00060593          	mv	a1,a2
    19e0:	00050c93          	mv	s9,a0
    19e4:	00098693          	mv	a3,s3
    19e8:	00098613          	mv	a2,s3
    19ec:	97078513          	addi	a0,a5,-1680 # 4970 <errpat+0x714>
    19f0:	02112623          	sw	ra,44(sp)
    19f4:	c51fe0ef          	jal	644 <printf>
    19f8:	0a098863          	beqz	s3,1aa8 <printmat+0xe0>
    19fc:	01412c23          	sw	s4,24(sp)
    1a00:	01512a23          	sw	s5,20(sp)
    1a04:	01812423          	sw	s8,8(sp)
    1a08:	00005ab7          	lui	s5,0x5
    1a0c:	00004c37          	lui	s8,0x4
    1a10:	00005a37          	lui	s4,0x5
    1a14:	01612823          	sw	s6,16(sp)
    1a18:	01712623          	sw	s7,12(sp)
    1a1c:	02812423          	sw	s0,40(sp)
    1a20:	02912223          	sw	s1,36(sp)
    1a24:	03212023          	sw	s2,32(sp)
    1a28:	988a8a93          	addi	s5,s5,-1656 # 4988 <errpat+0x72c>
    1a2c:	708c0c13          	addi	s8,s8,1800 # 4708 <errpat+0x4ac>
    1a30:	984a0a13          	addi	s4,s4,-1660 # 4984 <errpat+0x728>
    1a34:	00000b13          	li	s6,0
    1a38:	00000b93          	li	s7,0
    1a3c:	001b1413          	slli	s0,s6,0x1
    1a40:	008c8433          	add	s0,s9,s0
    1a44:	00000913          	li	s2,0
    1a48:	00c0006f          	j	1a54 <printmat+0x8c>
    1a4c:	bf9fe0ef          	jal	644 <printf>
    1a50:	00048913          	mv	s2,s1
    1a54:	00041583          	lh	a1,0(s0)
    1a58:	000a8513          	mv	a0,s5
    1a5c:	00190493          	addi	s1,s2,1
    1a60:	be5fe0ef          	jal	644 <printf>
    1a64:	000a0513          	mv	a0,s4
    1a68:	00240413          	addi	s0,s0,2
    1a6c:	fe9990e3          	bne	s3,s1,1a4c <printmat+0x84>
    1a70:	000c0513          	mv	a0,s8
    1a74:	bd1fe0ef          	jal	644 <printf>
    1a78:	013b0b33          	add	s6,s6,s3
    1a7c:	01790663          	beq	s2,s7,1a88 <printmat+0xc0>
    1a80:	001b8b93          	addi	s7,s7,1
    1a84:	fb9ff06f          	j	1a3c <printmat+0x74>
    1a88:	02812403          	lw	s0,40(sp)
    1a8c:	02412483          	lw	s1,36(sp)
    1a90:	02012903          	lw	s2,32(sp)
    1a94:	01812a03          	lw	s4,24(sp)
    1a98:	01412a83          	lw	s5,20(sp)
    1a9c:	01012b03          	lw	s6,16(sp)
    1aa0:	00c12b83          	lw	s7,12(sp)
    1aa4:	00812c03          	lw	s8,8(sp)
    1aa8:	02c12083          	lw	ra,44(sp)
    1aac:	01c12983          	lw	s3,28(sp)
    1ab0:	00412c83          	lw	s9,4(sp)
    1ab4:	03010113          	addi	sp,sp,48
    1ab8:	00008067          	ret

00001abc <printmatC>:
    1abc:	fd010113          	addi	sp,sp,-48
    1ac0:	01312e23          	sw	s3,28(sp)
    1ac4:	000057b7          	lui	a5,0x5
    1ac8:	00058993          	mv	s3,a1
    1acc:	01912223          	sw	s9,4(sp)
    1ad0:	00060593          	mv	a1,a2
    1ad4:	00050c93          	mv	s9,a0
    1ad8:	00098693          	mv	a3,s3
    1adc:	00098613          	mv	a2,s3
    1ae0:	97078513          	addi	a0,a5,-1680 # 4970 <errpat+0x714>
    1ae4:	02112623          	sw	ra,44(sp)
    1ae8:	b5dfe0ef          	jal	644 <printf>
    1aec:	0a098863          	beqz	s3,1b9c <printmatC+0xe0>
    1af0:	01412c23          	sw	s4,24(sp)
    1af4:	01512a23          	sw	s5,20(sp)
    1af8:	01812423          	sw	s8,8(sp)
    1afc:	00005ab7          	lui	s5,0x5
    1b00:	00004c37          	lui	s8,0x4
    1b04:	00005a37          	lui	s4,0x5
    1b08:	01612823          	sw	s6,16(sp)
    1b0c:	01712623          	sw	s7,12(sp)
    1b10:	02812423          	sw	s0,40(sp)
    1b14:	02912223          	sw	s1,36(sp)
    1b18:	03212023          	sw	s2,32(sp)
    1b1c:	988a8a93          	addi	s5,s5,-1656 # 4988 <errpat+0x72c>
    1b20:	708c0c13          	addi	s8,s8,1800 # 4708 <errpat+0x4ac>
    1b24:	984a0a13          	addi	s4,s4,-1660 # 4984 <errpat+0x728>
    1b28:	00000b13          	li	s6,0
    1b2c:	00000b93          	li	s7,0
    1b30:	002b1413          	slli	s0,s6,0x2
    1b34:	008c8433          	add	s0,s9,s0
    1b38:	00000913          	li	s2,0
    1b3c:	00c0006f          	j	1b48 <printmatC+0x8c>
    1b40:	b05fe0ef          	jal	644 <printf>
    1b44:	00048913          	mv	s2,s1
    1b48:	00042583          	lw	a1,0(s0)
    1b4c:	000a8513          	mv	a0,s5
    1b50:	00190493          	addi	s1,s2,1
    1b54:	af1fe0ef          	jal	644 <printf>
    1b58:	000a0513          	mv	a0,s4
    1b5c:	00440413          	addi	s0,s0,4
    1b60:	fe9990e3          	bne	s3,s1,1b40 <printmatC+0x84>
    1b64:	000c0513          	mv	a0,s8
    1b68:	addfe0ef          	jal	644 <printf>
    1b6c:	013b0b33          	add	s6,s6,s3
    1b70:	01790663          	beq	s2,s7,1b7c <printmatC+0xc0>
    1b74:	001b8b93          	addi	s7,s7,1
    1b78:	fb9ff06f          	j	1b30 <printmatC+0x74>
    1b7c:	02812403          	lw	s0,40(sp)
    1b80:	02412483          	lw	s1,36(sp)
    1b84:	02012903          	lw	s2,32(sp)
    1b88:	01812a03          	lw	s4,24(sp)
    1b8c:	01412a83          	lw	s5,20(sp)
    1b90:	01012b03          	lw	s6,16(sp)
    1b94:	00c12b83          	lw	s7,12(sp)
    1b98:	00812c03          	lw	s8,8(sp)
    1b9c:	02c12083          	lw	ra,44(sp)
    1ba0:	01c12983          	lw	s3,28(sp)
    1ba4:	00412c83          	lw	s9,4(sp)
    1ba8:	03010113          	addi	sp,sp,48
    1bac:	00008067          	ret

00001bb0 <core_init_matrix>:
    1bb0:	fb010113          	addi	sp,sp,-80
    1bb4:	04912223          	sw	s1,68(sp)
    1bb8:	03612823          	sw	s6,48(sp)
    1bbc:	03912223          	sw	s9,36(sp)
    1bc0:	04112623          	sw	ra,76(sp)
    1bc4:	04812423          	sw	s0,72(sp)
    1bc8:	05212023          	sw	s2,64(sp)
    1bcc:	03712623          	sw	s7,44(sp)
    1bd0:	00050493          	mv	s1,a0
    1bd4:	00068c93          	mv	s9,a3
    1bd8:	00060b13          	mv	s6,a2
    1bdc:	00061463          	bnez	a2,1be4 <core_init_matrix+0x34>
    1be0:	00100b13          	li	s6,1
    1be4:	fff58b93          	addi	s7,a1,-1
    1be8:	ffcbfb93          	andi	s7,s7,-4
    1bec:	004b8793          	addi	a5,s7,4
    1bf0:	00f12223          	sw	a5,4(sp)
    1bf4:	00000413          	li	s0,0
    1bf8:	16048a63          	beqz	s1,1d6c <core_init_matrix+0x1bc>
    1bfc:	00040913          	mv	s2,s0
    1c00:	00140413          	addi	s0,s0,1
    1c04:	00040593          	mv	a1,s0
    1c08:	00040513          	mv	a0,s0
    1c0c:	399010ef          	jal	37a4 <__mulsi3>
    1c10:	00351513          	slli	a0,a0,0x3
    1c14:	fe9564e3          	bltu	a0,s1,1bfc <core_init_matrix+0x4c>
    1c18:	00090593          	mv	a1,s2
    1c1c:	00090513          	mv	a0,s2
    1c20:	385010ef          	jal	37a4 <__mulsi3>
    1c24:	00151793          	slli	a5,a0,0x1
    1c28:	00f12423          	sw	a5,8(sp)
    1c2c:	00812703          	lw	a4,8(sp)
    1c30:	00412783          	lw	a5,4(sp)
    1c34:	00e78bb3          	add	s7,a5,a4
    1c38:	16090463          	beqz	s2,1da0 <core_init_matrix+0x1f0>
    1c3c:	03312e23          	sw	s3,60(sp)
    1c40:	03412c23          	sw	s4,56(sp)
    1c44:	03512a23          	sw	s5,52(sp)
    1c48:	03812423          	sw	s8,40(sp)
    1c4c:	03a12023          	sw	s10,32(sp)
    1c50:	01b12e23          	sw	s11,28(sp)
    1c54:	01212623          	sw	s2,12(sp)
    1c58:	00412783          	lw	a5,4(sp)
    1c5c:	00190413          	addi	s0,s2,1
    1c60:	00191c13          	slli	s8,s2,0x1
    1c64:	000b8a13          	mv	s4,s7
    1c68:	00000993          	li	s3,0
    1c6c:	00100d93          	li	s11,1
    1c70:	417784b3          	sub	s1,a5,s7
    1c74:	000d8a93          	mv	s5,s11
    1c78:	000a0d13          	mv	s10,s4
    1c7c:	000b0513          	mv	a0,s6
    1c80:	000d8593          	mv	a1,s11
    1c84:	321010ef          	jal	37a4 <__mulsi3>
    1c88:	41f55793          	srai	a5,a0,0x1f
    1c8c:	0107d793          	srli	a5,a5,0x10
    1c90:	00f50633          	add	a2,a0,a5
    1c94:	01061613          	slli	a2,a2,0x10
    1c98:	01065613          	srli	a2,a2,0x10
    1c9c:	40f60b33          	sub	s6,a2,a5
    1ca0:	016d86b3          	add	a3,s11,s6
    1ca4:	01b687b3          	add	a5,a3,s11
    1ca8:	01a48533          	add	a0,s1,s10
    1cac:	00dd1023          	sh	a3,0(s10)
    1cb0:	0ff7f793          	zext.b	a5,a5
    1cb4:	001d8d93          	addi	s11,s11,1
    1cb8:	00f51023          	sh	a5,0(a0)
    1cbc:	002d0d13          	addi	s10,s10,2
    1cc0:	fa8d9ee3          	bne	s11,s0,1c7c <core_init_matrix+0xcc>
    1cc4:	00198993          	addi	s3,s3,1
    1cc8:	01590db3          	add	s11,s2,s5
    1ccc:	01240433          	add	s0,s0,s2
    1cd0:	018a0a33          	add	s4,s4,s8
    1cd4:	fb2990e3          	bne	s3,s2,1c74 <core_init_matrix+0xc4>
    1cd8:	03c12983          	lw	s3,60(sp)
    1cdc:	03812a03          	lw	s4,56(sp)
    1ce0:	03412a83          	lw	s5,52(sp)
    1ce4:	02812c03          	lw	s8,40(sp)
    1ce8:	02012d03          	lw	s10,32(sp)
    1cec:	01c12d83          	lw	s11,28(sp)
    1cf0:	00812783          	lw	a5,8(sp)
    1cf4:	00412503          	lw	a0,4(sp)
    1cf8:	00005637          	lui	a2,0x5
    1cfc:	00fb87b3          	add	a5,s7,a5
    1d00:	fff78793          	addi	a5,a5,-1
    1d04:	ffc7f793          	andi	a5,a5,-4
    1d08:	00478793          	addi	a5,a5,4
    1d0c:	00fca623          	sw	a5,12(s9)
    1d10:	00412783          	lw	a5,4(sp)
    1d14:	017ca423          	sw	s7,8(s9)
    1d18:	00090593          	mv	a1,s2
    1d1c:	00fca223          	sw	a5,4(s9)
    1d20:	00c12783          	lw	a5,12(sp)
    1d24:	98c60613          	addi	a2,a2,-1652 # 498c <errpat+0x730>
    1d28:	00fca023          	sw	a5,0(s9)
    1d2c:	c9dff0ef          	jal	19c8 <printmat>
    1d30:	00005637          	lui	a2,0x5
    1d34:	000b8513          	mv	a0,s7
    1d38:	00090593          	mv	a1,s2
    1d3c:	99060613          	addi	a2,a2,-1648 # 4990 <errpat+0x734>
    1d40:	c89ff0ef          	jal	19c8 <printmat>
    1d44:	04c12083          	lw	ra,76(sp)
    1d48:	04812403          	lw	s0,72(sp)
    1d4c:	04412483          	lw	s1,68(sp)
    1d50:	03012b03          	lw	s6,48(sp)
    1d54:	02c12b83          	lw	s7,44(sp)
    1d58:	02412c83          	lw	s9,36(sp)
    1d5c:	00090513          	mv	a0,s2
    1d60:	04012903          	lw	s2,64(sp)
    1d64:	05010113          	addi	sp,sp,80
    1d68:	00008067          	ret
    1d6c:	fff00793          	li	a5,-1
    1d70:	00f12623          	sw	a5,12(sp)
    1d74:	00078913          	mv	s2,a5
    1d78:	00200793          	li	a5,2
    1d7c:	03312e23          	sw	s3,60(sp)
    1d80:	03412c23          	sw	s4,56(sp)
    1d84:	03512a23          	sw	s5,52(sp)
    1d88:	03812423          	sw	s8,40(sp)
    1d8c:	03a12023          	sw	s10,32(sp)
    1d90:	01b12e23          	sw	s11,28(sp)
    1d94:	006b8b93          	addi	s7,s7,6
    1d98:	00f12423          	sw	a5,8(sp)
    1d9c:	ebdff06f          	j	1c58 <core_init_matrix+0xa8>
    1da0:	00012423          	sw	zero,8(sp)
    1da4:	00012623          	sw	zero,12(sp)
    1da8:	f49ff06f          	j	1cf0 <core_init_matrix+0x140>

00001dac <matrix_sum>:
    1dac:	00050e93          	mv	t4,a0
    1db0:	06050a63          	beqz	a0,1e24 <matrix_sum+0x78>
    1db4:	00251e13          	slli	t3,a0,0x2
    1db8:	01c588b3          	add	a7,a1,t3
    1dbc:	00000313          	li	t1,0
    1dc0:	00000513          	li	a0,0
    1dc4:	00000713          	li	a4,0
    1dc8:	00000693          	li	a3,0
    1dcc:	41c887b3          	sub	a5,a7,t3
    1dd0:	0180006f          	j	1de8 <matrix_sum+0x3c>
    1dd4:	00b50833          	add	a6,a0,a1
    1dd8:	01081513          	slli	a0,a6,0x10
    1ddc:	00478793          	addi	a5,a5,4
    1de0:	41055513          	srai	a0,a0,0x10
    1de4:	02f88863          	beq	a7,a5,1e14 <matrix_sum+0x68>
    1de8:	00070593          	mv	a1,a4
    1dec:	0007a703          	lw	a4,0(a5)
    1df0:	00a50813          	addi	a6,a0,10
    1df4:	00e686b3          	add	a3,a3,a4
    1df8:	00e5a5b3          	slt	a1,a1,a4
    1dfc:	fcd65ce3          	bge	a2,a3,1dd4 <matrix_sum+0x28>
    1e00:	01081513          	slli	a0,a6,0x10
    1e04:	00478793          	addi	a5,a5,4
    1e08:	00000693          	li	a3,0
    1e0c:	41055513          	srai	a0,a0,0x10
    1e10:	fcf89ce3          	bne	a7,a5,1de8 <matrix_sum+0x3c>
    1e14:	00130313          	addi	t1,t1,1
    1e18:	01c888b3          	add	a7,a7,t3
    1e1c:	fa6e98e3          	bne	t4,t1,1dcc <matrix_sum+0x20>
    1e20:	00008067          	ret
    1e24:	00000513          	li	a0,0
    1e28:	00008067          	ret

00001e2c <matrix_mul_const>:
    1e2c:	0a050a63          	beqz	a0,1ee0 <matrix_mul_const+0xb4>
    1e30:	fd010113          	addi	sp,sp,-48
    1e34:	01812423          	sw	s8,8(sp)
    1e38:	00151c13          	slli	s8,a0,0x1
    1e3c:	03212023          	sw	s2,32(sp)
    1e40:	01312e23          	sw	s3,28(sp)
    1e44:	01412c23          	sw	s4,24(sp)
    1e48:	01512a23          	sw	s5,20(sp)
    1e4c:	01612823          	sw	s6,16(sp)
    1e50:	01712623          	sw	s7,12(sp)
    1e54:	02112623          	sw	ra,44(sp)
    1e58:	02812423          	sw	s0,40(sp)
    1e5c:	02912223          	sw	s1,36(sp)
    1e60:	00068993          	mv	s3,a3
    1e64:	00058b93          	mv	s7,a1
    1e68:	00050b13          	mv	s6,a0
    1e6c:	01860933          	add	s2,a2,s8
    1e70:	00000a93          	li	s5,0
    1e74:	00000a13          	li	s4,0
    1e78:	002a9493          	slli	s1,s5,0x2
    1e7c:	009b84b3          	add	s1,s7,s1
    1e80:	41890433          	sub	s0,s2,s8
    1e84:	00041503          	lh	a0,0(s0)
    1e88:	00098593          	mv	a1,s3
    1e8c:	00240413          	addi	s0,s0,2
    1e90:	115010ef          	jal	37a4 <__mulsi3>
    1e94:	00a4a023          	sw	a0,0(s1)
    1e98:	00448493          	addi	s1,s1,4
    1e9c:	fe8914e3          	bne	s2,s0,1e84 <matrix_mul_const+0x58>
    1ea0:	001a0a13          	addi	s4,s4,1
    1ea4:	016a8ab3          	add	s5,s5,s6
    1ea8:	01890933          	add	s2,s2,s8
    1eac:	fd4b16e3          	bne	s6,s4,1e78 <matrix_mul_const+0x4c>
    1eb0:	02c12083          	lw	ra,44(sp)
    1eb4:	02812403          	lw	s0,40(sp)
    1eb8:	02412483          	lw	s1,36(sp)
    1ebc:	02012903          	lw	s2,32(sp)
    1ec0:	01c12983          	lw	s3,28(sp)
    1ec4:	01812a03          	lw	s4,24(sp)
    1ec8:	01412a83          	lw	s5,20(sp)
    1ecc:	01012b03          	lw	s6,16(sp)
    1ed0:	00c12b83          	lw	s7,12(sp)
    1ed4:	00812c03          	lw	s8,8(sp)
    1ed8:	03010113          	addi	sp,sp,48
    1edc:	00008067          	ret
    1ee0:	00008067          	ret

00001ee4 <matrix_add_const>:
    1ee4:	02050a63          	beqz	a0,1f18 <matrix_add_const+0x34>
    1ee8:	00151813          	slli	a6,a0,0x1
    1eec:	010586b3          	add	a3,a1,a6
    1ef0:	00000593          	li	a1,0
    1ef4:	410687b3          	sub	a5,a3,a6
    1ef8:	0007d703          	lhu	a4,0(a5)
    1efc:	00278793          	addi	a5,a5,2
    1f00:	00e60733          	add	a4,a2,a4
    1f04:	fee79f23          	sh	a4,-2(a5)
    1f08:	fef698e3          	bne	a3,a5,1ef8 <matrix_add_const+0x14>
    1f0c:	00158593          	addi	a1,a1,1
    1f10:	010686b3          	add	a3,a3,a6
    1f14:	feb510e3          	bne	a0,a1,1ef4 <matrix_add_const+0x10>
    1f18:	00008067          	ret

00001f1c <matrix_mul_vect>:
    1f1c:	0c050463          	beqz	a0,1fe4 <matrix_mul_vect+0xc8>
    1f20:	fd010113          	addi	sp,sp,-48
    1f24:	01312e23          	sw	s3,28(sp)
    1f28:	01812423          	sw	s8,8(sp)
    1f2c:	00151993          	slli	s3,a0,0x1
    1f30:	00251c13          	slli	s8,a0,0x2
    1f34:	01412c23          	sw	s4,24(sp)
    1f38:	01512a23          	sw	s5,20(sp)
    1f3c:	01612823          	sw	s6,16(sp)
    1f40:	01712623          	sw	s7,12(sp)
    1f44:	01912223          	sw	s9,4(sp)
    1f48:	02112623          	sw	ra,44(sp)
    1f4c:	02812423          	sw	s0,40(sp)
    1f50:	02912223          	sw	s1,36(sp)
    1f54:	03212023          	sw	s2,32(sp)
    1f58:	00068b13          	mv	s6,a3
    1f5c:	00060b93          	mv	s7,a2
    1f60:	00050a93          	mv	s5,a0
    1f64:	00058a13          	mv	s4,a1
    1f68:	01858c33          	add	s8,a1,s8
    1f6c:	013689b3          	add	s3,a3,s3
    1f70:	00000c93          	li	s9,0
    1f74:	001c9493          	slli	s1,s9,0x1
    1f78:	009b84b3          	add	s1,s7,s1
    1f7c:	000b0413          	mv	s0,s6
    1f80:	00000913          	li	s2,0
    1f84:	00041583          	lh	a1,0(s0)
    1f88:	00049503          	lh	a0,0(s1)
    1f8c:	00240413          	addi	s0,s0,2
    1f90:	00248493          	addi	s1,s1,2
    1f94:	011010ef          	jal	37a4 <__mulsi3>
    1f98:	00a90933          	add	s2,s2,a0
    1f9c:	fe8994e3          	bne	s3,s0,1f84 <matrix_mul_vect+0x68>
    1fa0:	012a2023          	sw	s2,0(s4)
    1fa4:	004a0a13          	addi	s4,s4,4
    1fa8:	015c8cb3          	add	s9,s9,s5
    1fac:	fd4c14e3          	bne	s8,s4,1f74 <matrix_mul_vect+0x58>
    1fb0:	02c12083          	lw	ra,44(sp)
    1fb4:	02812403          	lw	s0,40(sp)
    1fb8:	02412483          	lw	s1,36(sp)
    1fbc:	02012903          	lw	s2,32(sp)
    1fc0:	01c12983          	lw	s3,28(sp)
    1fc4:	01812a03          	lw	s4,24(sp)
    1fc8:	01412a83          	lw	s5,20(sp)
    1fcc:	01012b03          	lw	s6,16(sp)
    1fd0:	00c12b83          	lw	s7,12(sp)
    1fd4:	00812c03          	lw	s8,8(sp)
    1fd8:	00412c83          	lw	s9,4(sp)
    1fdc:	03010113          	addi	sp,sp,48
    1fe0:	00008067          	ret
    1fe4:	00008067          	ret

00001fe8 <matrix_mul_matrix>:
    1fe8:	10050463          	beqz	a0,20f0 <matrix_mul_matrix+0x108>
    1fec:	fb010113          	addi	sp,sp,-80
    1ff0:	04912223          	sw	s1,68(sp)
    1ff4:	00151493          	slli	s1,a0,0x1
    1ff8:	05212023          	sw	s2,64(sp)
    1ffc:	03612823          	sw	s6,48(sp)
    2000:	03712623          	sw	s7,44(sp)
    2004:	03812423          	sw	s8,40(sp)
    2008:	03912223          	sw	s9,36(sp)
    200c:	04112623          	sw	ra,76(sp)
    2010:	04812423          	sw	s0,72(sp)
    2014:	03312e23          	sw	s3,60(sp)
    2018:	03412c23          	sw	s4,56(sp)
    201c:	03512a23          	sw	s5,52(sp)
    2020:	03a12023          	sw	s10,32(sp)
    2024:	01b12e23          	sw	s11,28(sp)
    2028:	00d12623          	sw	a3,12(sp)
    202c:	00b12423          	sw	a1,8(sp)
    2030:	00050b93          	mv	s7,a0
    2034:	00060b13          	mv	s6,a2
    2038:	00960933          	add	s2,a2,s1
    203c:	00000c13          	li	s8,0
    2040:	00000c93          	li	s9,0
    2044:	00812783          	lw	a5,8(sp)
    2048:	00c12a03          	lw	s4,12(sp)
    204c:	002c1993          	slli	s3,s8,0x2
    2050:	013789b3          	add	s3,a5,s3
    2054:	00000a93          	li	s5,0
    2058:	000a0d93          	mv	s11,s4
    205c:	000b0413          	mv	s0,s6
    2060:	00000d13          	li	s10,0
    2064:	000d9583          	lh	a1,0(s11)
    2068:	00041503          	lh	a0,0(s0)
    206c:	00240413          	addi	s0,s0,2
    2070:	009d8db3          	add	s11,s11,s1
    2074:	730010ef          	jal	37a4 <__mulsi3>
    2078:	00ad0d33          	add	s10,s10,a0
    207c:	fe8914e3          	bne	s2,s0,2064 <matrix_mul_matrix+0x7c>
    2080:	01a9a023          	sw	s10,0(s3)
    2084:	001a8793          	addi	a5,s5,1
    2088:	00498993          	addi	s3,s3,4
    208c:	002a0a13          	addi	s4,s4,2
    2090:	00fb8663          	beq	s7,a5,209c <matrix_mul_matrix+0xb4>
    2094:	00078a93          	mv	s5,a5
    2098:	fc1ff06f          	j	2058 <matrix_mul_matrix+0x70>
    209c:	009b0b33          	add	s6,s6,s1
    20a0:	017c0c33          	add	s8,s8,s7
    20a4:	00990933          	add	s2,s2,s1
    20a8:	015c8663          	beq	s9,s5,20b4 <matrix_mul_matrix+0xcc>
    20ac:	001c8c93          	addi	s9,s9,1
    20b0:	f95ff06f          	j	2044 <matrix_mul_matrix+0x5c>
    20b4:	04c12083          	lw	ra,76(sp)
    20b8:	04812403          	lw	s0,72(sp)
    20bc:	04412483          	lw	s1,68(sp)
    20c0:	04012903          	lw	s2,64(sp)
    20c4:	03c12983          	lw	s3,60(sp)
    20c8:	03812a03          	lw	s4,56(sp)
    20cc:	03412a83          	lw	s5,52(sp)
    20d0:	03012b03          	lw	s6,48(sp)
    20d4:	02c12b83          	lw	s7,44(sp)
    20d8:	02812c03          	lw	s8,40(sp)
    20dc:	02412c83          	lw	s9,36(sp)
    20e0:	02012d03          	lw	s10,32(sp)
    20e4:	01c12d83          	lw	s11,28(sp)
    20e8:	05010113          	addi	sp,sp,80
    20ec:	00008067          	ret
    20f0:	00008067          	ret

000020f4 <matrix_mul_matrix_bitextract>:
    20f4:	10050e63          	beqz	a0,2210 <matrix_mul_matrix_bitextract+0x11c>
    20f8:	fb010113          	addi	sp,sp,-80
    20fc:	04812423          	sw	s0,72(sp)
    2100:	00151413          	slli	s0,a0,0x1
    2104:	04912223          	sw	s1,68(sp)
    2108:	03512a23          	sw	s5,52(sp)
    210c:	03612823          	sw	s6,48(sp)
    2110:	03712623          	sw	s7,44(sp)
    2114:	03812423          	sw	s8,40(sp)
    2118:	04112623          	sw	ra,76(sp)
    211c:	05212023          	sw	s2,64(sp)
    2120:	03312e23          	sw	s3,60(sp)
    2124:	03412c23          	sw	s4,56(sp)
    2128:	03912223          	sw	s9,36(sp)
    212c:	03a12023          	sw	s10,32(sp)
    2130:	01b12e23          	sw	s11,28(sp)
    2134:	00d12623          	sw	a3,12(sp)
    2138:	00b12423          	sw	a1,8(sp)
    213c:	00050b13          	mv	s6,a0
    2140:	00060a93          	mv	s5,a2
    2144:	008604b3          	add	s1,a2,s0
    2148:	00000b93          	li	s7,0
    214c:	00000c13          	li	s8,0
    2150:	00812783          	lw	a5,8(sp)
    2154:	00c12983          	lw	s3,12(sp)
    2158:	002b9913          	slli	s2,s7,0x2
    215c:	01278933          	add	s2,a5,s2
    2160:	00000a13          	li	s4,0
    2164:	00098d13          	mv	s10,s3
    2168:	000a8d93          	mv	s11,s5
    216c:	00000c93          	li	s9,0
    2170:	000d1583          	lh	a1,0(s10)
    2174:	000d9503          	lh	a0,0(s11)
    2178:	002d8d93          	addi	s11,s11,2
    217c:	008d0d33          	add	s10,s10,s0
    2180:	624010ef          	jal	37a4 <__mulsi3>
    2184:	40255693          	srai	a3,a0,0x2
    2188:	40555593          	srai	a1,a0,0x5
    218c:	07f5f593          	andi	a1,a1,127
    2190:	00f6f513          	andi	a0,a3,15
    2194:	610010ef          	jal	37a4 <__mulsi3>
    2198:	00ac8cb3          	add	s9,s9,a0
    219c:	fdb49ae3          	bne	s1,s11,2170 <matrix_mul_matrix_bitextract+0x7c>
    21a0:	01992023          	sw	s9,0(s2)
    21a4:	001a0793          	addi	a5,s4,1
    21a8:	00490913          	addi	s2,s2,4
    21ac:	00298993          	addi	s3,s3,2
    21b0:	00fb0663          	beq	s6,a5,21bc <matrix_mul_matrix_bitextract+0xc8>
    21b4:	00078a13          	mv	s4,a5
    21b8:	fadff06f          	j	2164 <matrix_mul_matrix_bitextract+0x70>
    21bc:	008a8ab3          	add	s5,s5,s0
    21c0:	016b8bb3          	add	s7,s7,s6
    21c4:	008484b3          	add	s1,s1,s0
    21c8:	014c0663          	beq	s8,s4,21d4 <matrix_mul_matrix_bitextract+0xe0>
    21cc:	001c0c13          	addi	s8,s8,1
    21d0:	f81ff06f          	j	2150 <matrix_mul_matrix_bitextract+0x5c>
    21d4:	04c12083          	lw	ra,76(sp)
    21d8:	04812403          	lw	s0,72(sp)
    21dc:	04412483          	lw	s1,68(sp)
    21e0:	04012903          	lw	s2,64(sp)
    21e4:	03c12983          	lw	s3,60(sp)
    21e8:	03812a03          	lw	s4,56(sp)
    21ec:	03412a83          	lw	s5,52(sp)
    21f0:	03012b03          	lw	s6,48(sp)
    21f4:	02c12b83          	lw	s7,44(sp)
    21f8:	02812c03          	lw	s8,40(sp)
    21fc:	02412c83          	lw	s9,36(sp)
    2200:	02012d03          	lw	s10,32(sp)
    2204:	01c12d83          	lw	s11,28(sp)
    2208:	05010113          	addi	sp,sp,80
    220c:	00008067          	ret
    2210:	00008067          	ret

00002214 <matrix_test>:
    2214:	fb010113          	addi	sp,sp,-80
    2218:	03312e23          	sw	s3,60(sp)
    221c:	03412c23          	sw	s4,56(sp)
    2220:	04112623          	sw	ra,76(sp)
    2224:	04812423          	sw	s0,72(sp)
    2228:	04912223          	sw	s1,68(sp)
    222c:	00d12623          	sw	a3,12(sp)
    2230:	00058a13          	mv	s4,a1
    2234:	00060993          	mv	s3,a2
    2238:	3c050463          	beqz	a0,2600 <matrix_test+0x3ec>
    223c:	03812423          	sw	s8,40(sp)
    2240:	00151c13          	slli	s8,a0,0x1
    2244:	05212023          	sw	s2,64(sp)
    2248:	03712623          	sw	s7,44(sp)
    224c:	03912223          	sw	s9,36(sp)
    2250:	01860bb3          	add	s7,a2,s8
    2254:	00070c93          	mv	s9,a4
    2258:	fffff937          	lui	s2,0xfffff
    225c:	03612823          	sw	s6,48(sp)
    2260:	03512a23          	sw	s5,52(sp)
    2264:	03a12023          	sw	s10,32(sp)
    2268:	01b12e23          	sw	s11,28(sp)
    226c:	000b8713          	mv	a4,s7
    2270:	012ce933          	or	s2,s9,s2
    2274:	00000b13          	li	s6,0
    2278:	418707b3          	sub	a5,a4,s8
    227c:	0007d683          	lhu	a3,0(a5)
    2280:	00278793          	addi	a5,a5,2
    2284:	00dc86b3          	add	a3,s9,a3
    2288:	fed79f23          	sh	a3,-2(a5)
    228c:	fee798e3          	bne	a5,a4,227c <matrix_test+0x68>
    2290:	001b0413          	addi	s0,s6,1 # 5001 <errpat+0xda5>
    2294:	01870733          	add	a4,a4,s8
    2298:	00850663          	beq	a0,s0,22a4 <matrix_test+0x90>
    229c:	00040b13          	mv	s6,s0
    22a0:	fd9ff06f          	j	2278 <matrix_test+0x64>
    22a4:	00005637          	lui	a2,0x5
    22a8:	99460613          	addi	a2,a2,-1644 # 4994 <errpat+0x738>
    22ac:	00040593          	mv	a1,s0
    22b0:	00098513          	mv	a0,s3
    22b4:	f14ff0ef          	jal	19c8 <printmat>
    22b8:	00000d13          	li	s10,0
    22bc:	00000d93          	li	s11,0
    22c0:	002d1793          	slli	a5,s10,0x2
    22c4:	00fa0ab3          	add	s5,s4,a5
    22c8:	418b84b3          	sub	s1,s7,s8
    22cc:	00049503          	lh	a0,0(s1)
    22d0:	000c8593          	mv	a1,s9
    22d4:	00248493          	addi	s1,s1,2
    22d8:	4cc010ef          	jal	37a4 <__mulsi3>
    22dc:	00aaa023          	sw	a0,0(s5)
    22e0:	004a8a93          	addi	s5,s5,4
    22e4:	fe9b94e3          	bne	s7,s1,22cc <matrix_test+0xb8>
    22e8:	008d0d33          	add	s10,s10,s0
    22ec:	018b8bb3          	add	s7,s7,s8
    22f0:	016d8663          	beq	s11,s6,22fc <matrix_test+0xe8>
    22f4:	001d8d93          	addi	s11,s11,1
    22f8:	fc9ff06f          	j	22c0 <matrix_test+0xac>
    22fc:	00241c13          	slli	s8,s0,0x2
    2300:	018a0bb3          	add	s7,s4,s8
    2304:	000b8813          	mv	a6,s7
    2308:	00000693          	li	a3,0
    230c:	00000713          	li	a4,0
    2310:	00000513          	li	a0,0
    2314:	00000893          	li	a7,0
    2318:	418807b3          	sub	a5,a6,s8
    231c:	0180006f          	j	2334 <matrix_test+0x120>
    2320:	00c505b3          	add	a1,a0,a2
    2324:	01059513          	slli	a0,a1,0x10
    2328:	00478793          	addi	a5,a5,4
    232c:	41055513          	srai	a0,a0,0x10
    2330:	02f80863          	beq	a6,a5,2360 <matrix_test+0x14c>
    2334:	00068613          	mv	a2,a3
    2338:	0007a683          	lw	a3,0(a5)
    233c:	00a50593          	addi	a1,a0,10
    2340:	00d70733          	add	a4,a4,a3
    2344:	00d62633          	slt	a2,a2,a3
    2348:	fce95ce3          	bge	s2,a4,2320 <matrix_test+0x10c>
    234c:	01059513          	slli	a0,a1,0x10
    2350:	00478793          	addi	a5,a5,4
    2354:	00000713          	li	a4,0
    2358:	41055513          	srai	a0,a0,0x10
    235c:	fcf81ce3          	bne	a6,a5,2334 <matrix_test+0x120>
    2360:	01880833          	add	a6,a6,s8
    2364:	011b0663          	beq	s6,a7,2370 <matrix_test+0x15c>
    2368:	00188893          	addi	a7,a7,1
    236c:	fadff06f          	j	2318 <matrix_test+0x104>
    2370:	00000593          	li	a1,0
    2374:	1fc010ef          	jal	3570 <crc16>
    2378:	00005637          	lui	a2,0x5
    237c:	00040593          	mv	a1,s0
    2380:	9a860613          	addi	a2,a2,-1624 # 49a8 <errpat+0x74c>
    2384:	00050493          	mv	s1,a0
    2388:	000a0513          	mv	a0,s4
    238c:	f30ff0ef          	jal	1abc <printmatC>
    2390:	00c12683          	lw	a3,12(sp)
    2394:	00040513          	mv	a0,s0
    2398:	00098613          	mv	a2,s3
    239c:	000a0593          	mv	a1,s4
    23a0:	b7dff0ef          	jal	1f1c <matrix_mul_vect>
    23a4:	00000693          	li	a3,0
    23a8:	00000713          	li	a4,0
    23ac:	00000513          	li	a0,0
    23b0:	00000813          	li	a6,0
    23b4:	418b87b3          	sub	a5,s7,s8
    23b8:	0180006f          	j	23d0 <matrix_test+0x1bc>
    23bc:	00c505b3          	add	a1,a0,a2
    23c0:	01059513          	slli	a0,a1,0x10
    23c4:	00478793          	addi	a5,a5,4
    23c8:	41055513          	srai	a0,a0,0x10
    23cc:	03778863          	beq	a5,s7,23fc <matrix_test+0x1e8>
    23d0:	00068613          	mv	a2,a3
    23d4:	0007a683          	lw	a3,0(a5)
    23d8:	00a50593          	addi	a1,a0,10
    23dc:	00d70733          	add	a4,a4,a3
    23e0:	00d62633          	slt	a2,a2,a3
    23e4:	fce95ce3          	bge	s2,a4,23bc <matrix_test+0x1a8>
    23e8:	01059513          	slli	a0,a1,0x10
    23ec:	00478793          	addi	a5,a5,4
    23f0:	00000713          	li	a4,0
    23f4:	41055513          	srai	a0,a0,0x10
    23f8:	fd779ce3          	bne	a5,s7,23d0 <matrix_test+0x1bc>
    23fc:	01878bb3          	add	s7,a5,s8
    2400:	01680663          	beq	a6,s6,240c <matrix_test+0x1f8>
    2404:	00180813          	addi	a6,a6,1
    2408:	fadff06f          	j	23b4 <matrix_test+0x1a0>
    240c:	00048593          	mv	a1,s1
    2410:	160010ef          	jal	3570 <crc16>
    2414:	00005637          	lui	a2,0x5
    2418:	00040593          	mv	a1,s0
    241c:	9bc60613          	addi	a2,a2,-1604 # 49bc <errpat+0x760>
    2420:	00050493          	mv	s1,a0
    2424:	000a0513          	mv	a0,s4
    2428:	e94ff0ef          	jal	1abc <printmatC>
    242c:	00c12683          	lw	a3,12(sp)
    2430:	00040513          	mv	a0,s0
    2434:	00098613          	mv	a2,s3
    2438:	000a0593          	mv	a1,s4
    243c:	badff0ef          	jal	1fe8 <matrix_mul_matrix>
    2440:	00000313          	li	t1,0
    2444:	00000793          	li	a5,0
    2448:	00000713          	li	a4,0
    244c:	00000513          	li	a0,0
    2450:	00000893          	li	a7,0
    2454:	00231613          	slli	a2,t1,0x2
    2458:	00ca0633          	add	a2,s4,a2
    245c:	00000593          	li	a1,0
    2460:	01c0006f          	j	247c <matrix_test+0x268>
    2464:	00d50833          	add	a6,a0,a3
    2468:	01081513          	slli	a0,a6,0x10
    246c:	00158593          	addi	a1,a1,1
    2470:	41055513          	srai	a0,a0,0x10
    2474:	00460613          	addi	a2,a2,4
    2478:	0285fa63          	bgeu	a1,s0,24ac <matrix_test+0x298>
    247c:	00078693          	mv	a3,a5
    2480:	00062783          	lw	a5,0(a2)
    2484:	00a50813          	addi	a6,a0,10
    2488:	00f70733          	add	a4,a4,a5
    248c:	00f6a6b3          	slt	a3,a3,a5
    2490:	fce95ae3          	bge	s2,a4,2464 <matrix_test+0x250>
    2494:	01081513          	slli	a0,a6,0x10
    2498:	00158593          	addi	a1,a1,1
    249c:	00000713          	li	a4,0
    24a0:	41055513          	srai	a0,a0,0x10
    24a4:	00460613          	addi	a2,a2,4
    24a8:	fc85eae3          	bltu	a1,s0,247c <matrix_test+0x268>
    24ac:	00188893          	addi	a7,a7,1
    24b0:	00830333          	add	t1,t1,s0
    24b4:	fa88e0e3          	bltu	a7,s0,2454 <matrix_test+0x240>
    24b8:	00048593          	mv	a1,s1
    24bc:	0b4010ef          	jal	3570 <crc16>
    24c0:	00005637          	lui	a2,0x5
    24c4:	00040593          	mv	a1,s0
    24c8:	9cc60613          	addi	a2,a2,-1588 # 49cc <errpat+0x770>
    24cc:	00050493          	mv	s1,a0
    24d0:	000a0513          	mv	a0,s4
    24d4:	de8ff0ef          	jal	1abc <printmatC>
    24d8:	00c12683          	lw	a3,12(sp)
    24dc:	00040513          	mv	a0,s0
    24e0:	00098613          	mv	a2,s3
    24e4:	000a0593          	mv	a1,s4
    24e8:	c0dff0ef          	jal	20f4 <matrix_mul_matrix_bitextract>
    24ec:	00000313          	li	t1,0
    24f0:	00000793          	li	a5,0
    24f4:	00000713          	li	a4,0
    24f8:	00000513          	li	a0,0
    24fc:	00000893          	li	a7,0
    2500:	00231613          	slli	a2,t1,0x2
    2504:	00ca0633          	add	a2,s4,a2
    2508:	00000593          	li	a1,0
    250c:	01c0006f          	j	2528 <matrix_test+0x314>
    2510:	00d50833          	add	a6,a0,a3
    2514:	01081513          	slli	a0,a6,0x10
    2518:	00158593          	addi	a1,a1,1
    251c:	41055513          	srai	a0,a0,0x10
    2520:	00460613          	addi	a2,a2,4
    2524:	0285fa63          	bgeu	a1,s0,2558 <matrix_test+0x344>
    2528:	00078693          	mv	a3,a5
    252c:	00062783          	lw	a5,0(a2)
    2530:	00a50813          	addi	a6,a0,10
    2534:	00f70733          	add	a4,a4,a5
    2538:	00f6a6b3          	slt	a3,a3,a5
    253c:	fce95ae3          	bge	s2,a4,2510 <matrix_test+0x2fc>
    2540:	01081513          	slli	a0,a6,0x10
    2544:	00158593          	addi	a1,a1,1
    2548:	00000713          	li	a4,0
    254c:	41055513          	srai	a0,a0,0x10
    2550:	00460613          	addi	a2,a2,4
    2554:	fc85eae3          	bltu	a1,s0,2528 <matrix_test+0x314>
    2558:	00188893          	addi	a7,a7,1
    255c:	00830333          	add	t1,t1,s0
    2560:	fa88e0e3          	bltu	a7,s0,2500 <matrix_test+0x2ec>
    2564:	00048593          	mv	a1,s1
    2568:	008010ef          	jal	3570 <crc16>
    256c:	00005637          	lui	a2,0x5
    2570:	00040593          	mv	a1,s0
    2574:	9e060613          	addi	a2,a2,-1568 # 49e0 <errpat+0x784>
    2578:	00050493          	mv	s1,a0
    257c:	000a0513          	mv	a0,s4
    2580:	d3cff0ef          	jal	1abc <printmatC>
    2584:	00000593          	li	a1,0
    2588:	00000613          	li	a2,0
    258c:	00159793          	slli	a5,a1,0x1
    2590:	00f987b3          	add	a5,s3,a5
    2594:	00000713          	li	a4,0
    2598:	0007d683          	lhu	a3,0(a5)
    259c:	00170713          	addi	a4,a4,1
    25a0:	00278793          	addi	a5,a5,2
    25a4:	419686b3          	sub	a3,a3,s9
    25a8:	fed79f23          	sh	a3,-2(a5)
    25ac:	fe8766e3          	bltu	a4,s0,2598 <matrix_test+0x384>
    25b0:	00160613          	addi	a2,a2,1
    25b4:	008585b3          	add	a1,a1,s0
    25b8:	fc866ae3          	bltu	a2,s0,258c <matrix_test+0x378>
    25bc:	04012903          	lw	s2,64(sp)
    25c0:	03412a83          	lw	s5,52(sp)
    25c4:	03012b03          	lw	s6,48(sp)
    25c8:	02c12b83          	lw	s7,44(sp)
    25cc:	02812c03          	lw	s8,40(sp)
    25d0:	02412c83          	lw	s9,36(sp)
    25d4:	02012d03          	lw	s10,32(sp)
    25d8:	01c12d83          	lw	s11,28(sp)
    25dc:	04c12083          	lw	ra,76(sp)
    25e0:	04812403          	lw	s0,72(sp)
    25e4:	01049513          	slli	a0,s1,0x10
    25e8:	03c12983          	lw	s3,60(sp)
    25ec:	04412483          	lw	s1,68(sp)
    25f0:	03812a03          	lw	s4,56(sp)
    25f4:	41055513          	srai	a0,a0,0x10
    25f8:	05010113          	addi	sp,sp,80
    25fc:	00008067          	ret
    2600:	00005637          	lui	a2,0x5
    2604:	99460613          	addi	a2,a2,-1644 # 4994 <errpat+0x738>
    2608:	00098513          	mv	a0,s3
    260c:	00000593          	li	a1,0
    2610:	bb8ff0ef          	jal	19c8 <printmat>
    2614:	00000593          	li	a1,0
    2618:	00000513          	li	a0,0
    261c:	755000ef          	jal	3570 <crc16>
    2620:	00005637          	lui	a2,0x5
    2624:	00050413          	mv	s0,a0
    2628:	9a860613          	addi	a2,a2,-1624 # 49a8 <errpat+0x74c>
    262c:	000a0513          	mv	a0,s4
    2630:	00000593          	li	a1,0
    2634:	c88ff0ef          	jal	1abc <printmatC>
    2638:	00c12483          	lw	s1,12(sp)
    263c:	00098613          	mv	a2,s3
    2640:	000a0593          	mv	a1,s4
    2644:	00048693          	mv	a3,s1
    2648:	00000513          	li	a0,0
    264c:	8d1ff0ef          	jal	1f1c <matrix_mul_vect>
    2650:	00040593          	mv	a1,s0
    2654:	00000513          	li	a0,0
    2658:	719000ef          	jal	3570 <crc16>
    265c:	00005637          	lui	a2,0x5
    2660:	00050413          	mv	s0,a0
    2664:	9bc60613          	addi	a2,a2,-1604 # 49bc <errpat+0x760>
    2668:	000a0513          	mv	a0,s4
    266c:	00000593          	li	a1,0
    2670:	c4cff0ef          	jal	1abc <printmatC>
    2674:	00048693          	mv	a3,s1
    2678:	00098613          	mv	a2,s3
    267c:	000a0593          	mv	a1,s4
    2680:	00000513          	li	a0,0
    2684:	965ff0ef          	jal	1fe8 <matrix_mul_matrix>
    2688:	00040593          	mv	a1,s0
    268c:	00000513          	li	a0,0
    2690:	6e1000ef          	jal	3570 <crc16>
    2694:	00005637          	lui	a2,0x5
    2698:	00050413          	mv	s0,a0
    269c:	9cc60613          	addi	a2,a2,-1588 # 49cc <errpat+0x770>
    26a0:	000a0513          	mv	a0,s4
    26a4:	00000593          	li	a1,0
    26a8:	c14ff0ef          	jal	1abc <printmatC>
    26ac:	00048693          	mv	a3,s1
    26b0:	00098613          	mv	a2,s3
    26b4:	000a0593          	mv	a1,s4
    26b8:	00000513          	li	a0,0
    26bc:	a39ff0ef          	jal	20f4 <matrix_mul_matrix_bitextract>
    26c0:	00040593          	mv	a1,s0
    26c4:	00000513          	li	a0,0
    26c8:	6a9000ef          	jal	3570 <crc16>
    26cc:	00005637          	lui	a2,0x5
    26d0:	00050493          	mv	s1,a0
    26d4:	9e060613          	addi	a2,a2,-1568 # 49e0 <errpat+0x784>
    26d8:	000a0513          	mv	a0,s4
    26dc:	00000593          	li	a1,0
    26e0:	bdcff0ef          	jal	1abc <printmatC>
    26e4:	ef9ff06f          	j	25dc <matrix_test+0x3c8>

000026e8 <core_bench_matrix>:
    26e8:	ff010113          	addi	sp,sp,-16
    26ec:	00812423          	sw	s0,8(sp)
    26f0:	00852683          	lw	a3,8(a0)
    26f4:	00060413          	mv	s0,a2
    26f8:	00058713          	mv	a4,a1
    26fc:	00452603          	lw	a2,4(a0)
    2700:	00c52583          	lw	a1,12(a0)
    2704:	00052503          	lw	a0,0(a0)
    2708:	00112623          	sw	ra,12(sp)
    270c:	b09ff0ef          	jal	2214 <matrix_test>
    2710:	00040593          	mv	a1,s0
    2714:	00812403          	lw	s0,8(sp)
    2718:	00c12083          	lw	ra,12(sp)
    271c:	01010113          	addi	sp,sp,16
    2720:	6510006f          	j	3570 <crc16>

00002724 <core_init_state>:
    2724:	ff010113          	addi	sp,sp,-16
    2728:	00912223          	sw	s1,4(sp)
    272c:	01212023          	sw	s2,0(sp)
    2730:	00050493          	mv	s1,a0
    2734:	00058913          	mv	s2,a1
    2738:	00005537          	lui	a0,0x5
    273c:	00812423          	sw	s0,8(sp)
    2740:	00048593          	mv	a1,s1
    2744:	00060413          	mv	s0,a2
    2748:	a0050513          	addi	a0,a0,-1536 # 4a00 <errpat+0x7a4>
    274c:	00090613          	mv	a2,s2
    2750:	00112623          	sw	ra,12(sp)
    2754:	ef1fd0ef          	jal	644 <printf>
    2758:	fff48813          	addi	a6,s1,-1
    275c:	00100e13          	li	t3,1
    2760:	130e7663          	bgeu	t3,a6,288c <core_init_state+0x168>
    2764:	01c90633          	add	a2,s2,t3
    2768:	01061613          	slli	a2,a2,0x10
    276c:	01065613          	srli	a2,a2,0x10
    2770:	00004537          	lui	a0,0x4
    2774:	01b61593          	slli	a1,a2,0x1b
    2778:	00700893          	li	a7,7
    277c:	00767693          	andi	a3,a2,7
    2780:	22c50513          	addi	a0,a0,556 # 422c <intpat>
    2784:	00000713          	li	a4,0
    2788:	00400313          	li	t1,4
    278c:	02c00e93          	li	t4,44
    2790:	01e5d793          	srli	a5,a1,0x1e
    2794:	07168e63          	beq	a3,a7,2810 <core_init_state+0xec>
    2798:	0ed36063          	bltu	t1,a3,2878 <core_init_state+0x154>
    279c:	ffd68693          	addi	a3,a3,-3
    27a0:	01069693          	slli	a3,a3,0x10
    27a4:	00279793          	slli	a5,a5,0x2
    27a8:	0106d693          	srli	a3,a3,0x10
    27ac:	00f507b3          	add	a5,a0,a5
    27b0:	0ade6e63          	bltu	t3,a3,286c <core_init_state+0x148>
    27b4:	0107a783          	lw	a5,16(a5)
    27b8:	00800f13          	li	t5,8
    27bc:	00170693          	addi	a3,a4,1
    27c0:	01e682b3          	add	t0,a3,t5
    27c4:	0702f463          	bgeu	t0,a6,282c <core_init_state+0x108>
    27c8:	00160613          	addi	a2,a2,1
    27cc:	00e40733          	add	a4,s0,a4
    27d0:	01061613          	slli	a2,a2,0x10
    27d4:	01065613          	srli	a2,a2,0x10
    27d8:	00070693          	mv	a3,a4
    27dc:	01e78fb3          	add	t6,a5,t5
    27e0:	0007c583          	lbu	a1,0(a5)
    27e4:	00178793          	addi	a5,a5,1
    27e8:	00168693          	addi	a3,a3,1
    27ec:	feb68fa3          	sb	a1,-1(a3)
    27f0:	feff98e3          	bne	t6,a5,27e0 <core_init_state+0xbc>
    27f4:	01e70733          	add	a4,a4,t5
    27f8:	01d70023          	sb	t4,0(a4)
    27fc:	01b61593          	slli	a1,a2,0x1b
    2800:	00767693          	andi	a3,a2,7
    2804:	00028713          	mv	a4,t0
    2808:	01e5d793          	srli	a5,a1,0x1e
    280c:	f91696e3          	bne	a3,a7,2798 <core_init_state+0x74>
    2810:	00279793          	slli	a5,a5,0x2
    2814:	00800f13          	li	t5,8
    2818:	00170693          	addi	a3,a4,1
    281c:	00f507b3          	add	a5,a0,a5
    2820:	01e682b3          	add	t0,a3,t5
    2824:	0307a783          	lw	a5,48(a5)
    2828:	fb02e0e3          	bltu	t0,a6,27c8 <core_init_state+0xa4>
    282c:	00976663          	bltu	a4,s1,2838 <core_init_state+0x114>
    2830:	0180006f          	j	2848 <core_init_state+0x124>
    2834:	00168693          	addi	a3,a3,1
    2838:	00e40733          	add	a4,s0,a4
    283c:	00070023          	sb	zero,0(a4)
    2840:	00068713          	mv	a4,a3
    2844:	fe96e8e3          	bltu	a3,s1,2834 <core_init_state+0x110>
    2848:	00040593          	mv	a1,s0
    284c:	00812403          	lw	s0,8(sp)
    2850:	00c12083          	lw	ra,12(sp)
    2854:	00412483          	lw	s1,4(sp)
    2858:	00012903          	lw	s2,0(sp)
    285c:	00005537          	lui	a0,0x5
    2860:	a1050513          	addi	a0,a0,-1520 # 4a10 <errpat+0x7b4>
    2864:	01010113          	addi	sp,sp,16
    2868:	dddfd06f          	j	644 <printf>
    286c:	0007a783          	lw	a5,0(a5)
    2870:	00400f13          	li	t5,4
    2874:	f49ff06f          	j	27bc <core_init_state+0x98>
    2878:	00279793          	slli	a5,a5,0x2
    287c:	00f507b3          	add	a5,a0,a5
    2880:	0207a783          	lw	a5,32(a5)
    2884:	00800f13          	li	t5,8
    2888:	f35ff06f          	j	27bc <core_init_state+0x98>
    288c:	000e0693          	mv	a3,t3
    2890:	00000713          	li	a4,0
    2894:	fa5ff06f          	j	2838 <core_init_state+0x114>

00002898 <core_state_transition>:
    2898:	00052683          	lw	a3,0(a0)
    289c:	0006c783          	lbu	a5,0(a3)
    28a0:	04078263          	beqz	a5,28e4 <core_state_transition+0x4c>
    28a4:	02c00713          	li	a4,44
    28a8:	20e78263          	beq	a5,a4,2aac <core_state_transition+0x214>
    28ac:	02e00813          	li	a6,46
    28b0:	1d078c63          	beq	a5,a6,2a88 <core_state_transition+0x1f0>
    28b4:	02f86e63          	bltu	a6,a5,28f0 <core_state_transition+0x58>
    28b8:	fd578793          	addi	a5,a5,-43
    28bc:	0fd7f793          	andi	a5,a5,253
    28c0:	1e078c63          	beqz	a5,2ab8 <core_state_transition+0x220>
    28c4:	0045a703          	lw	a4,4(a1)
    28c8:	0005a783          	lw	a5,0(a1)
    28cc:	00168693          	addi	a3,a3,1
    28d0:	00170713          	addi	a4,a4,1
    28d4:	00178793          	addi	a5,a5,1
    28d8:	00f5a023          	sw	a5,0(a1)
    28dc:	00e5a223          	sw	a4,4(a1)
    28e0:	00100793          	li	a5,1
    28e4:	00d52023          	sw	a3,0(a0)
    28e8:	00078513          	mv	a0,a5
    28ec:	00008067          	ret
    28f0:	fd078793          	addi	a5,a5,-48
    28f4:	0ff7f793          	zext.b	a5,a5
    28f8:	00900613          	li	a2,9
    28fc:	fcf664e3          	bltu	a2,a5,28c4 <core_state_transition+0x2c>
    2900:	0005a603          	lw	a2,0(a1)
    2904:	00168793          	addi	a5,a3,1
    2908:	00160613          	addi	a2,a2,1
    290c:	00c5a023          	sw	a2,0(a1)
    2910:	0016c683          	lbu	a3,1(a3)
    2914:	1e068a63          	beqz	a3,2b08 <core_state_transition+0x270>
    2918:	20e68663          	beq	a3,a4,2b24 <core_state_transition+0x28c>
    291c:	02e00713          	li	a4,46
    2920:	04e68663          	beq	a3,a4,296c <core_state_transition+0xd4>
    2924:	fd068693          	addi	a3,a3,-48
    2928:	0ff6f693          	zext.b	a3,a3
    292c:	00900713          	li	a4,9
    2930:	02d77463          	bgeu	a4,a3,2958 <core_state_transition+0xc0>
    2934:	0105a703          	lw	a4,16(a1)
    2938:	00178693          	addi	a3,a5,1
    293c:	00100793          	li	a5,1
    2940:	00f70733          	add	a4,a4,a5
    2944:	00e5a823          	sw	a4,16(a1)
    2948:	00d52023          	sw	a3,0(a0)
    294c:	00078513          	mv	a0,a5
    2950:	00008067          	ret
    2954:	00c5a423          	sw	a2,8(a1)
    2958:	0017c683          	lbu	a3,1(a5)
    295c:	00178793          	addi	a5,a5,1
    2960:	1a068463          	beqz	a3,2b08 <core_state_transition+0x270>
    2964:	02c00713          	li	a4,44
    2968:	fb1ff06f          	j	2918 <core_state_transition+0x80>
    296c:	0105a703          	lw	a4,16(a1)
    2970:	00170713          	addi	a4,a4,1
    2974:	00e5a823          	sw	a4,16(a1)
    2978:	0017c683          	lbu	a3,1(a5)
    297c:	00178793          	addi	a5,a5,1
    2980:	12068063          	beqz	a3,2aa0 <core_state_transition+0x208>
    2984:	02c00713          	li	a4,44
    2988:	18e68663          	beq	a3,a4,2b14 <core_state_transition+0x27c>
    298c:	0df6f713          	andi	a4,a3,223
    2990:	04500613          	li	a2,69
    2994:	0cc71663          	bne	a4,a2,2a60 <core_state_transition+0x1c8>
    2998:	0145a703          	lw	a4,20(a1)
    299c:	00178693          	addi	a3,a5,1
    29a0:	00170713          	addi	a4,a4,1
    29a4:	00e5aa23          	sw	a4,20(a1)
    29a8:	0017c703          	lbu	a4,1(a5)
    29ac:	18070863          	beqz	a4,2b3c <core_state_transition+0x2a4>
    29b0:	02c00613          	li	a2,44
    29b4:	18c70863          	beq	a4,a2,2b44 <core_state_transition+0x2ac>
    29b8:	00c5a683          	lw	a3,12(a1)
    29bc:	fd570713          	addi	a4,a4,-43
    29c0:	0fd77713          	andi	a4,a4,253
    29c4:	00168693          	addi	a3,a3,1
    29c8:	00d5a623          	sw	a3,12(a1)
    29cc:	08071463          	bnez	a4,2a54 <core_state_transition+0x1bc>
    29d0:	0027c703          	lbu	a4,2(a5)
    29d4:	00278693          	addi	a3,a5,2
    29d8:	14070e63          	beqz	a4,2b34 <core_state_transition+0x29c>
    29dc:	18c70463          	beq	a4,a2,2b64 <core_state_transition+0x2cc>
    29e0:	0185a603          	lw	a2,24(a1)
    29e4:	fd070713          	addi	a4,a4,-48
    29e8:	0ff77713          	zext.b	a4,a4
    29ec:	00160613          	addi	a2,a2,1
    29f0:	00900813          	li	a6,9
    29f4:	00c5ac23          	sw	a2,24(a1)
    29f8:	00e87c63          	bgeu	a6,a4,2a10 <core_state_transition+0x178>
    29fc:	00378693          	addi	a3,a5,3
    2a00:	00100793          	li	a5,1
    2a04:	00d52023          	sw	a3,0(a0)
    2a08:	00078513          	mv	a0,a5
    2a0c:	00008067          	ret
    2a10:	00068613          	mv	a2,a3
    2a14:	0016c703          	lbu	a4,1(a3)
    2a18:	00168693          	addi	a3,a3,1
    2a1c:	02c00893          	li	a7,44
    2a20:	fd070793          	addi	a5,a4,-48
    2a24:	0ff7f793          	zext.b	a5,a5
    2a28:	12070463          	beqz	a4,2b50 <core_state_transition+0x2b8>
    2a2c:	13170663          	beq	a4,a7,2b58 <core_state_transition+0x2c0>
    2a30:	fef870e3          	bgeu	a6,a5,2a10 <core_state_transition+0x178>
    2a34:	0045a703          	lw	a4,4(a1)
    2a38:	00100793          	li	a5,1
    2a3c:	00260693          	addi	a3,a2,2
    2a40:	00f70733          	add	a4,a4,a5
    2a44:	00e5a223          	sw	a4,4(a1)
    2a48:	00d52023          	sw	a3,0(a0)
    2a4c:	00078513          	mv	a0,a5
    2a50:	00008067          	ret
    2a54:	00278693          	addi	a3,a5,2
    2a58:	00100793          	li	a5,1
    2a5c:	e89ff06f          	j	28e4 <core_state_transition+0x4c>
    2a60:	fd068693          	addi	a3,a3,-48
    2a64:	0ff6f693          	zext.b	a3,a3
    2a68:	00900713          	li	a4,9
    2a6c:	f0d776e3          	bgeu	a4,a3,2978 <core_state_transition+0xe0>
    2a70:	0145a703          	lw	a4,20(a1)
    2a74:	00178693          	addi	a3,a5,1
    2a78:	00100793          	li	a5,1
    2a7c:	00f70733          	add	a4,a4,a5
    2a80:	00e5aa23          	sw	a4,20(a1)
    2a84:	e61ff06f          	j	28e4 <core_state_transition+0x4c>
    2a88:	0005a603          	lw	a2,0(a1)
    2a8c:	00168793          	addi	a5,a3,1
    2a90:	00160613          	addi	a2,a2,1
    2a94:	00c5a023          	sw	a2,0(a1)
    2a98:	0016c683          	lbu	a3,1(a3)
    2a9c:	ee0696e3          	bnez	a3,2988 <core_state_transition+0xf0>
    2aa0:	00078693          	mv	a3,a5
    2aa4:	00500793          	li	a5,5
    2aa8:	e3dff06f          	j	28e4 <core_state_transition+0x4c>
    2aac:	00000793          	li	a5,0
    2ab0:	00168693          	addi	a3,a3,1
    2ab4:	e31ff06f          	j	28e4 <core_state_transition+0x4c>
    2ab8:	0005a603          	lw	a2,0(a1)
    2abc:	00168793          	addi	a5,a3,1
    2ac0:	00160613          	addi	a2,a2,1
    2ac4:	00c5a023          	sw	a2,0(a1)
    2ac8:	0016c303          	lbu	t1,1(a3)
    2acc:	0a030a63          	beqz	t1,2b80 <core_state_transition+0x2e8>
    2ad0:	0ae30063          	beq	t1,a4,2b70 <core_state_transition+0x2d8>
    2ad4:	0085a603          	lw	a2,8(a1)
    2ad8:	fd030713          	addi	a4,t1,-48
    2adc:	0ff77713          	zext.b	a4,a4
    2ae0:	00900893          	li	a7,9
    2ae4:	00160613          	addi	a2,a2,1
    2ae8:	e6e8f6e3          	bgeu	a7,a4,2954 <core_state_transition+0xbc>
    2aec:	01030a63          	beq	t1,a6,2b00 <core_state_transition+0x268>
    2af0:	00c5a423          	sw	a2,8(a1)
    2af4:	00268693          	addi	a3,a3,2
    2af8:	00100793          	li	a5,1
    2afc:	de9ff06f          	j	28e4 <core_state_transition+0x4c>
    2b00:	00c5a423          	sw	a2,8(a1)
    2b04:	e75ff06f          	j	2978 <core_state_transition+0xe0>
    2b08:	00078693          	mv	a3,a5
    2b0c:	00400793          	li	a5,4
    2b10:	dd5ff06f          	j	28e4 <core_state_transition+0x4c>
    2b14:	00078693          	mv	a3,a5
    2b18:	00168693          	addi	a3,a3,1
    2b1c:	00500793          	li	a5,5
    2b20:	dc5ff06f          	j	28e4 <core_state_transition+0x4c>
    2b24:	00078693          	mv	a3,a5
    2b28:	00168693          	addi	a3,a3,1
    2b2c:	00400793          	li	a5,4
    2b30:	db5ff06f          	j	28e4 <core_state_transition+0x4c>
    2b34:	00600793          	li	a5,6
    2b38:	dadff06f          	j	28e4 <core_state_transition+0x4c>
    2b3c:	00300793          	li	a5,3
    2b40:	da5ff06f          	j	28e4 <core_state_transition+0x4c>
    2b44:	00300793          	li	a5,3
    2b48:	00168693          	addi	a3,a3,1
    2b4c:	d99ff06f          	j	28e4 <core_state_transition+0x4c>
    2b50:	00700793          	li	a5,7
    2b54:	d91ff06f          	j	28e4 <core_state_transition+0x4c>
    2b58:	00700793          	li	a5,7
    2b5c:	00168693          	addi	a3,a3,1
    2b60:	d85ff06f          	j	28e4 <core_state_transition+0x4c>
    2b64:	00600793          	li	a5,6
    2b68:	00168693          	addi	a3,a3,1
    2b6c:	d79ff06f          	j	28e4 <core_state_transition+0x4c>
    2b70:	00078693          	mv	a3,a5
    2b74:	00168693          	addi	a3,a3,1
    2b78:	00200793          	li	a5,2
    2b7c:	d69ff06f          	j	28e4 <core_state_transition+0x4c>
    2b80:	00078693          	mv	a3,a5
    2b84:	00200793          	li	a5,2
    2b88:	d5dff06f          	j	28e4 <core_state_transition+0x4c>

00002b8c <core_bench_state>:
    2b8c:	f8010113          	addi	sp,sp,-128
    2b90:	06912a23          	sw	s1,116(sp)
    2b94:	07512223          	sw	s5,100(sp)
    2b98:	05712e23          	sw	s7,92(sp)
    2b9c:	05912a23          	sw	s9,84(sp)
    2ba0:	00078493          	mv	s1,a5
    2ba4:	00060c93          	mv	s9,a2
    2ba8:	000057b7          	lui	a5,0x5
    2bac:	00068b93          	mv	s7,a3
    2bb0:	00070a93          	mv	s5,a4
    2bb4:	06812c23          	sw	s0,120(sp)
    2bb8:	05a12823          	sw	s10,80(sp)
    2bbc:	00058413          	mv	s0,a1
    2bc0:	00048713          	mv	a4,s1
    2bc4:	00050d13          	mv	s10,a0
    2bc8:	000a8693          	mv	a3,s5
    2bcc:	a2478513          	addi	a0,a5,-1500 # 4a24 <errpat+0x7c8>
    2bd0:	000b8613          	mv	a2,s7
    2bd4:	000c8593          	mv	a1,s9
    2bd8:	07212823          	sw	s2,112(sp)
    2bdc:	07312623          	sw	s3,108(sp)
    2be0:	07412423          	sw	s4,104(sp)
    2be4:	01010993          	addi	s3,sp,16
    2be8:	06112e23          	sw	ra,124(sp)
    2bec:	05812c23          	sw	s8,88(sp)
    2bf0:	00812623          	sw	s0,12(sp)
    2bf4:	03010a13          	addi	s4,sp,48
    2bf8:	a4dfd0ef          	jal	644 <printf>
    2bfc:	000a0793          	mv	a5,s4
    2c00:	00098913          	mv	s2,s3
    2c04:	00098713          	mv	a4,s3
    2c08:	0007a023          	sw	zero,0(a5)
    2c0c:	00072023          	sw	zero,0(a4)
    2c10:	00478793          	addi	a5,a5,4
    2c14:	05010693          	addi	a3,sp,80
    2c18:	00470713          	addi	a4,a4,4
    2c1c:	fed796e3          	bne	a5,a3,2c08 <core_bench_state+0x7c>
    2c20:	00044703          	lbu	a4,0(s0)
    2c24:	000057b7          	lui	a5,0x5
    2c28:	a4078c13          	addi	s8,a5,-1472 # 4a40 <errpat+0x7e4>
    2c2c:	02070e63          	beqz	a4,2c68 <core_bench_state+0xdc>
    2c30:	03010593          	addi	a1,sp,48
    2c34:	00c10513          	addi	a0,sp,12
    2c38:	c61ff0ef          	jal	2898 <core_state_transition>
    2c3c:	00251693          	slli	a3,a0,0x2
    2c40:	00d986b3          	add	a3,s3,a3
    2c44:	0006a783          	lw	a5,0(a3)
    2c48:	00050593          	mv	a1,a0
    2c4c:	000c0513          	mv	a0,s8
    2c50:	00178793          	addi	a5,a5,1
    2c54:	00f6a023          	sw	a5,0(a3)
    2c58:	9edfd0ef          	jal	644 <printf>
    2c5c:	00c12783          	lw	a5,12(sp)
    2c60:	0007c783          	lbu	a5,0(a5)
    2c64:	fc0796e3          	bnez	a5,2c30 <core_bench_state+0xa4>
    2c68:	00004c37          	lui	s8,0x4
    2c6c:	708c0513          	addi	a0,s8,1800 # 4708 <errpat+0x4ac>
    2c70:	9d5fd0ef          	jal	644 <printf>
    2c74:	01a40d33          	add	s10,s0,s10
    2c78:	00040793          	mv	a5,s0
    2c7c:	02c00613          	li	a2,44
    2c80:	0fa47863          	bgeu	s0,s10,2d70 <core_bench_state+0x1e4>
    2c84:	0007c703          	lbu	a4,0(a5)
    2c88:	019746b3          	xor	a3,a4,s9
    2c8c:	00c70463          	beq	a4,a2,2c94 <core_bench_state+0x108>
    2c90:	00d78023          	sb	a3,0(a5)
    2c94:	015787b3          	add	a5,a5,s5
    2c98:	ffa7e6e3          	bltu	a5,s10,2c84 <core_bench_state+0xf8>
    2c9c:	00044783          	lbu	a5,0(s0)
    2ca0:	00812623          	sw	s0,12(sp)
    2ca4:	0e078263          	beqz	a5,2d88 <core_bench_state+0x1fc>
    2ca8:	000057b7          	lui	a5,0x5
    2cac:	a4078c93          	addi	s9,a5,-1472 # 4a40 <errpat+0x7e4>
    2cb0:	03010593          	addi	a1,sp,48
    2cb4:	00c10513          	addi	a0,sp,12
    2cb8:	be1ff0ef          	jal	2898 <core_state_transition>
    2cbc:	00251693          	slli	a3,a0,0x2
    2cc0:	00d986b3          	add	a3,s3,a3
    2cc4:	0006a783          	lw	a5,0(a3)
    2cc8:	00050593          	mv	a1,a0
    2ccc:	000c8513          	mv	a0,s9
    2cd0:	00178793          	addi	a5,a5,1
    2cd4:	00f6a023          	sw	a5,0(a3)
    2cd8:	96dfd0ef          	jal	644 <printf>
    2cdc:	00c12783          	lw	a5,12(sp)
    2ce0:	0007c783          	lbu	a5,0(a5)
    2ce4:	fc0796e3          	bnez	a5,2cb0 <core_bench_state+0x124>
    2ce8:	708c0513          	addi	a0,s8,1800
    2cec:	959fd0ef          	jal	644 <printf>
    2cf0:	03a47063          	bgeu	s0,s10,2d10 <core_bench_state+0x184>
    2cf4:	02c00693          	li	a3,44
    2cf8:	00044783          	lbu	a5,0(s0)
    2cfc:	0177c733          	xor	a4,a5,s7
    2d00:	00d78463          	beq	a5,a3,2d08 <core_bench_state+0x17c>
    2d04:	00e40023          	sb	a4,0(s0)
    2d08:	01540433          	add	s0,s0,s5
    2d0c:	ffa466e3          	bltu	s0,s10,2cf8 <core_bench_state+0x16c>
    2d10:	02098993          	addi	s3,s3,32
    2d14:	00092503          	lw	a0,0(s2) # fffff000 <_stack_end+0xffeef000>
    2d18:	00048593          	mv	a1,s1
    2d1c:	00490913          	addi	s2,s2,4
    2d20:	430000ef          	jal	3150 <crcu32>
    2d24:	00050593          	mv	a1,a0
    2d28:	000a2503          	lw	a0,0(s4)
    2d2c:	004a0a13          	addi	s4,s4,4
    2d30:	420000ef          	jal	3150 <crcu32>
    2d34:	00050493          	mv	s1,a0
    2d38:	fd299ee3          	bne	s3,s2,2d14 <core_bench_state+0x188>
    2d3c:	07c12083          	lw	ra,124(sp)
    2d40:	07812403          	lw	s0,120(sp)
    2d44:	07412483          	lw	s1,116(sp)
    2d48:	07012903          	lw	s2,112(sp)
    2d4c:	06c12983          	lw	s3,108(sp)
    2d50:	06812a03          	lw	s4,104(sp)
    2d54:	06412a83          	lw	s5,100(sp)
    2d58:	05c12b83          	lw	s7,92(sp)
    2d5c:	05812c03          	lw	s8,88(sp)
    2d60:	05412c83          	lw	s9,84(sp)
    2d64:	05012d03          	lw	s10,80(sp)
    2d68:	08010113          	addi	sp,sp,128
    2d6c:	00008067          	ret
    2d70:	00044783          	lbu	a5,0(s0)
    2d74:	00812623          	sw	s0,12(sp)
    2d78:	f20798e3          	bnez	a5,2ca8 <core_bench_state+0x11c>
    2d7c:	708c0513          	addi	a0,s8,1800
    2d80:	8c5fd0ef          	jal	644 <printf>
    2d84:	f8dff06f          	j	2d10 <core_bench_state+0x184>
    2d88:	708c0513          	addi	a0,s8,1800
    2d8c:	8b9fd0ef          	jal	644 <printf>
    2d90:	f65ff06f          	j	2cf4 <core_bench_state+0x168>

00002d94 <get_seed_32>:
    2d94:	00500793          	li	a5,5
    2d98:	04a7ec63          	bltu	a5,a0,2df0 <get_seed_32+0x5c>
    2d9c:	000047b7          	lui	a5,0x4
    2da0:	26c78793          	addi	a5,a5,620 # 426c <errpat+0x10>
    2da4:	00251513          	slli	a0,a0,0x2
    2da8:	00f50533          	add	a0,a0,a5
    2dac:	00052783          	lw	a5,0(a0)
    2db0:	00078067          	jr	a5
    2db4:	001007b7          	lui	a5,0x100
    2db8:	0247a503          	lw	a0,36(a5) # 100024 <seed5_volatile>
    2dbc:	00008067          	ret
    2dc0:	001007b7          	lui	a5,0x100
    2dc4:	02c7a503          	lw	a0,44(a5) # 10002c <seed1_volatile>
    2dc8:	00008067          	ret
    2dcc:	001007b7          	lui	a5,0x100
    2dd0:	0287a503          	lw	a0,40(a5) # 100028 <seed2_volatile>
    2dd4:	00008067          	ret
    2dd8:	001007b7          	lui	a5,0x100
    2ddc:	0147a503          	lw	a0,20(a5) # 100014 <seed3_volatile>
    2de0:	00008067          	ret
    2de4:	001007b7          	lui	a5,0x100
    2de8:	0107a503          	lw	a0,16(a5) # 100010 <seed4_volatile>
    2dec:	00008067          	ret
    2df0:	00000513          	li	a0,0
    2df4:	00008067          	ret

00002df8 <crcu8>:
    2df8:	0ff5f713          	zext.b	a4,a1
    2dfc:	00871713          	slli	a4,a4,0x8
    2e00:	0085d593          	srli	a1,a1,0x8
    2e04:	000017b7          	lui	a5,0x1
    2e08:	fffff337          	lui	t1,0xfffff
    2e0c:	00b76733          	or	a4,a4,a1
    2e10:	f0f78793          	addi	a5,a5,-241 # f0f <printf+0x8cb>
    2e14:	0f030313          	addi	t1,t1,240 # fffff0f0 <_stack_end+0xffeef0f0>
    2e18:	00f77633          	and	a2,a4,a5
    2e1c:	00677733          	and	a4,a4,t1
    2e20:	00475713          	srli	a4,a4,0x4
    2e24:	00461613          	slli	a2,a2,0x4
    2e28:	00e66633          	or	a2,a2,a4
    2e2c:	ffffd8b7          	lui	a7,0xffffd
    2e30:	00003737          	lui	a4,0x3
    2e34:	33370713          	addi	a4,a4,819 # 3333 <crcu32+0x1e3>
    2e38:	ccc88893          	addi	a7,a7,-820 # ffffcccc <_stack_end+0xffeecccc>
    2e3c:	00f57693          	andi	a3,a0,15
    2e40:	00e675b3          	and	a1,a2,a4
    2e44:	00455513          	srli	a0,a0,0x4
    2e48:	01167633          	and	a2,a2,a7
    2e4c:	00469693          	slli	a3,a3,0x4
    2e50:	00a6e6b3          	or	a3,a3,a0
    2e54:	00265613          	srli	a2,a2,0x2
    2e58:	00259593          	slli	a1,a1,0x2
    2e5c:	00c5e5b3          	or	a1,a1,a2
    2e60:	00005537          	lui	a0,0x5
    2e64:	0336f613          	andi	a2,a3,51
    2e68:	ffffb837          	lui	a6,0xffffb
    2e6c:	0cc6f693          	andi	a3,a3,204
    2e70:	aaa80813          	addi	a6,a6,-1366 # ffffaaaa <_stack_end+0xffeeaaaa>
    2e74:	0026de13          	srli	t3,a3,0x2
    2e78:	55550513          	addi	a0,a0,1365 # 5555 <errpat+0x12f9>
    2e7c:	00261613          	slli	a2,a2,0x2
    2e80:	00a5f6b3          	and	a3,a1,a0
    2e84:	01c66633          	or	a2,a2,t3
    2e88:	0105f5b3          	and	a1,a1,a6
    2e8c:	0015d593          	srli	a1,a1,0x1
    2e90:	00169693          	slli	a3,a3,0x1
    2e94:	05567e93          	andi	t4,a2,85
    2e98:	0aa67613          	andi	a2,a2,170
    2e9c:	00b6ee33          	or	t3,a3,a1
    2ea0:	001e9e93          	slli	t4,t4,0x1
    2ea4:	00165613          	srli	a2,a2,0x1
    2ea8:	008e5e13          	srli	t3,t3,0x8
    2eac:	00cee633          	or	a2,t4,a2
    2eb0:	00ce4633          	xor	a2,t3,a2
    2eb4:	00004e37          	lui	t3,0x4
    2eb8:	284e0e13          	addi	t3,t3,644 # 4284 <errpat+0x28>
    2ebc:	00161613          	slli	a2,a2,0x1
    2ec0:	01c60633          	add	a2,a2,t3
    2ec4:	00065603          	lhu	a2,0(a2)
    2ec8:	00b6e6b3          	or	a3,a3,a1
    2ecc:	00869693          	slli	a3,a3,0x8
    2ed0:	00d646b3          	xor	a3,a2,a3
    2ed4:	01069593          	slli	a1,a3,0x10
    2ed8:	0ff67613          	zext.b	a2,a2
    2edc:	0185d693          	srli	a3,a1,0x18
    2ee0:	00861613          	slli	a2,a2,0x8
    2ee4:	00d66633          	or	a2,a2,a3
    2ee8:	00f676b3          	and	a3,a2,a5
    2eec:	00667633          	and	a2,a2,t1
    2ef0:	00465613          	srli	a2,a2,0x4
    2ef4:	00469693          	slli	a3,a3,0x4
    2ef8:	00c6e6b3          	or	a3,a3,a2
    2efc:	00e6f7b3          	and	a5,a3,a4
    2f00:	0116f6b3          	and	a3,a3,a7
    2f04:	0026d693          	srli	a3,a3,0x2
    2f08:	00279793          	slli	a5,a5,0x2
    2f0c:	00d7e7b3          	or	a5,a5,a3
    2f10:	00a7f533          	and	a0,a5,a0
    2f14:	0107f7b3          	and	a5,a5,a6
    2f18:	0017d793          	srli	a5,a5,0x1
    2f1c:	00151513          	slli	a0,a0,0x1
    2f20:	00f56533          	or	a0,a0,a5
    2f24:	00008067          	ret

00002f28 <crcu16>:
    2f28:	0ff5f793          	zext.b	a5,a1
    2f2c:	00879793          	slli	a5,a5,0x8
    2f30:	0085d593          	srli	a1,a1,0x8
    2f34:	00001737          	lui	a4,0x1
    2f38:	fffff337          	lui	t1,0xfffff
    2f3c:	0f030313          	addi	t1,t1,240 # fffff0f0 <_stack_end+0xffeef0f0>
    2f40:	f0f70713          	addi	a4,a4,-241 # f0f <printf+0x8cb>
    2f44:	00b7e7b3          	or	a5,a5,a1
    2f48:	00e7f5b3          	and	a1,a5,a4
    2f4c:	0067f7b3          	and	a5,a5,t1
    2f50:	0047d793          	srli	a5,a5,0x4
    2f54:	00459593          	slli	a1,a1,0x4
    2f58:	00f5e5b3          	or	a1,a1,a5
    2f5c:	ffffd8b7          	lui	a7,0xffffd
    2f60:	000037b7          	lui	a5,0x3
    2f64:	ccc88893          	addi	a7,a7,-820 # ffffcccc <_stack_end+0xffeecccc>
    2f68:	33378793          	addi	a5,a5,819 # 3333 <crcu32+0x1e3>
    2f6c:	00f57693          	andi	a3,a0,15
    2f70:	0f057813          	andi	a6,a0,240
    2f74:	00f5f633          	and	a2,a1,a5
    2f78:	00485813          	srli	a6,a6,0x4
    2f7c:	0115f5b3          	and	a1,a1,a7
    2f80:	00469693          	slli	a3,a3,0x4
    2f84:	0106e6b3          	or	a3,a3,a6
    2f88:	0025d593          	srli	a1,a1,0x2
    2f8c:	00261613          	slli	a2,a2,0x2
    2f90:	00b66633          	or	a2,a2,a1
    2f94:	0336fe13          	andi	t3,a3,51
    2f98:	000055b7          	lui	a1,0x5
    2f9c:	0cc6f693          	andi	a3,a3,204
    2fa0:	ffffb837          	lui	a6,0xffffb
    2fa4:	55558593          	addi	a1,a1,1365 # 5555 <errpat+0x12f9>
    2fa8:	aaa80813          	addi	a6,a6,-1366 # ffffaaaa <_stack_end+0xffeeaaaa>
    2fac:	0026de93          	srli	t4,a3,0x2
    2fb0:	002e1e13          	slli	t3,t3,0x2
    2fb4:	00b676b3          	and	a3,a2,a1
    2fb8:	01de6e33          	or	t3,t3,t4
    2fbc:	01067633          	and	a2,a2,a6
    2fc0:	00169693          	slli	a3,a3,0x1
    2fc4:	00165613          	srli	a2,a2,0x1
    2fc8:	055e7f13          	andi	t5,t3,85
    2fcc:	0aae7e13          	andi	t3,t3,170
    2fd0:	00c6eeb3          	or	t4,a3,a2
    2fd4:	001f1f13          	slli	t5,t5,0x1
    2fd8:	001e5e13          	srli	t3,t3,0x1
    2fdc:	01cf6e33          	or	t3,t5,t3
    2fe0:	008ede93          	srli	t4,t4,0x8
    2fe4:	01ceceb3          	xor	t4,t4,t3
    2fe8:	00004e37          	lui	t3,0x4
    2fec:	284e0e13          	addi	t3,t3,644 # 4284 <errpat+0x28>
    2ff0:	00c6e633          	or	a2,a3,a2
    2ff4:	001e9693          	slli	a3,t4,0x1
    2ff8:	01c686b3          	add	a3,a3,t3
    2ffc:	0006d683          	lhu	a3,0(a3)
    3000:	00861613          	slli	a2,a2,0x8
    3004:	00855513          	srli	a0,a0,0x8
    3008:	00c6c633          	xor	a2,a3,a2
    300c:	01061e93          	slli	t4,a2,0x10
    3010:	0ff6f693          	zext.b	a3,a3
    3014:	018ed613          	srli	a2,t4,0x18
    3018:	00869693          	slli	a3,a3,0x8
    301c:	00c6e6b3          	or	a3,a3,a2
    3020:	00e6f633          	and	a2,a3,a4
    3024:	0066f6b3          	and	a3,a3,t1
    3028:	0046d693          	srli	a3,a3,0x4
    302c:	00461613          	slli	a2,a2,0x4
    3030:	00d66633          	or	a2,a2,a3
    3034:	00f676b3          	and	a3,a2,a5
    3038:	01167633          	and	a2,a2,a7
    303c:	00265613          	srli	a2,a2,0x2
    3040:	00269693          	slli	a3,a3,0x2
    3044:	00c6e6b3          	or	a3,a3,a2
    3048:	00b6f633          	and	a2,a3,a1
    304c:	0106f6b3          	and	a3,a3,a6
    3050:	00161613          	slli	a2,a2,0x1
    3054:	0016d693          	srli	a3,a3,0x1
    3058:	00d666b3          	or	a3,a2,a3
    305c:	0ff6f613          	zext.b	a2,a3
    3060:	00861613          	slli	a2,a2,0x8
    3064:	0086d693          	srli	a3,a3,0x8
    3068:	00d66633          	or	a2,a2,a3
    306c:	00e676b3          	and	a3,a2,a4
    3070:	00667eb3          	and	t4,a2,t1
    3074:	004ede93          	srli	t4,t4,0x4
    3078:	00f57613          	andi	a2,a0,15
    307c:	00469693          	slli	a3,a3,0x4
    3080:	01d6e6b3          	or	a3,a3,t4
    3084:	00455513          	srli	a0,a0,0x4
    3088:	00461613          	slli	a2,a2,0x4
    308c:	00a66633          	or	a2,a2,a0
    3090:	0116feb3          	and	t4,a3,a7
    3094:	00f6f533          	and	a0,a3,a5
    3098:	002ede93          	srli	t4,t4,0x2
    309c:	03367693          	andi	a3,a2,51
    30a0:	00251513          	slli	a0,a0,0x2
    30a4:	0cc67613          	andi	a2,a2,204
    30a8:	01d56533          	or	a0,a0,t4
    30ac:	00265613          	srli	a2,a2,0x2
    30b0:	00269693          	slli	a3,a3,0x2
    30b4:	00c6e6b3          	or	a3,a3,a2
    30b8:	00b57633          	and	a2,a0,a1
    30bc:	01057533          	and	a0,a0,a6
    30c0:	0556ff13          	andi	t5,a3,85
    30c4:	00161613          	slli	a2,a2,0x1
    30c8:	00155513          	srli	a0,a0,0x1
    30cc:	0aa6f693          	andi	a3,a3,170
    30d0:	00a66eb3          	or	t4,a2,a0
    30d4:	0016d693          	srli	a3,a3,0x1
    30d8:	001f1f13          	slli	t5,t5,0x1
    30dc:	00df6f33          	or	t5,t5,a3
    30e0:	008ed693          	srli	a3,t4,0x8
    30e4:	01e6c6b3          	xor	a3,a3,t5
    30e8:	00169693          	slli	a3,a3,0x1
    30ec:	01c686b3          	add	a3,a3,t3
    30f0:	0006d683          	lhu	a3,0(a3)
    30f4:	008e9613          	slli	a2,t4,0x8
    30f8:	00c6c633          	xor	a2,a3,a2
    30fc:	01061513          	slli	a0,a2,0x10
    3100:	0ff6f693          	zext.b	a3,a3
    3104:	01855613          	srli	a2,a0,0x18
    3108:	00869693          	slli	a3,a3,0x8
    310c:	00c6e6b3          	or	a3,a3,a2
    3110:	00e6f733          	and	a4,a3,a4
    3114:	0066f6b3          	and	a3,a3,t1
    3118:	0046d693          	srli	a3,a3,0x4
    311c:	00471713          	slli	a4,a4,0x4
    3120:	00d76733          	or	a4,a4,a3
    3124:	00f777b3          	and	a5,a4,a5
    3128:	01177733          	and	a4,a4,a7
    312c:	00275713          	srli	a4,a4,0x2
    3130:	00279793          	slli	a5,a5,0x2
    3134:	00e7e7b3          	or	a5,a5,a4
    3138:	00b7f533          	and	a0,a5,a1
    313c:	0107f7b3          	and	a5,a5,a6
    3140:	0017d793          	srli	a5,a5,0x1
    3144:	00151513          	slli	a0,a0,0x1
    3148:	00f56533          	or	a0,a0,a5
    314c:	00008067          	ret

00003150 <crcu32>:
    3150:	0ff5f793          	zext.b	a5,a1
    3154:	00879793          	slli	a5,a5,0x8
    3158:	0085d593          	srli	a1,a1,0x8
    315c:	00001737          	lui	a4,0x1
    3160:	fffff8b7          	lui	a7,0xfffff
    3164:	0f088893          	addi	a7,a7,240 # fffff0f0 <_stack_end+0xffeef0f0>
    3168:	f0f70713          	addi	a4,a4,-241 # f0f <printf+0x8cb>
    316c:	00b7e7b3          	or	a5,a5,a1
    3170:	00e7f6b3          	and	a3,a5,a4
    3174:	0117f7b3          	and	a5,a5,a7
    3178:	0047d793          	srli	a5,a5,0x4
    317c:	00469693          	slli	a3,a3,0x4
    3180:	00f6e6b3          	or	a3,a3,a5
    3184:	ffffd837          	lui	a6,0xffffd
    3188:	000037b7          	lui	a5,0x3
    318c:	ccc80813          	addi	a6,a6,-820 # ffffcccc <_stack_end+0xffeecccc>
    3190:	33378793          	addi	a5,a5,819 # 3333 <crcu32+0x1e3>
    3194:	00f57613          	andi	a2,a0,15
    3198:	0f057593          	andi	a1,a0,240
    319c:	00f6f333          	and	t1,a3,a5
    31a0:	0045d593          	srli	a1,a1,0x4
    31a4:	0106f6b3          	and	a3,a3,a6
    31a8:	00461613          	slli	a2,a2,0x4
    31ac:	00b66633          	or	a2,a2,a1
    31b0:	0026d693          	srli	a3,a3,0x2
    31b4:	00231313          	slli	t1,t1,0x2
    31b8:	00d36333          	or	t1,t1,a3
    31bc:	03367e13          	andi	t3,a2,51
    31c0:	000056b7          	lui	a3,0x5
    31c4:	0cc67613          	andi	a2,a2,204
    31c8:	ffffb5b7          	lui	a1,0xffffb
    31cc:	55568693          	addi	a3,a3,1365 # 5555 <errpat+0x12f9>
    31d0:	aaa58593          	addi	a1,a1,-1366 # ffffaaaa <_stack_end+0xffeeaaaa>
    31d4:	00265e93          	srli	t4,a2,0x2
    31d8:	002e1e13          	slli	t3,t3,0x2
    31dc:	00d37633          	and	a2,t1,a3
    31e0:	01de6e33          	or	t3,t3,t4
    31e4:	00b37333          	and	t1,t1,a1
    31e8:	00161613          	slli	a2,a2,0x1
    31ec:	00135313          	srli	t1,t1,0x1
    31f0:	055e7f13          	andi	t5,t3,85
    31f4:	0aae7e13          	andi	t3,t3,170
    31f8:	00666eb3          	or	t4,a2,t1
    31fc:	001f1f13          	slli	t5,t5,0x1
    3200:	001e5e13          	srli	t3,t3,0x1
    3204:	01cf6e33          	or	t3,t5,t3
    3208:	008ede93          	srli	t4,t4,0x8
    320c:	01ceceb3          	xor	t4,t4,t3
    3210:	00666e33          	or	t3,a2,t1
    3214:	00004337          	lui	t1,0x4
    3218:	28430313          	addi	t1,t1,644 # 4284 <errpat+0x28>
    321c:	001e9613          	slli	a2,t4,0x1
    3220:	00660633          	add	a2,a2,t1
    3224:	00065603          	lhu	a2,0(a2)
    3228:	008e1e13          	slli	t3,t3,0x8
    322c:	00855f13          	srli	t5,a0,0x8
    3230:	01c64e33          	xor	t3,a2,t3
    3234:	010e1e93          	slli	t4,t3,0x10
    3238:	0ff67613          	zext.b	a2,a2
    323c:	018ede13          	srli	t3,t4,0x18
    3240:	00861613          	slli	a2,a2,0x8
    3244:	01c66633          	or	a2,a2,t3
    3248:	00e67e33          	and	t3,a2,a4
    324c:	01167633          	and	a2,a2,a7
    3250:	00465613          	srli	a2,a2,0x4
    3254:	004e1e13          	slli	t3,t3,0x4
    3258:	00ce6e33          	or	t3,t3,a2
    325c:	00fe7633          	and	a2,t3,a5
    3260:	010e7e33          	and	t3,t3,a6
    3264:	002e5e13          	srli	t3,t3,0x2
    3268:	00261613          	slli	a2,a2,0x2
    326c:	01c66633          	or	a2,a2,t3
    3270:	00d67e33          	and	t3,a2,a3
    3274:	00b67633          	and	a2,a2,a1
    3278:	00165613          	srli	a2,a2,0x1
    327c:	001e1e13          	slli	t3,t3,0x1
    3280:	00ce6e33          	or	t3,t3,a2
    3284:	0ffe7613          	zext.b	a2,t3
    3288:	00861613          	slli	a2,a2,0x8
    328c:	008e5e13          	srli	t3,t3,0x8
    3290:	01c66633          	or	a2,a2,t3
    3294:	00e67eb3          	and	t4,a2,a4
    3298:	01167633          	and	a2,a2,a7
    329c:	00465613          	srli	a2,a2,0x4
    32a0:	004e9e93          	slli	t4,t4,0x4
    32a4:	00ceeeb3          	or	t4,t4,a2
    32a8:	00ff7613          	andi	a2,t5,15
    32ac:	0f0f7f13          	andi	t5,t5,240
    32b0:	00fefe33          	and	t3,t4,a5
    32b4:	004f5f13          	srli	t5,t5,0x4
    32b8:	010efeb3          	and	t4,t4,a6
    32bc:	00461613          	slli	a2,a2,0x4
    32c0:	01e66633          	or	a2,a2,t5
    32c4:	002ede93          	srli	t4,t4,0x2
    32c8:	002e1e13          	slli	t3,t3,0x2
    32cc:	01de6e33          	or	t3,t3,t4
    32d0:	03367e93          	andi	t4,a2,51
    32d4:	0cc67613          	andi	a2,a2,204
    32d8:	00265f13          	srli	t5,a2,0x2
    32dc:	002e9e93          	slli	t4,t4,0x2
    32e0:	00de7633          	and	a2,t3,a3
    32e4:	01eeeeb3          	or	t4,t4,t5
    32e8:	00be7e33          	and	t3,t3,a1
    32ec:	00161613          	slli	a2,a2,0x1
    32f0:	001e5e13          	srli	t3,t3,0x1
    32f4:	055eff93          	andi	t6,t4,85
    32f8:	0aaefe93          	andi	t4,t4,170
    32fc:	01c66f33          	or	t5,a2,t3
    3300:	001f9f93          	slli	t6,t6,0x1
    3304:	001ede93          	srli	t4,t4,0x1
    3308:	008f5f13          	srli	t5,t5,0x8
    330c:	01dfeeb3          	or	t4,t6,t4
    3310:	01df4eb3          	xor	t4,t5,t4
    3314:	01c66e33          	or	t3,a2,t3
    3318:	001e9613          	slli	a2,t4,0x1
    331c:	00660633          	add	a2,a2,t1
    3320:	00065603          	lhu	a2,0(a2)
    3324:	008e1e13          	slli	t3,t3,0x8
    3328:	01055e93          	srli	t4,a0,0x10
    332c:	01c64e33          	xor	t3,a2,t3
    3330:	010e1f13          	slli	t5,t3,0x10
    3334:	0ff67613          	zext.b	a2,a2
    3338:	018f5e13          	srli	t3,t5,0x18
    333c:	00861613          	slli	a2,a2,0x8
    3340:	01c66633          	or	a2,a2,t3
    3344:	00e67e33          	and	t3,a2,a4
    3348:	01167633          	and	a2,a2,a7
    334c:	00465613          	srli	a2,a2,0x4
    3350:	004e1e13          	slli	t3,t3,0x4
    3354:	00ce6e33          	or	t3,t3,a2
    3358:	00fe7633          	and	a2,t3,a5
    335c:	010e7e33          	and	t3,t3,a6
    3360:	002e5e13          	srli	t3,t3,0x2
    3364:	00261613          	slli	a2,a2,0x2
    3368:	01c66633          	or	a2,a2,t3
    336c:	00d67e33          	and	t3,a2,a3
    3370:	00b67633          	and	a2,a2,a1
    3374:	001e1e13          	slli	t3,t3,0x1
    3378:	00165613          	srli	a2,a2,0x1
    337c:	00ce6633          	or	a2,t3,a2
    3380:	0ff67e13          	zext.b	t3,a2
    3384:	008e1e13          	slli	t3,t3,0x8
    3388:	00865613          	srli	a2,a2,0x8
    338c:	00ce6e33          	or	t3,t3,a2
    3390:	00ee7633          	and	a2,t3,a4
    3394:	011e7e33          	and	t3,t3,a7
    3398:	004e5e13          	srli	t3,t3,0x4
    339c:	00461613          	slli	a2,a2,0x4
    33a0:	01c66633          	or	a2,a2,t3
    33a4:	00fefe13          	andi	t3,t4,15
    33a8:	0f0efe93          	andi	t4,t4,240
    33ac:	004edf13          	srli	t5,t4,0x4
    33b0:	004e1e13          	slli	t3,t3,0x4
    33b4:	00f67eb3          	and	t4,a2,a5
    33b8:	01067633          	and	a2,a2,a6
    33bc:	01ee6e33          	or	t3,t3,t5
    33c0:	00265613          	srli	a2,a2,0x2
    33c4:	002e9e93          	slli	t4,t4,0x2
    33c8:	00ceeeb3          	or	t4,t4,a2
    33cc:	033e7613          	andi	a2,t3,51
    33d0:	0cce7e13          	andi	t3,t3,204
    33d4:	002e5f13          	srli	t5,t3,0x2
    33d8:	00261613          	slli	a2,a2,0x2
    33dc:	00defe33          	and	t3,t4,a3
    33e0:	01e66633          	or	a2,a2,t5
    33e4:	00befeb3          	and	t4,t4,a1
    33e8:	001ede93          	srli	t4,t4,0x1
    33ec:	001e1e13          	slli	t3,t3,0x1
    33f0:	05567f93          	andi	t6,a2,85
    33f4:	0aa67613          	andi	a2,a2,170
    33f8:	01de6f33          	or	t5,t3,t4
    33fc:	001f9f93          	slli	t6,t6,0x1
    3400:	00165613          	srli	a2,a2,0x1
    3404:	008f5f13          	srli	t5,t5,0x8
    3408:	00cfe633          	or	a2,t6,a2
    340c:	00cf4633          	xor	a2,t5,a2
    3410:	00161613          	slli	a2,a2,0x1
    3414:	00660633          	add	a2,a2,t1
    3418:	00065603          	lhu	a2,0(a2)
    341c:	01de6e33          	or	t3,t3,t4
    3420:	008e1e13          	slli	t3,t3,0x8
    3424:	01c64e33          	xor	t3,a2,t3
    3428:	010e1e93          	slli	t4,t3,0x10
    342c:	0ff67613          	zext.b	a2,a2
    3430:	018ede13          	srli	t3,t4,0x18
    3434:	00861613          	slli	a2,a2,0x8
    3438:	01c66633          	or	a2,a2,t3
    343c:	00e67e33          	and	t3,a2,a4
    3440:	01167633          	and	a2,a2,a7
    3444:	00465613          	srli	a2,a2,0x4
    3448:	004e1e13          	slli	t3,t3,0x4
    344c:	00ce6e33          	or	t3,t3,a2
    3450:	00fe7633          	and	a2,t3,a5
    3454:	010e7e33          	and	t3,t3,a6
    3458:	002e5e13          	srli	t3,t3,0x2
    345c:	00261613          	slli	a2,a2,0x2
    3460:	01c66633          	or	a2,a2,t3
    3464:	00d67e33          	and	t3,a2,a3
    3468:	00b67633          	and	a2,a2,a1
    346c:	00165613          	srli	a2,a2,0x1
    3470:	001e1e13          	slli	t3,t3,0x1
    3474:	00ce6e33          	or	t3,t3,a2
    3478:	0ffe7613          	zext.b	a2,t3
    347c:	00861613          	slli	a2,a2,0x8
    3480:	008e5e13          	srli	t3,t3,0x8
    3484:	01c66633          	or	a2,a2,t3
    3488:	00e67eb3          	and	t4,a2,a4
    348c:	01167e33          	and	t3,a2,a7
    3490:	01855513          	srli	a0,a0,0x18
    3494:	00f57613          	andi	a2,a0,15
    3498:	004e5e13          	srli	t3,t3,0x4
    349c:	004e9e93          	slli	t4,t4,0x4
    34a0:	00461613          	slli	a2,a2,0x4
    34a4:	01ceeeb3          	or	t4,t4,t3
    34a8:	00455513          	srli	a0,a0,0x4
    34ac:	00fefe33          	and	t3,t4,a5
    34b0:	00a66533          	or	a0,a2,a0
    34b4:	010efeb3          	and	t4,t4,a6
    34b8:	03357613          	andi	a2,a0,51
    34bc:	002ede93          	srli	t4,t4,0x2
    34c0:	0cc57513          	andi	a0,a0,204
    34c4:	002e1e13          	slli	t3,t3,0x2
    34c8:	01de6e33          	or	t3,t3,t4
    34cc:	00255513          	srli	a0,a0,0x2
    34d0:	00261613          	slli	a2,a2,0x2
    34d4:	00a66633          	or	a2,a2,a0
    34d8:	00de7533          	and	a0,t3,a3
    34dc:	00be7e33          	and	t3,t3,a1
    34e0:	05567f13          	andi	t5,a2,85
    34e4:	00151513          	slli	a0,a0,0x1
    34e8:	001e5e13          	srli	t3,t3,0x1
    34ec:	0aa67613          	andi	a2,a2,170
    34f0:	01c56eb3          	or	t4,a0,t3
    34f4:	00165613          	srli	a2,a2,0x1
    34f8:	001f1f13          	slli	t5,t5,0x1
    34fc:	00cf6f33          	or	t5,t5,a2
    3500:	008ed613          	srli	a2,t4,0x8
    3504:	01e64633          	xor	a2,a2,t5
    3508:	00161613          	slli	a2,a2,0x1
    350c:	00660633          	add	a2,a2,t1
    3510:	00065603          	lhu	a2,0(a2)
    3514:	008e9513          	slli	a0,t4,0x8
    3518:	00a64533          	xor	a0,a2,a0
    351c:	01051313          	slli	t1,a0,0x10
    3520:	0ff67613          	zext.b	a2,a2
    3524:	01835513          	srli	a0,t1,0x18
    3528:	00861613          	slli	a2,a2,0x8
    352c:	00a66633          	or	a2,a2,a0
    3530:	00e67733          	and	a4,a2,a4
    3534:	01167633          	and	a2,a2,a7
    3538:	00465613          	srli	a2,a2,0x4
    353c:	00471713          	slli	a4,a4,0x4
    3540:	00c76733          	or	a4,a4,a2
    3544:	00f777b3          	and	a5,a4,a5
    3548:	01077733          	and	a4,a4,a6
    354c:	00275713          	srli	a4,a4,0x2
    3550:	00279793          	slli	a5,a5,0x2
    3554:	00e7e7b3          	or	a5,a5,a4
    3558:	00d7f533          	and	a0,a5,a3
    355c:	00b7f7b3          	and	a5,a5,a1
    3560:	0017d793          	srli	a5,a5,0x1
    3564:	00151513          	slli	a0,a0,0x1
    3568:	00f56533          	or	a0,a0,a5
    356c:	00008067          	ret

00003570 <crc16>:
    3570:	0ff5f793          	zext.b	a5,a1
    3574:	00879793          	slli	a5,a5,0x8
    3578:	0085d593          	srli	a1,a1,0x8
    357c:	00001737          	lui	a4,0x1
    3580:	fffff337          	lui	t1,0xfffff
    3584:	0f030313          	addi	t1,t1,240 # fffff0f0 <_stack_end+0xffeef0f0>
    3588:	f0f70713          	addi	a4,a4,-241 # f0f <printf+0x8cb>
    358c:	00b7e7b3          	or	a5,a5,a1
    3590:	00e7f5b3          	and	a1,a5,a4
    3594:	0067f7b3          	and	a5,a5,t1
    3598:	0047d793          	srli	a5,a5,0x4
    359c:	00459593          	slli	a1,a1,0x4
    35a0:	00f5e5b3          	or	a1,a1,a5
    35a4:	ffffd8b7          	lui	a7,0xffffd
    35a8:	000037b7          	lui	a5,0x3
    35ac:	ccc88893          	addi	a7,a7,-820 # ffffcccc <_stack_end+0xffeecccc>
    35b0:	33378793          	addi	a5,a5,819 # 3333 <crcu32+0x1e3>
    35b4:	00f57693          	andi	a3,a0,15
    35b8:	0f057813          	andi	a6,a0,240
    35bc:	00f5f633          	and	a2,a1,a5
    35c0:	00485813          	srli	a6,a6,0x4
    35c4:	0115f5b3          	and	a1,a1,a7
    35c8:	00469693          	slli	a3,a3,0x4
    35cc:	0106e6b3          	or	a3,a3,a6
    35d0:	0025d593          	srli	a1,a1,0x2
    35d4:	00261613          	slli	a2,a2,0x2
    35d8:	00b66633          	or	a2,a2,a1
    35dc:	0336fe13          	andi	t3,a3,51
    35e0:	000055b7          	lui	a1,0x5
    35e4:	0cc6f693          	andi	a3,a3,204
    35e8:	ffffb837          	lui	a6,0xffffb
    35ec:	55558593          	addi	a1,a1,1365 # 5555 <errpat+0x12f9>
    35f0:	aaa80813          	addi	a6,a6,-1366 # ffffaaaa <_stack_end+0xffeeaaaa>
    35f4:	0026de93          	srli	t4,a3,0x2
    35f8:	002e1e13          	slli	t3,t3,0x2
    35fc:	00b676b3          	and	a3,a2,a1
    3600:	01de6e33          	or	t3,t3,t4
    3604:	01067633          	and	a2,a2,a6
    3608:	00169693          	slli	a3,a3,0x1
    360c:	00165613          	srli	a2,a2,0x1
    3610:	055e7f13          	andi	t5,t3,85
    3614:	0aae7e13          	andi	t3,t3,170
    3618:	00c6eeb3          	or	t4,a3,a2
    361c:	001f1f13          	slli	t5,t5,0x1
    3620:	001e5e13          	srli	t3,t3,0x1
    3624:	01cf6e33          	or	t3,t5,t3
    3628:	008ede93          	srli	t4,t4,0x8
    362c:	01ceceb3          	xor	t4,t4,t3
    3630:	00004e37          	lui	t3,0x4
    3634:	284e0e13          	addi	t3,t3,644 # 4284 <errpat+0x28>
    3638:	00c6e633          	or	a2,a3,a2
    363c:	001e9693          	slli	a3,t4,0x1
    3640:	01c686b3          	add	a3,a3,t3
    3644:	0006d683          	lhu	a3,0(a3)
    3648:	00861613          	slli	a2,a2,0x8
    364c:	00855513          	srli	a0,a0,0x8
    3650:	00c6c633          	xor	a2,a3,a2
    3654:	01061e93          	slli	t4,a2,0x10
    3658:	0ff6f693          	zext.b	a3,a3
    365c:	018ed613          	srli	a2,t4,0x18
    3660:	00869693          	slli	a3,a3,0x8
    3664:	00c6e6b3          	or	a3,a3,a2
    3668:	00e6f633          	and	a2,a3,a4
    366c:	0066f6b3          	and	a3,a3,t1
    3670:	0046d693          	srli	a3,a3,0x4
    3674:	00461613          	slli	a2,a2,0x4
    3678:	00d66633          	or	a2,a2,a3
    367c:	00f676b3          	and	a3,a2,a5
    3680:	01167633          	and	a2,a2,a7
    3684:	00265613          	srli	a2,a2,0x2
    3688:	00269693          	slli	a3,a3,0x2
    368c:	00c6e6b3          	or	a3,a3,a2
    3690:	00b6f633          	and	a2,a3,a1
    3694:	0106f6b3          	and	a3,a3,a6
    3698:	00161613          	slli	a2,a2,0x1
    369c:	0016d693          	srli	a3,a3,0x1
    36a0:	00d666b3          	or	a3,a2,a3
    36a4:	0ff6f613          	zext.b	a2,a3
    36a8:	00861613          	slli	a2,a2,0x8
    36ac:	0086d693          	srli	a3,a3,0x8
    36b0:	00d66633          	or	a2,a2,a3
    36b4:	00e676b3          	and	a3,a2,a4
    36b8:	00667eb3          	and	t4,a2,t1
    36bc:	004ede93          	srli	t4,t4,0x4
    36c0:	00f57613          	andi	a2,a0,15
    36c4:	00469693          	slli	a3,a3,0x4
    36c8:	0f057513          	andi	a0,a0,240
    36cc:	01d6e6b3          	or	a3,a3,t4
    36d0:	00455513          	srli	a0,a0,0x4
    36d4:	00461613          	slli	a2,a2,0x4
    36d8:	00a66633          	or	a2,a2,a0
    36dc:	0116feb3          	and	t4,a3,a7
    36e0:	00f6f533          	and	a0,a3,a5
    36e4:	002ede93          	srli	t4,t4,0x2
    36e8:	03367693          	andi	a3,a2,51
    36ec:	00251513          	slli	a0,a0,0x2
    36f0:	0cc67613          	andi	a2,a2,204
    36f4:	01d56533          	or	a0,a0,t4
    36f8:	00265613          	srli	a2,a2,0x2
    36fc:	00269693          	slli	a3,a3,0x2
    3700:	00c6e6b3          	or	a3,a3,a2
    3704:	00b57633          	and	a2,a0,a1
    3708:	01057533          	and	a0,a0,a6
    370c:	0556ff13          	andi	t5,a3,85
    3710:	00161613          	slli	a2,a2,0x1
    3714:	00155513          	srli	a0,a0,0x1
    3718:	0aa6f693          	andi	a3,a3,170
    371c:	00a66eb3          	or	t4,a2,a0
    3720:	0016d693          	srli	a3,a3,0x1
    3724:	001f1f13          	slli	t5,t5,0x1
    3728:	00df6f33          	or	t5,t5,a3
    372c:	008ed693          	srli	a3,t4,0x8
    3730:	01e6c6b3          	xor	a3,a3,t5
    3734:	00169693          	slli	a3,a3,0x1
    3738:	01c686b3          	add	a3,a3,t3
    373c:	0006d683          	lhu	a3,0(a3)
    3740:	008e9613          	slli	a2,t4,0x8
    3744:	00c6c633          	xor	a2,a3,a2
    3748:	01061513          	slli	a0,a2,0x10
    374c:	0ff6f693          	zext.b	a3,a3
    3750:	01855613          	srli	a2,a0,0x18
    3754:	00869693          	slli	a3,a3,0x8
    3758:	00c6e6b3          	or	a3,a3,a2
    375c:	00e6f733          	and	a4,a3,a4
    3760:	0066f6b3          	and	a3,a3,t1
    3764:	0046d693          	srli	a3,a3,0x4
    3768:	00471713          	slli	a4,a4,0x4
    376c:	00d76733          	or	a4,a4,a3
    3770:	00f777b3          	and	a5,a4,a5
    3774:	01177733          	and	a4,a4,a7
    3778:	00275713          	srli	a4,a4,0x2
    377c:	00279793          	slli	a5,a5,0x2
    3780:	00e7e7b3          	or	a5,a5,a4
    3784:	00b7f533          	and	a0,a5,a1
    3788:	0107f7b3          	and	a5,a5,a6
    378c:	0017d793          	srli	a5,a5,0x1
    3790:	00151513          	slli	a0,a0,0x1
    3794:	00f56533          	or	a0,a0,a5
    3798:	00008067          	ret

0000379c <check_data_types>:
    379c:	00000513          	li	a0,0
    37a0:	00008067          	ret

000037a4 <__mulsi3>:
    37a4:	00050613          	mv	a2,a0
    37a8:	00000513          	li	a0,0
    37ac:	0015f693          	andi	a3,a1,1
    37b0:	00068463          	beqz	a3,37b8 <__mulsi3+0x14>
    37b4:	00c50533          	add	a0,a0,a2
    37b8:	0015d593          	srli	a1,a1,0x1
    37bc:	00161613          	slli	a2,a2,0x1
    37c0:	fe0596e3          	bnez	a1,37ac <__mulsi3+0x8>
    37c4:	00008067          	ret

000037c8 <__divsi3>:
    37c8:	06054063          	bltz	a0,3828 <__umodsi3+0x10>
    37cc:	0605c663          	bltz	a1,3838 <__umodsi3+0x20>

000037d0 <__hidden___udivsi3>:
    37d0:	00058613          	mv	a2,a1
    37d4:	00050593          	mv	a1,a0
    37d8:	fff00513          	li	a0,-1
    37dc:	02060c63          	beqz	a2,3814 <__hidden___udivsi3+0x44>
    37e0:	00100693          	li	a3,1
    37e4:	00b67a63          	bgeu	a2,a1,37f8 <__hidden___udivsi3+0x28>
    37e8:	00c05863          	blez	a2,37f8 <__hidden___udivsi3+0x28>
    37ec:	00161613          	slli	a2,a2,0x1
    37f0:	00169693          	slli	a3,a3,0x1
    37f4:	feb66ae3          	bltu	a2,a1,37e8 <__hidden___udivsi3+0x18>
    37f8:	00000513          	li	a0,0
    37fc:	00c5e663          	bltu	a1,a2,3808 <__hidden___udivsi3+0x38>
    3800:	40c585b3          	sub	a1,a1,a2
    3804:	00d56533          	or	a0,a0,a3
    3808:	0016d693          	srli	a3,a3,0x1
    380c:	00165613          	srli	a2,a2,0x1
    3810:	fe0696e3          	bnez	a3,37fc <__hidden___udivsi3+0x2c>
    3814:	00008067          	ret

00003818 <__umodsi3>:
    3818:	00008293          	mv	t0,ra
    381c:	fb5ff0ef          	jal	37d0 <__hidden___udivsi3>
    3820:	00058513          	mv	a0,a1
    3824:	00028067          	jr	t0
    3828:	40a00533          	neg	a0,a0
    382c:	00b04863          	bgtz	a1,383c <__umodsi3+0x24>
    3830:	40b005b3          	neg	a1,a1
    3834:	f9dff06f          	j	37d0 <__hidden___udivsi3>
    3838:	40b005b3          	neg	a1,a1
    383c:	00008293          	mv	t0,ra
    3840:	f91ff0ef          	jal	37d0 <__hidden___udivsi3>
    3844:	40a00533          	neg	a0,a0
    3848:	00028067          	jr	t0

0000384c <__modsi3>:
    384c:	00008293          	mv	t0,ra
    3850:	0005ca63          	bltz	a1,3864 <__modsi3+0x18>
    3854:	00054c63          	bltz	a0,386c <__modsi3+0x20>
    3858:	f79ff0ef          	jal	37d0 <__hidden___udivsi3>
    385c:	00058513          	mv	a0,a1
    3860:	00028067          	jr	t0
    3864:	40b005b3          	neg	a1,a1
    3868:	fe0558e3          	bgez	a0,3858 <__modsi3+0xc>
    386c:	40a00533          	neg	a0,a0
    3870:	f61ff0ef          	jal	37d0 <__hidden___udivsi3>
    3874:	40b00533          	neg	a0,a1
    3878:	00028067          	jr	t0

0000387c <main>:
    387c:	81010113          	addi	sp,sp,-2032
    3880:	7e112623          	sw	ra,2028(sp)
    3884:	7e812423          	sw	s0,2024(sp)
    3888:	7d312e23          	sw	s3,2012(sp)
    388c:	7e912223          	sw	s1,2020(sp)
    3890:	7f212023          	sw	s2,2016(sp)
    3894:	7d412c23          	sw	s4,2008(sp)
    3898:	7d512a23          	sw	s5,2004(sp)
    389c:	7d612823          	sw	s6,2000(sp)
    38a0:	7d712623          	sw	s7,1996(sp)
    38a4:	7d812423          	sw	s8,1992(sp)
    38a8:	7d912223          	sw	s9,1988(sp)
    38ac:	7da12023          	sw	s10,1984(sp)
    38b0:	fa010113          	addi	sp,sp,-96
    38b4:	02010413          	addi	s0,sp,32
    38b8:	fe840613          	addi	a2,s0,-24
    38bc:	fe440593          	addi	a1,s0,-28
    38c0:	04e10513          	addi	a0,sp,78
    38c4:	00012223          	sw	zero,4(sp)
    38c8:	99dfc0ef          	jal	264 <portable_init>
    38cc:	00100513          	li	a0,1
    38d0:	cc4ff0ef          	jal	2d94 <get_seed_32>
    38d4:	00a11623          	sh	a0,12(sp)
    38d8:	00200513          	li	a0,2
    38dc:	cb8ff0ef          	jal	2d94 <get_seed_32>
    38e0:	00a11723          	sh	a0,14(sp)
    38e4:	00300513          	li	a0,3
    38e8:	cacff0ef          	jal	2d94 <get_seed_32>
    38ec:	00a11823          	sh	a0,16(sp)
    38f0:	00400513          	li	a0,4
    38f4:	ca0ff0ef          	jal	2d94 <get_seed_32>
    38f8:	00100793          	li	a5,1
    38fc:	00500513          	li	a0,5
    3900:	02f12423          	sw	a5,40(sp)
    3904:	c90ff0ef          	jal	2d94 <get_seed_32>
    3908:	82010413          	addi	s0,sp,-2016
    390c:	00700993          	li	s3,7
    3910:	00050463          	beqz	a0,3918 <main+0x9c>
    3914:	00050993          	mv	s3,a0
    3918:	03312623          	sw	s3,44(sp)
    391c:	7ec42783          	lw	a5,2028(s0)
    3920:	32078c63          	beqz	a5,3c58 <main+0x3dc>
    3924:	00100713          	li	a4,1
    3928:	6ae78463          	beq	a5,a4,3fd0 <main+0x754>
    392c:	0029f793          	andi	a5,s3,2
    3930:	00f037b3          	snez	a5,a5
    3934:	05010a93          	addi	s5,sp,80
    3938:	0019f593          	andi	a1,s3,1
    393c:	00f585b3          	add	a1,a1,a5
    3940:	04011623          	sh	zero,76(sp)
    3944:	7f542a23          	sw	s5,2036(s0)
    3948:	0049f793          	andi	a5,s3,4
    394c:	00078863          	beqz	a5,395c <main+0xe0>
    3950:	00158593          	addi	a1,a1,1
    3954:	01059593          	slli	a1,a1,0x10
    3958:	0105d593          	srli	a1,a1,0x10
    395c:	7d000513          	li	a0,2000
    3960:	e71ff0ef          	jal	37d0 <__hidden___udivsi3>
    3964:	00c10913          	addi	s2,sp,12
    3968:	00050c93          	mv	s9,a0
    396c:	02a12223          	sw	a0,36(sp)
    3970:	00090a13          	mv	s4,s2
    3974:	00000493          	li	s1,0
    3978:	00000b13          	li	s6,0
    397c:	00100c13          	li	s8,1
    3980:	00300b93          	li	s7,3
    3984:	009c17b3          	sll	a5,s8,s1
    3988:	0137f7b3          	and	a5,a5,s3
    398c:	16079063          	bnez	a5,3aec <main+0x270>
    3990:	00148493          	addi	s1,s1,1
    3994:	004a0a13          	addi	s4,s4,4
    3998:	ff7496e3          	bne	s1,s7,3984 <main+0x108>
    399c:	02c12783          	lw	a5,44(sp)
    39a0:	0017f713          	andi	a4,a5,1
    39a4:	00070e63          	beqz	a4,39c0 <main+0x144>
    39a8:	7ec41603          	lh	a2,2028(s0)
    39ac:	7f842583          	lw	a1,2040(s0)
    39b0:	02412503          	lw	a0,36(sp)
    39b4:	e3dfd0ef          	jal	17f0 <core_list_init>
    39b8:	02c12783          	lw	a5,44(sp)
    39bc:	02a12823          	sw	a0,48(sp)
    39c0:	0027f713          	andi	a4,a5,2
    39c4:	10071063          	bnez	a4,3ac4 <main+0x248>
    39c8:	0047f793          	andi	a5,a5,4
    39cc:	00078a63          	beqz	a5,39e0 <main+0x164>
    39d0:	02012603          	lw	a2,32(sp)
    39d4:	7ec41583          	lh	a1,2028(s0)
    39d8:	02412503          	lw	a0,36(sp)
    39dc:	d49fe0ef          	jal	2724 <core_init_state>
    39e0:	02812783          	lw	a5,40(sp)
    39e4:	04079c63          	bnez	a5,3a3c <main+0x1c0>
    39e8:	00100793          	li	a5,1
    39ec:	02f12423          	sw	a5,40(sp)
    39f0:	02812703          	lw	a4,40(sp)
    39f4:	00271793          	slli	a5,a4,0x2
    39f8:	00e787b3          	add	a5,a5,a4
    39fc:	00179793          	slli	a5,a5,0x1
    3a00:	02f12423          	sw	a5,40(sp)
    3a04:	fe8fc0ef          	jal	1ec <start_time>
    3a08:	00090513          	mv	a0,s2
    3a0c:	d74fd0ef          	jal	f80 <iterate>
    3a10:	ffcfc0ef          	jal	20c <stop_time>
    3a14:	819fc0ef          	jal	22c <get_time>
    3a18:	82dfc0ef          	jal	244 <time_in_secs>
    3a1c:	fc050ae3          	beqz	a0,39f0 <main+0x174>
    3a20:	00050593          	mv	a1,a0
    3a24:	00a00513          	li	a0,10
    3a28:	da9ff0ef          	jal	37d0 <__hidden___udivsi3>
    3a2c:	02812583          	lw	a1,40(sp)
    3a30:	00150513          	addi	a0,a0,1
    3a34:	d71ff0ef          	jal	37a4 <__mulsi3>
    3a38:	02a12423          	sw	a0,40(sp)
    3a3c:	fb0fc0ef          	jal	1ec <start_time>
    3a40:	00090513          	mv	a0,s2
    3a44:	d3cfd0ef          	jal	f80 <iterate>
    3a48:	fc4fc0ef          	jal	20c <stop_time>
    3a4c:	fe0fc0ef          	jal	22c <get_time>
    3a50:	00050993          	mv	s3,a0
    3a54:	7ec41503          	lh	a0,2028(s0)
    3a58:	00000593          	li	a1,0
    3a5c:	b15ff0ef          	jal	3570 <crc16>
    3a60:	00050593          	mv	a1,a0
    3a64:	7ee41503          	lh	a0,2030(s0)
    3a68:	b09ff0ef          	jal	3570 <crc16>
    3a6c:	00050593          	mv	a1,a0
    3a70:	7f041503          	lh	a0,2032(s0)
    3a74:	afdff0ef          	jal	3570 <crc16>
    3a78:	00050593          	mv	a1,a0
    3a7c:	02411503          	lh	a0,36(sp)
    3a80:	af1ff0ef          	jal	3570 <crc16>
    3a84:	000087b7          	lui	a5,0x8
    3a88:	b0578793          	addi	a5,a5,-1275 # 7b05 <errpat+0x38a9>
    3a8c:	00050a13          	mv	s4,a0
    3a90:	50f50c63          	beq	a0,a5,3fa8 <main+0x72c>
    3a94:	06a7fe63          	bgeu	a5,a0,3b10 <main+0x294>
    3a98:	000097b7          	lui	a5,0x9
    3a9c:	a0278793          	addi	a5,a5,-1534 # 8a02 <errpat+0x47a6>
    3aa0:	4ef50a63          	beq	a0,a5,3f94 <main+0x718>
    3aa4:	0000f7b7          	lui	a5,0xf
    3aa8:	9f578793          	addi	a5,a5,-1547 # e9f5 <errpat+0xa799>
    3aac:	1cf51063          	bne	a0,a5,3c6c <main+0x3f0>
    3ab0:	00004537          	lui	a0,0x4
    3ab4:	57c50513          	addi	a0,a0,1404 # 457c <errpat+0x320>
    3ab8:	b8dfc0ef          	jal	644 <printf>
    3abc:	00300793          	li	a5,3
    3ac0:	0780006f          	j	3b38 <main+0x2bc>
    3ac4:	7ee41783          	lh	a5,2030(s0)
    3ac8:	7ec41603          	lh	a2,2028(s0)
    3acc:	7fc42583          	lw	a1,2044(s0)
    3ad0:	02412503          	lw	a0,36(sp)
    3ad4:	01079793          	slli	a5,a5,0x10
    3ad8:	00c7e633          	or	a2,a5,a2
    3adc:	03410693          	addi	a3,sp,52
    3ae0:	8d0fe0ef          	jal	1bb0 <core_init_matrix>
    3ae4:	02c12783          	lw	a5,44(sp)
    3ae8:	ee1ff06f          	j	39c8 <main+0x14c>
    3aec:	000b0513          	mv	a0,s6
    3af0:	000c8593          	mv	a1,s9
    3af4:	cb1ff0ef          	jal	37a4 <__mulsi3>
    3af8:	001b0b13          	addi	s6,s6,1
    3afc:	010b1b13          	slli	s6,s6,0x10
    3b00:	00aa8533          	add	a0,s5,a0
    3b04:	010b5b13          	srli	s6,s6,0x10
    3b08:	00aa2623          	sw	a0,12(s4)
    3b0c:	e85ff06f          	j	3990 <main+0x114>
    3b10:	000027b7          	lui	a5,0x2
    3b14:	8f278793          	addi	a5,a5,-1806 # 18f2 <core_list_init+0x102>
    3b18:	4af50263          	beq	a0,a5,3fbc <main+0x740>
    3b1c:	000057b7          	lui	a5,0x5
    3b20:	eaf78793          	addi	a5,a5,-337 # 4eaf <errpat+0xc53>
    3b24:	14f51463          	bne	a0,a5,3c6c <main+0x3f0>
    3b28:	00004537          	lui	a0,0x4
    3b2c:	54850513          	addi	a0,a0,1352 # 4548 <errpat+0x2ec>
    3b30:	b15fc0ef          	jal	644 <printf>
    3b34:	00200793          	li	a5,2
    3b38:	00100b37          	lui	s6,0x100
    3b3c:	00cb2703          	lw	a4,12(s6) # 10000c <default_num_contexts>
    3b40:	4a070863          	beqz	a4,3ff0 <main+0x774>
    3b44:	00004cb7          	lui	s9,0x4
    3b48:	00179793          	slli	a5,a5,0x1
    3b4c:	208c8c93          	addi	s9,s9,520 # 4208 <list_known_crc>
    3b50:	00fc8cb3          	add	s9,s9,a5
    3b54:	000047b7          	lui	a5,0x4
    3b58:	5d878d13          	addi	s10,a5,1496 # 45d8 <errpat+0x37c>
    3b5c:	00000c13          	li	s8,0
    3b60:	00000a93          	li	s5,0
    3b64:	00001bb7          	lui	s7,0x1
    3b68:	0340006f          	j	3b9c <main+0x320>
    3b6c:	015487b3          	add	a5,s1,s5
    3b70:	00279793          	slli	a5,a5,0x2
    3b74:	00f407b3          	add	a5,s0,a5
    3b78:	00fb87b3          	add	a5,s7,a5
    3b7c:	82c7d783          	lhu	a5,-2004(a5)
    3b80:	01878933          	add	s2,a5,s8
    3b84:	001a8a93          	addi	s5,s5,1
    3b88:	00cb2783          	lw	a5,12(s6)
    3b8c:	010a9a93          	slli	s5,s5,0x10
    3b90:	010ada93          	srli	s5,s5,0x10
    3b94:	00090c13          	mv	s8,s2
    3b98:	0efaf063          	bgeu	s5,a5,3c78 <main+0x3fc>
    3b9c:	004a9493          	slli	s1,s5,0x4
    3ba0:	01548933          	add	s2,s1,s5
    3ba4:	00291913          	slli	s2,s2,0x2
    3ba8:	01240933          	add	s2,s0,s2
    3bac:	012b8933          	add	s2,s7,s2
    3bb0:	80c92783          	lw	a5,-2036(s2)
    3bb4:	82091623          	sh	zero,-2004(s2)
    3bb8:	0017f713          	andi	a4,a5,1
    3bbc:	02070663          	beqz	a4,3be8 <main+0x36c>
    3bc0:	82695603          	lhu	a2,-2010(s2)
    3bc4:	000cd683          	lhu	a3,0(s9)
    3bc8:	02d60063          	beq	a2,a3,3be8 <main+0x36c>
    3bcc:	000a8593          	mv	a1,s5
    3bd0:	000d0513          	mv	a0,s10
    3bd4:	a71fc0ef          	jal	644 <printf>
    3bd8:	82c95703          	lhu	a4,-2004(s2)
    3bdc:	80c92783          	lw	a5,-2036(s2)
    3be0:	00170713          	addi	a4,a4,1
    3be4:	82e91623          	sh	a4,-2004(s2)
    3be8:	0027f713          	andi	a4,a5,2
    3bec:	04070063          	beqz	a4,3c2c <main+0x3b0>
    3bf0:	01548933          	add	s2,s1,s5
    3bf4:	00291913          	slli	s2,s2,0x2
    3bf8:	01240933          	add	s2,s0,s2
    3bfc:	012b8933          	add	s2,s7,s2
    3c00:	82895603          	lhu	a2,-2008(s2)
    3c04:	00ccd683          	lhu	a3,12(s9)
    3c08:	02d60263          	beq	a2,a3,3c2c <main+0x3b0>
    3c0c:	00004537          	lui	a0,0x4
    3c10:	60850513          	addi	a0,a0,1544 # 4608 <errpat+0x3ac>
    3c14:	000a8593          	mv	a1,s5
    3c18:	a2dfc0ef          	jal	644 <printf>
    3c1c:	82c95703          	lhu	a4,-2004(s2)
    3c20:	80c92783          	lw	a5,-2036(s2)
    3c24:	00170713          	addi	a4,a4,1
    3c28:	82e91623          	sh	a4,-2004(s2)
    3c2c:	0047f793          	andi	a5,a5,4
    3c30:	f2078ee3          	beqz	a5,3b6c <main+0x2f0>
    3c34:	015484b3          	add	s1,s1,s5
    3c38:	00249493          	slli	s1,s1,0x2
    3c3c:	009404b3          	add	s1,s0,s1
    3c40:	009b84b3          	add	s1,s7,s1
    3c44:	82a4d603          	lhu	a2,-2006(s1)
    3c48:	018cd683          	lhu	a3,24(s9)
    3c4c:	2ad61a63          	bne	a2,a3,3f00 <main+0x684>
    3c50:	82c4d783          	lhu	a5,-2004(s1)
    3c54:	f2dff06f          	j	3b80 <main+0x304>
    3c58:	7f041783          	lh	a5,2032(s0)
    3c5c:	cc0798e3          	bnez	a5,392c <main+0xb0>
    3c60:	06600793          	li	a5,102
    3c64:	7ef41823          	sh	a5,2032(s0)
    3c68:	cc5ff06f          	j	392c <main+0xb0>
    3c6c:	000107b7          	lui	a5,0x10
    3c70:	fff78913          	addi	s2,a5,-1 # ffff <errpat+0xbda3>
    3c74:	00100b37          	lui	s6,0x100
    3c78:	b25ff0ef          	jal	379c <check_data_types>
    3c7c:	02412583          	lw	a1,36(sp)
    3c80:	01250933          	add	s2,a0,s2
    3c84:	00004537          	lui	a0,0x4
    3c88:	66c50513          	addi	a0,a0,1644 # 466c <errpat+0x410>
    3c8c:	9b9fc0ef          	jal	644 <printf>
    3c90:	00004537          	lui	a0,0x4
    3c94:	00098593          	mv	a1,s3
    3c98:	68450513          	addi	a0,a0,1668 # 4684 <errpat+0x428>
    3c9c:	9a9fc0ef          	jal	644 <printf>
    3ca0:	00098513          	mv	a0,s3
    3ca4:	da0fc0ef          	jal	244 <time_in_secs>
    3ca8:	00050593          	mv	a1,a0
    3cac:	00004537          	lui	a0,0x4
    3cb0:	69c50513          	addi	a0,a0,1692 # 469c <errpat+0x440>
    3cb4:	991fc0ef          	jal	644 <printf>
    3cb8:	00098513          	mv	a0,s3
    3cbc:	d88fc0ef          	jal	244 <time_in_secs>
    3cc0:	26051e63          	bnez	a0,3f3c <main+0x6c0>
    3cc4:	00098513          	mv	a0,s3
    3cc8:	d7cfc0ef          	jal	244 <time_in_secs>
    3ccc:	00900793          	li	a5,9
    3cd0:	24a7fc63          	bgeu	a5,a0,3f28 <main+0x6ac>
    3cd4:	00cb2583          	lw	a1,12(s6) # 10000c <default_num_contexts>
    3cd8:	02812503          	lw	a0,40(sp)
    3cdc:	01091913          	slli	s2,s2,0x10
    3ce0:	41095913          	srai	s2,s2,0x10
    3ce4:	ac1ff0ef          	jal	37a4 <__mulsi3>
    3ce8:	00050593          	mv	a1,a0
    3cec:	00004537          	lui	a0,0x4
    3cf0:	70c50513          	addi	a0,a0,1804 # 470c <errpat+0x4b0>
    3cf4:	951fc0ef          	jal	644 <printf>
    3cf8:	000045b7          	lui	a1,0x4
    3cfc:	00004537          	lui	a0,0x4
    3d00:	72458593          	addi	a1,a1,1828 # 4724 <errpat+0x4c8>
    3d04:	73050513          	addi	a0,a0,1840 # 4730 <errpat+0x4d4>
    3d08:	93dfc0ef          	jal	644 <printf>
    3d0c:	000045b7          	lui	a1,0x4
    3d10:	00004537          	lui	a0,0x4
    3d14:	74858593          	addi	a1,a1,1864 # 4748 <errpat+0x4ec>
    3d18:	76c50513          	addi	a0,a0,1900 # 476c <errpat+0x510>
    3d1c:	929fc0ef          	jal	644 <printf>
    3d20:	000045b7          	lui	a1,0x4
    3d24:	00004537          	lui	a0,0x4
    3d28:	78458593          	addi	a1,a1,1924 # 4784 <errpat+0x528>
    3d2c:	78c50513          	addi	a0,a0,1932 # 478c <errpat+0x530>
    3d30:	915fc0ef          	jal	644 <printf>
    3d34:	00004537          	lui	a0,0x4
    3d38:	000a0593          	mv	a1,s4
    3d3c:	7a450513          	addi	a0,a0,1956 # 47a4 <errpat+0x548>
    3d40:	905fc0ef          	jal	644 <printf>
    3d44:	02c12783          	lw	a5,44(sp)
    3d48:	0017f713          	andi	a4,a5,1
    3d4c:	04070c63          	beqz	a4,3da4 <main+0x528>
    3d50:	00cb2703          	lw	a4,12(s6)
    3d54:	04070863          	beqz	a4,3da4 <main+0x528>
    3d58:	000049b7          	lui	s3,0x4
    3d5c:	7c098993          	addi	s3,s3,1984 # 47c0 <errpat+0x564>
    3d60:	00000493          	li	s1,0
    3d64:	00001a37          	lui	s4,0x1
    3d68:	00449793          	slli	a5,s1,0x4
    3d6c:	009787b3          	add	a5,a5,s1
    3d70:	00279793          	slli	a5,a5,0x2
    3d74:	00f407b3          	add	a5,s0,a5
    3d78:	00fa07b3          	add	a5,s4,a5
    3d7c:	8267d603          	lhu	a2,-2010(a5)
    3d80:	00048593          	mv	a1,s1
    3d84:	00098513          	mv	a0,s3
    3d88:	8bdfc0ef          	jal	644 <printf>
    3d8c:	00148493          	addi	s1,s1,1
    3d90:	00cb2783          	lw	a5,12(s6)
    3d94:	01049493          	slli	s1,s1,0x10
    3d98:	0104d493          	srli	s1,s1,0x10
    3d9c:	fcf4e6e3          	bltu	s1,a5,3d68 <main+0x4ec>
    3da0:	02c12783          	lw	a5,44(sp)
    3da4:	0027f713          	andi	a4,a5,2
    3da8:	04070c63          	beqz	a4,3e00 <main+0x584>
    3dac:	00cb2703          	lw	a4,12(s6)
    3db0:	24070463          	beqz	a4,3ff8 <main+0x77c>
    3db4:	000049b7          	lui	s3,0x4
    3db8:	7dc98993          	addi	s3,s3,2012 # 47dc <errpat+0x580>
    3dbc:	00000493          	li	s1,0
    3dc0:	00001a37          	lui	s4,0x1
    3dc4:	00449793          	slli	a5,s1,0x4
    3dc8:	009787b3          	add	a5,a5,s1
    3dcc:	00279793          	slli	a5,a5,0x2
    3dd0:	00f407b3          	add	a5,s0,a5
    3dd4:	00fa07b3          	add	a5,s4,a5
    3dd8:	8287d603          	lhu	a2,-2008(a5)
    3ddc:	00048593          	mv	a1,s1
    3de0:	00098513          	mv	a0,s3
    3de4:	861fc0ef          	jal	644 <printf>
    3de8:	00148493          	addi	s1,s1,1
    3dec:	00cb2783          	lw	a5,12(s6)
    3df0:	01049493          	slli	s1,s1,0x10
    3df4:	0104d493          	srli	s1,s1,0x10
    3df8:	fcf4e6e3          	bltu	s1,a5,3dc4 <main+0x548>
    3dfc:	02c12783          	lw	a5,44(sp)
    3e00:	0047f793          	andi	a5,a5,4
    3e04:	04078a63          	beqz	a5,3e58 <main+0x5dc>
    3e08:	00cb2783          	lw	a5,12(s6)
    3e0c:	08078e63          	beqz	a5,3ea8 <main+0x62c>
    3e10:	000049b7          	lui	s3,0x4
    3e14:	7f898993          	addi	s3,s3,2040 # 47f8 <errpat+0x59c>
    3e18:	00000493          	li	s1,0
    3e1c:	00001a37          	lui	s4,0x1
    3e20:	00449793          	slli	a5,s1,0x4
    3e24:	009787b3          	add	a5,a5,s1
    3e28:	00279793          	slli	a5,a5,0x2
    3e2c:	00f407b3          	add	a5,s0,a5
    3e30:	00fa07b3          	add	a5,s4,a5
    3e34:	82a7d603          	lhu	a2,-2006(a5)
    3e38:	00048593          	mv	a1,s1
    3e3c:	00098513          	mv	a0,s3
    3e40:	805fc0ef          	jal	644 <printf>
    3e44:	00148493          	addi	s1,s1,1
    3e48:	00cb2783          	lw	a5,12(s6)
    3e4c:	01049493          	slli	s1,s1,0x10
    3e50:	0104d493          	srli	s1,s1,0x10
    3e54:	fcf4e6e3          	bltu	s1,a5,3e20 <main+0x5a4>
    3e58:	00cb2783          	lw	a5,12(s6)
    3e5c:	000059b7          	lui	s3,0x5
    3e60:	81498993          	addi	s3,s3,-2028 # 4814 <errpat+0x5b8>
    3e64:	00000493          	li	s1,0
    3e68:	00001a37          	lui	s4,0x1
    3e6c:	02078e63          	beqz	a5,3ea8 <main+0x62c>
    3e70:	00449793          	slli	a5,s1,0x4
    3e74:	009787b3          	add	a5,a5,s1
    3e78:	00279793          	slli	a5,a5,0x2
    3e7c:	00f407b3          	add	a5,s0,a5
    3e80:	00fa07b3          	add	a5,s4,a5
    3e84:	8247d603          	lhu	a2,-2012(a5)
    3e88:	00048593          	mv	a1,s1
    3e8c:	00098513          	mv	a0,s3
    3e90:	fb4fc0ef          	jal	644 <printf>
    3e94:	00148493          	addi	s1,s1,1
    3e98:	00cb2783          	lw	a5,12(s6)
    3e9c:	01049493          	slli	s1,s1,0x10
    3ea0:	0104d493          	srli	s1,s1,0x10
    3ea4:	fcf4e6e3          	bltu	s1,a5,3e70 <main+0x5f4>
    3ea8:	0c090663          	beqz	s2,3f74 <main+0x6f8>
    3eac:	0d205c63          	blez	s2,3f84 <main+0x708>
    3eb0:	00005537          	lui	a0,0x5
    3eb4:	8e050513          	addi	a0,a0,-1824 # 48e0 <errpat+0x684>
    3eb8:	f8cfc0ef          	jal	644 <printf>
    3ebc:	04e10513          	addi	a0,sp,78
    3ec0:	bb0fc0ef          	jal	270 <portable_fini>
    3ec4:	06010113          	addi	sp,sp,96
    3ec8:	7ec12083          	lw	ra,2028(sp)
    3ecc:	7e812403          	lw	s0,2024(sp)
    3ed0:	7e412483          	lw	s1,2020(sp)
    3ed4:	7e012903          	lw	s2,2016(sp)
    3ed8:	7dc12983          	lw	s3,2012(sp)
    3edc:	7d812a03          	lw	s4,2008(sp)
    3ee0:	7d412a83          	lw	s5,2004(sp)
    3ee4:	7d012b03          	lw	s6,2000(sp)
    3ee8:	7cc12b83          	lw	s7,1996(sp)
    3eec:	7c812c03          	lw	s8,1992(sp)
    3ef0:	7c412c83          	lw	s9,1988(sp)
    3ef4:	7c012d03          	lw	s10,1984(sp)
    3ef8:	7f010113          	addi	sp,sp,2032
    3efc:	00008067          	ret
    3f00:	00004537          	lui	a0,0x4
    3f04:	63c50513          	addi	a0,a0,1596 # 463c <errpat+0x3e0>
    3f08:	000a8593          	mv	a1,s5
    3f0c:	f38fc0ef          	jal	644 <printf>
    3f10:	82c4d783          	lhu	a5,-2004(s1)
    3f14:	00178793          	addi	a5,a5,1
    3f18:	01079793          	slli	a5,a5,0x10
    3f1c:	0107d793          	srli	a5,a5,0x10
    3f20:	82f49623          	sh	a5,-2004(s1)
    3f24:	c5dff06f          	j	3b80 <main+0x304>
    3f28:	00004537          	lui	a0,0x4
    3f2c:	6cc50513          	addi	a0,a0,1740 # 46cc <errpat+0x470>
    3f30:	f14fc0ef          	jal	644 <printf>
    3f34:	00190913          	addi	s2,s2,1
    3f38:	d9dff06f          	j	3cd4 <main+0x458>
    3f3c:	00cb2583          	lw	a1,12(s6)
    3f40:	02812503          	lw	a0,40(sp)
    3f44:	861ff0ef          	jal	37a4 <__mulsi3>
    3f48:	00050493          	mv	s1,a0
    3f4c:	00098513          	mv	a0,s3
    3f50:	af4fc0ef          	jal	244 <time_in_secs>
    3f54:	00050593          	mv	a1,a0
    3f58:	00048513          	mv	a0,s1
    3f5c:	875ff0ef          	jal	37d0 <__hidden___udivsi3>
    3f60:	00050593          	mv	a1,a0
    3f64:	00004537          	lui	a0,0x4
    3f68:	6b450513          	addi	a0,a0,1716 # 46b4 <errpat+0x458>
    3f6c:	ed8fc0ef          	jal	644 <printf>
    3f70:	d55ff06f          	j	3cc4 <main+0x448>
    3f74:	00005537          	lui	a0,0x5
    3f78:	83050513          	addi	a0,a0,-2000 # 4830 <errpat+0x5d4>
    3f7c:	ec8fc0ef          	jal	644 <printf>
    3f80:	f3dff06f          	j	3ebc <main+0x640>
    3f84:	00005537          	lui	a0,0x5
    3f88:	87c50513          	addi	a0,a0,-1924 # 487c <errpat+0x620>
    3f8c:	eb8fc0ef          	jal	644 <printf>
    3f90:	f2dff06f          	j	3ebc <main+0x640>
    3f94:	00004537          	lui	a0,0x4
    3f98:	4ec50513          	addi	a0,a0,1260 # 44ec <errpat+0x290>
    3f9c:	ea8fc0ef          	jal	644 <printf>
    3fa0:	00000793          	li	a5,0
    3fa4:	b95ff06f          	j	3b38 <main+0x2bc>
    3fa8:	00004537          	lui	a0,0x4
    3fac:	51c50513          	addi	a0,a0,1308 # 451c <errpat+0x2c0>
    3fb0:	e94fc0ef          	jal	644 <printf>
    3fb4:	00100793          	li	a5,1
    3fb8:	b81ff06f          	j	3b38 <main+0x2bc>
    3fbc:	00004537          	lui	a0,0x4
    3fc0:	5ac50513          	addi	a0,a0,1452 # 45ac <errpat+0x350>
    3fc4:	e80fc0ef          	jal	644 <printf>
    3fc8:	00400793          	li	a5,4
    3fcc:	b6dff06f          	j	3b38 <main+0x2bc>
    3fd0:	7f041783          	lh	a5,2032(s0)
    3fd4:	94079ce3          	bnez	a5,392c <main+0xb0>
    3fd8:	341537b7          	lui	a5,0x34153
    3fdc:	41578793          	addi	a5,a5,1045 # 34153415 <_stack_end+0x34043415>
    3fe0:	06600713          	li	a4,102
    3fe4:	7ef42623          	sw	a5,2028(s0)
    3fe8:	7ee41823          	sh	a4,2032(s0)
    3fec:	941ff06f          	j	392c <main+0xb0>
    3ff0:	00000913          	li	s2,0
    3ff4:	c85ff06f          	j	3c78 <main+0x3fc>
    3ff8:	0047f793          	andi	a5,a5,4
    3ffc:	e4078ee3          	beqz	a5,3e58 <main+0x5dc>
    4000:	ea9ff06f          	j	3ea8 <main+0x62c>
